(dp0
S'mobley_1323538'
p1
(dp2
S'smiles'
p3
S'CCOP(=O)(OCC)OCC'
p4
sS'calc'
p5
F-10.8
sS'd_calc'
p6
F0.1
sS'notes'
p7
(lp8
S'Experimental uncertainty as suggested by 10.1039/P29900000291 -- 0.2 kcal/mol.'
p9
asS'iupac'
p10
S'triethylphosphate'
p11
sS'PubChemID'
p12
I6535
sS'd_expt'
p13
F0.2
sS'expt'
p14
F-7.5
sS'groups'
p15
(lp16
S'phosphoric acid ester'
p17
asS'expt_reference'
p18
S'10.1039/P29900000291'
p19
sS'calc_reference'
p20
S'10.1021/jp0667442'
p21
ssS'mobley_2661134'
p22
(dp23
g3
S'c1cc(cc(c1)O)C#N'
p24
sS'calc'
p25
F-6.99
sS'd_calc'
p26
F0.03
sg7
(lp27
S'Experimental uncertainty not presently available, so assigned a default value.'
p28
asS'iupac'
p29
S'3-hydroxybenzonitrile'
p30
sg12
I13394
sg13
F0.6
sS'expt'
p31
F-9.65
sg15
(lp32
S'phenol or hydroxyhetarene'
p33
aS'carbonitrile'
p34
aS'aromatic'
p35
asS'expt_reference'
p36
S'10.1021/ct050097l'
p37
sS'calc_reference'
p38
S'10.1021/ct800409d'
p39
ssS'mobley_6929123'
p40
(dp41
g3
S'COC(=O)CCl'
p42
sg25
F-3.92
sg26
F0.02
sg7
(lp43
g28
asg29
S'methyl 2-chloroacetate'
p44
sg12
I7295
sg13
F0.6
sg31
F-4.0
sg15
(lp45
S'alkyl chloride'
p46
aS'carboxylic acid ester'
p47
asg36
S'10.1139/v80-201'
p48
sg38
g39
ssS'mobley_3395921'
p49
(dp50
g3
S'C1CCOCC1'
p51
sg25
F-1.78
sg26
F0.02
sg7
(lp52
g28
asg29
S'tetrahydropyran'
p53
sg12
I8894
sg13
F0.6
sg31
F-3.12
sg15
(lp54
S'dialkyl ether'
p55
aS'heterocyclic'
p56
asg36
g37
sg38
g39
ssS'mobley_5449201'
p57
(dp58
g3
S'CCCCC'
p59
sg5
F2.6
sg6
F0.1
sg7
(lp60
g9
asg10
S'n-pentane'
p61
sg12
I8003
sg13
F0.2
sg14
F2.3
sg15
(lp62
S''
p63
asg18
g19
sg20
g21
ssS'mobley_5631798'
p64
(dp65
g3
S'N'
p66
sg25
F-4.04
sg26
F0.01
sg7
(lp67
g28
asg29
S'ammonia'
p68
sg12
I222
sg13
F0.6
sg31
F-4.29
sg15
(lp69
g63
asg36
g37
sg38
g39
ssS'mobley_1674094'
p70
(dp71
g3
S'CCCCC#C'
p72
sg25
F0.79
sg26
F0.02
sg7
(lp73
g28
asg29
S'hex-1-yne'
p74
sg12
I12732
sg13
F0.6
sg31
F0.29
sg15
(lp75
S'alkyne'
p76
asg36
g37
sg38
g39
ssS'mobley_9838013'
p77
(dp78
g3
S'CCC(C)(C)O'
p79
sg25
F-2.96
sg26
F0.03
sg7
(lp80
g28
asg29
S'2-methylbutan-2-ol'
p81
sg12
I6405
sg13
F0.6
sg31
F-4.43
sg15
(lp82
S'tertiary alcohol'
p83
asg36
g37
sg38
g39
ssS'mobley_1735893'
p84
(dp85
g3
S'CCCCCC(=O)O'
p86
sg25
F-5.08
sg26
F0.03
sg7
(lp87
g28
asg29
S'hexanoic acid'
p88
sg12
I8892
sg13
F0.6
sg31
F-6.21
sg15
(lp89
S'carboxylic acid'
p90
asg36
g37
sg38
g39
ssS'mobley_2198613'
p91
(dp92
g3
S'CCCl'
p93
sg25
F0.78
sg26
F0.02
sg7
(lp94
g28
asg29
S'chloroethane'
p95
sg12
I6337
sg13
F0.6
sg31
F-0.63
sg15
(lp96
S'alkyl chloride'
p97
asg36
g37
sg38
g39
ssS'mobley_1449384'
p98
(dp99
g3
S'Cc1ccc(cc1)C(C)C'
p100
sg25
F0.2
sg26
F0.03
sg7
(lp101
g28
asg29
S'1-isopropyl-4-methyl-benzene'
p102
sg12
I7463
sg13
F0.6
sg31
F-0.68
sg15
(lp103
S'aromatic'
p104
asg36
g37
sg38
g39
ssS'mobley_3682850'
p105
(dp106
g3
S'C1CCC(=O)CC1'
p107
sg25
F-3.84
sg26
F0.02
sg7
(lp108
g28
asg29
S'cyclohexanone'
p109
sg12
I7967
sg13
F0.6
sg31
F-4.91
sg15
(lp110
S'ketone'
p111
asg36
g37
sg38
g39
ssS'mobley_3264884'
p112
(dp113
g3
S'c1ccc2cc(ccc2c1)N'
p114
sg25
F-7.87
sg26
F0.03
sg7
(lp115
g28
asg29
S'naphthalen-2-amine'
p116
sg12
I7057
sg13
F0.6
sg31
F-7.47
sg15
(lp117
S'primary amine'
p118
aS'primary aromatic amine'
p119
aS'aromatic'
p120
asg36
g37
sg38
g39
ssS'mobley_8614858'
p121
(dp122
g3
S'CCCCCCC'
p123
sg25
F3.2
sg26
F0.02
sg7
(lp124
g28
asg29
S'heptane'
p125
sg12
I8900
sg13
F0.6
sg31
F2.67
sg15
(lp126
g63
asg36
g37
sg38
g39
ssS'mobley_4043987'
p127
(dp128
g3
S'CCCCC(C)C'
p129
sg25
F3.0
sg26
F0.03
sg7
(lp130
g28
asg29
S'2-methylhexane'
p131
sg12
I11582
sg13
F0.6
sg31
F2.93
sg15
(lp132
g63
asg36
g37
sg38
g39
ssS'mobley_2864987'
p133
(dp134
g3
S'CCC[C@@H](C)O'
p135
sg25
F-2.87
sg26
F0.02
sg7
(lp136
S'Renamed mobley_2864987 from pentan-2-ol to (2R)-pentan-2-ol (the name from the 3D structure) since the former did not completely specify stereochemistry.\n'
p137
asg29
S'pentan-2-ol'
p138
sg12
I22386
sg13
F0.6
sg31
F-4.39
sg15
(lp139
S'secondary alcohol'
p140
asg36
g37
sg38
g39
ssS'mobley_859464'
p141
(dp142
g3
S'CC(C)COC(=O)C'
p143
sg25
F-2.8
sg26
F0.02
sg7
(lp144
g28
asg29
S'isobutyl acetate'
p145
sg12
I8038
sg13
F0.6
sg31
F-2.36
sg15
(lp146
S'carboxylic acid ester'
p147
asg36
g37
sg38
g39
ssS'mobley_3053621'
p148
(dp149
g3
S'c1ccccc1'
p150
sg5
F-0.6
sg6
F0.1
sg7
(lp151
g9
asg10
S'benzene'
p152
sg12
I241
sg13
F0.2
sg14
F-0.9
sg15
(lp153
S'aromatic'
p154
asg18
g19
sg20
g21
ssS'mobley_4689084'
p155
(dp156
S'smiles'
p157
S'CC(=O)OCCOC(=O)C'
p158
sS'expt_reference'
p159
S'10.1021/jm070549+'
p160
sS'd_calc'
p161
F0.06
sS'notes'
p162
(lp163
S'Called "ethylene glycol diacetate" in Nicholls et al., but renamed according to IUPAC "CC(=O)OCCOC(=O)C" for better automation. This was excluded from the set in v0.1 but re-added in v0.2 due to an error constructing v0.1.\n'
p164
aS'Topology and coordinate files re-generated Jan. 2014 for v0.2 from original .mol2 files.\n'
p165
aS'Experimental uncertainty not presently available; assigned a default value.'
p166
aS'Experimental uncertainty estimate updated to 0.2 as of v0.2 to match uncertainty estimate given in Nicholls et al. paper.\n'
p167
asS'iupac'
p168
S'2-acetoxyethyl acetate'
p169
sg12
I8121
sS'd_expt'
p170
F0.2
sS'expt'
p171
F-6.34
sS'groups'
p172
(lp173
S'carboxylic acid ester'
p174
asS'calc'
p175
F-8.41
sS'calc_reference'
p176
g160
ssS'mobley_1352110'
p177
(dp178
g3
S'CCCCN(CC)C(=O)SCCC'
p179
sS'calc'
p180
F-4.85
sS'd_calc'
p181
F0.04
sg7
(lp182
g28
asS'iupac'
p183
S'pebulate'
p184
sg12
I14215
sS'd_expt'
p185
F1.93
sS'expt'
p186
F-3.64
sg15
(lp187
S'thiocarbamic acid ester'
p188
asS'expt_reference'
p189
S'10.1021/jp806724u'
p190
sS'calc_reference'
p191
S'10.1021/jp806838b'
p192
ssS'mobley_4291494'
p193
(dp194
g3
S'c1ccnc(c1)Cl'
p195
sg25
F-3.36
sg26
F0.02
sg7
(lp196
g28
asg29
S'2-chloropyridine'
p197
sg12
I7977
sg13
F0.6
sg31
F-4.39
sg15
(lp198
S'aryl chloride'
p199
aS'aromatic'
p200
aS'heterocyclic'
p201
asg36
g37
sg38
g39
ssS'mobley_2364370'
p202
(dp203
g3
S'CCCCOC(=O)C'
p204
sg25
F-3.17
sg26
F0.02
sg7
(lp205
g28
asg29
S'butyl acetate'
p206
sg12
I31272
sg13
F0.6
sg31
F-2.64
sg15
(lp207
S'carboxylic acid ester'
p208
asg36
g37
sg38
g39
ssS'mobley_1893815'
p209
(dp210
g3
S'C(C(Cl)(Cl)Cl)Cl'
p211
sS'calc'
p212
F-0.11
sS'd_calc'
p213
F0.02
sg7
(lp214
g28
asS'iupac'
p215
S'1,1,1,2-tetrachloroethane'
p216
sg12
I12418
sS'd_expt'
p217
F0.1
sS'expt'
p218
F-1.43
sg15
(lp219
S'alkyl chloride'
p220
asS'expt_reference'
p221
S'10.1007/s10822-012-9568-8'
p222
sS'calc_reference'
p223
S'10.1007/s10822-011-9528-8'
p224
ssS'mobley_5200358'
p225
(dp226
g3
S'CC(C)(/C=N\\OC(=O)NC)SC'
p227
sg180
F-10.27
sg181
F0.05
sg7
(lp228
S'Renamed mobley_5200358 from aldicarb to [(Z)-(2-methyl-2-methylsulfanyl-propylidene)amino] N-methylcarbamate (the name from the 3D structure) since the former did not completely specify stereochemistry.\n'
p229
asg183
S'aldicarb'
p230
sg12
I9570071
sg185
F0.1
sg186
F-9.84
sg15
(lp231
S'thioether'
p232
aS'carbamic acid'
p233
asg189
g190
sg191
g192
ssS'mobley_9246215'
p234
(dp235
g3
S'C=CCC=C'
p236
sg25
F2.18
sg26
F0.02
sg7
(lp237
g28
asg29
S'penta-1,4-diene'
p238
sg12
I11587
sg13
F0.6
sg31
F0.93
sg15
(lp239
S'alkene'
p240
asg36
g37
sg38
g39
ssS'mobley_5110043'
p241
(dp242
g3
S'Cc1ccc2cc(ccc2c1)C'
p243
sg25
F-2.65
sg26
F0.03
sg7
(lp244
g28
asg29
S'2,6-dimethylnaphthalene'
p245
sg12
I11387
sg13
F0.6
sg31
F-2.63
sg15
(lp246
S'aromatic'
p247
asg36
g37
sg38
g39
ssS'mobley_6190089'
p248
(dp249
g3
S'C(C(Cl)Cl)(Cl)Cl'
p250
sg212
F-0.53
sg213
F0.02
sg7
(lp251
g28
asg215
S'1,1,2,2-tetrachloroethane'
p252
sg12
I6591
sg217
F0.1
sg218
F-2.37
sg15
(lp253
S'alkyl chloride'
p254
asg221
g222
sg223
g224
ssS'mobley_6266306'
p255
(dp256
g3
S'C1CNC1'
p257
sg25
F-3.41
sg26
F0.02
sg7
(lp258
g28
asg29
S'azetidine'
p259
sg12
I10422
sg13
F0.6
sg31
F-5.56
sg15
(lp260
S'secondary amine'
p261
aS'secondary aliphatic amine (dialkylamine)'
p262
aS'heterocyclic'
p263
asg36
g37
sg38
g39
ssS'mobley_4219614'
p264
(dp265
g3
S'c1cc(c(c(c1Cl)Cl)Cl)Cl'
p266
sg25
F-0.32
sg26
F0.02
sg7
(lp267
g28
asg29
S'1,2,3,4-tetrachlorobenzene'
p268
sg12
I12463
sg13
F0.6
sg31
F-1.34
sg15
(lp269
S'aryl chloride'
p270
aS'aromatic'
p271
asg36
g37
sg38
g39
ssS'mobley_9246351'
p272
(dp273
g3
S'C(Br)Br'
p274
sg25
F0.87
sg26
F0.02
sg7
(lp275
g28
asg29
S'dibromomethane'
p276
sg12
I3024
sg13
F0.6
sg31
F-1.96
sg15
(lp277
S'alkyl bromide'
p278
asg36
g37
sg38
g39
ssS'mobley_8011706'
p279
(dp280
g3
S'CN(C)C=O'
p281
sg25
F-6.86
sg26
F0.03
sg7
(lp282
g28
asg29
S'N,N-dimethylformamide'
p283
sg12
I6228
sg13
F0.6
sg31
F-7.81
sg15
(lp284
S'tertiary carboxylic acid amide'
p285
asg36
g37
sg38
g39
ssS'mobley_2577969'
p286
(dp287
g3
S'c1cc2ccc3cccc4c3c2c(c1)cc4'
p288
sg25
F-6.62
sg26
F0.03
sg7
(lp289
g28
asg29
S'pyrene'
p290
sg12
I31423
sg13
F0.6
sg31
F-4.52
sg15
(lp291
S'aromatic'
p292
asg36
g37
sg38
g39
ssS'mobley_9942801'
p293
(dp294
g3
S'CCc1ccc(cc1)C'
p295
sg25
F-0.05
sg26
F0.02
sg7
(lp296
g28
asg29
S'1-ethyl-4-methyl-benzene'
p297
sg12
I12160
sg13
F0.6
sg31
F-0.95
sg15
(lp298
S'aromatic'
p299
asg36
g37
sg38
g39
ssS'mobley_7578802'
p300
(dp301
g3
S'C(Br)(Br)Br'
p302
sg25
F0.88
sg26
F0.02
sg7
(lp303
g28
asg29
S'bromoform'
p304
sg12
I5558
sg13
F0.6
sg31
F-2.13
sg15
(lp305
S'halogen derivative'
p306
asg36
g37
sg38
g39
ssS'mobley_8861672'
p307
(dp308
g3
S'Cc1ccnc(c1)C'
p309
sg25
F-3.18
sg26
F0.02
sg7
(lp310
g28
asg29
S'2,4-dimethylpyridine'
p311
sg12
I7936
sg13
F0.6
sg31
F-4.86
sg15
(lp312
S'aromatic'
p313
aS'heterocyclic'
p314
asg36
g37
sg38
g39
ssS'mobley_194273'
p315
(dp316
g3
S'CC[C@H](C)n1c(=O)c(c([nH]c1=O)C)Br'
p317
sg180
F-13.74
sg181
F0.04
sg7
(lp318
S'Renamed mobley_194273 from bromacil to 5-bromo-6-methyl-3-[(1S)-1-methylpropyl]-1H-pyrimidine-2,4-dione (the name from the 3D structure) since the former did not completely specify stereochemistry.\n'
p319
asg183
S'bromacil'
p320
sg12
I9411
sg185
F1.93
sg186
F-9.73
sg15
(lp321
S'aryl bromide'
p322
aS'oxo(het)arene'
p323
aS'aromatic'
p324
aS'heterocyclic'
p325
asg189
g190
sg191
g192
ssS'mobley_1244778'
p326
(dp327
g3
S'C1CCCC(CC1)O'
p328
sg25
F-4.15
sg26
F0.05
sg7
(lp329
g28
asg29
S'cycloheptanol'
p330
sg12
I10399
sg13
F0.6
sg31
F-5.48
sg15
(lp331
S'secondary alcohol'
p332
asg36
g37
sg38
g39
ssS'mobley_468867'
p333
(dp334
g3
S'C1=C[C@@H]([C@@H]2[C@H]1[C@@]3(C(=C([C@]2(C3(Cl)Cl)Cl)Cl)Cl)Cl)Cl'
p335
sg180
F-0.98
sg181
F0.03
sg7
(lp336
g28
asg183
S'heptachlor'
p337
sg12
I3589
sg185
F0.1
sg186
F-2.55
sg15
(lp338
S'alkyl chloride'
p339
aS'alkene'
p340
asg189
g190
sg191
g192
ssS'mobley_8827942'
p341
(dp342
g3
S'c1ccc2c(c1)Oc3c(cc(c(c3O2)Cl)Cl)Cl'
p343
sg212
F-3.29
sg213
F0.03
sg7
(lp344
g28
asg215
S'1,2,4-trichlorodibenzo-p-dioxin'
p345
sg12
I38253
sg217
F0.1
sg218
F-4.05
sg15
(lp346
S'diaryl ether'
p347
aS'aryl chloride'
p348
aS'aromatic'
p349
aS'heterocyclic'
p350
asg221
g222
sg223
g224
ssS'mobley_3738859'
p351
(dp352
g3
S'CCCCCBr'
p353
sg5
F1.5
sg6
F0.1
sg7
(lp354
g9
asg10
S'1-bromo-pentane'
p355
sg12
I8057
sg13
F0.2
sg14
F-0.1
sg15
(lp356
S'alkyl bromide'
p357
asg18
g19
sg20
g21
ssS'mobley_8427539'
p358
(dp359
g3
S'CCC(=O)N'
p360
sg5
F-9.3
sg6
F0.1
sg7
(lp361
g9
asg10
S'propionamide'
p362
sg12
I6578
sg13
F0.2
sg14
F-9.4
sg15
(lp363
S'primary carboxylic acid amide'
p364
asg18
g19
sg20
g21
ssS'mobley_1107178'
p365
(dp366
g3
S'CCI'
p367
sg25
F-0.1
sg26
F0.02
sg7
(lp368
g28
asg29
S'iodoethane'
p369
sg12
I6340
sg13
F0.6
sg31
F-0.74
sg15
(lp370
S'alkyl iodide'
p371
asg36
g37
sg38
g39
ssS'mobley_2789243'
p372
(dp373
g3
S'c1cc(cnc1)Cl'
p374
sg25
F-2.5
sg26
F0.02
sg7
(lp375
g28
asg29
S'3-chloropyridine'
p376
sg12
I12287
sg13
F0.6
sg31
F-4.01
sg15
(lp377
S'aryl chloride'
p378
aS'aromatic'
p379
aS'heterocyclic'
p380
asg36
g37
sg38
g39
ssS'mobley_2008055'
p381
(dp382
g3
S'CC'
p383
sg25
F2.58
sg26
F0.01
sg7
(lp384
g28
asg29
S'ethane'
p385
sg12
I6324
sg13
F0.6
sg31
F1.83
sg15
(lp386
g63
asg36
g37
sg38
g39
ssS'mobley_1873346'
p387
(dp388
g3
S'Cc1ccccc1'
p389
sg5
F-0.7
sg6
F0.1
sg7
(lp390
g9
asg10
S'toluene'
p391
sg12
I1140
sg13
F0.2
sg14
F-0.9
sg15
(lp392
S'aromatic'
p393
asg18
g19
sg20
g21
ssS'mobley_7794077'
p394
(dp395
g3
S'c1c(c(=O)[nH]c(=O)[nH]1)C(F)(F)F'
p396
sS'calc'
p397
F-17.17
sS'd_calc'
p398
F0.07
sg7
(lp399
g28
asS'iupac'
p400
S'5-trifluoromethyluracil'
p401
sg12
I5899
sS'd_expt'
p402
F0.16
sS'expt'
p403
F-15.46
sg15
(lp404
S'halogen derivative'
p405
aS'oxo(het)arene'
p406
aS'aromatic'
p407
aS'heterocyclic'
p408
asS'expt_reference'
p409
S'10.1007/s10822-010-9350-8'
p410
sS'calc_reference'
p411
S'10.1007/s10822-010-9343-7'
p412
ssS'mobley_1849020'
p413
(dp414
g3
S'CCOP(=S)(OCC)SCSc1ccc(cc1)Cl'
p415
sg180
F-8.34
sg181
F0.05
sg7
(lp416
g28
aS'Changed IUPAC name from carbophenothion to 4-chlorophenyl)sulfanylmethylsulfanyl-diethoxy-thioxo-$l^{5}-phosphane for better handling/standardization.'
p417
asg183
S'4-chlorophenyl)sulfanylmethylsulfanyl-diethoxy-thioxo-$l^{5}-phosphane'
p418
sg12
I13081
sg185
F0.83
sg186
F-6.5
sg15
(lp419
S'aryl chloride'
p420
aS'thiophosphoric acid ester'
p421
aS'aromatic'
p422
asg189
g190
sg191
g192
ssS'mobley_8798016'
p423
(dp424
g3
S'c1cnccc1C=O'
p425
sg25
F-7.31
sg26
F0.03
sg7
(lp426
g28
asg29
S'pyridine-4-carbaldehyde'
p427
sg12
I13389
sg13
F0.6
sg31
F-7.0
sg15
(lp428
S'aldehyde'
p429
aS'aromatic'
p430
aS'heterocyclic'
p431
asg36
g37
sg38
g39
ssS'mobley_5157661'
p432
(dp433
g3
S'CC(C)C'
p434
sg5
F2.7
sg6
F0.1
sg7
(lp435
g9
asg10
S'isobutane'
p436
sg12
I6360
sg13
F0.2
sg14
F2.3
sg15
(lp437
g63
asg18
g19
sg20
g21
ssS'mobley_6201330'
p438
(dp439
g3
S'CCCOC(=O)c1ccc(cc1)O'
p440
sg397
F-9.34
sg398
F0.06
sg7
(lp441
g28
asg400
S'propyl paraben'
p442
sg12
I7175
sg402
F0.22
sg403
F-9.37
sg15
(lp443
S'phenol or hydroxyhetarene'
p444
aS'carboxylic acid ester'
p445
aS'aromatic'
p446
asg409
g410
sg411
g412
ssS'mobley_4620651'
p447
(dp448
g3
S'COC(=O)C1CC1'
p449
sg25
F-4.49
sg26
F0.04
sg7
(lp450
g28
asg29
S'methyl cyclopropanecarboxylate'
p451
sg12
I76122
sg13
F0.6
sg31
F-4.1
sg15
(lp452
S'carboxylic acid ester'
p453
asg36
g37
sg38
g39
ssS'mobley_9717937'
p454
(dp455
g3
S'c1ccc(cc1)c2ccccc2Cl'
p456
sg212
F-2.42
sg213
F0.03
sg7
(lp457
g28
asg215
S'1-chloro-2-phenyl-benzene'
p458
sg12
I249266
sg217
F0.1
sg218
F-2.69
sg15
(lp459
S'aryl chloride'
p460
aS'aromatic'
p461
asg221
g222
sg223
g224
ssS'mobley_6861308'
p462
(dp463
g3
S'CN(C)C(=O)Nc1ccccc1'
p464
sg180
F-12.08
sg181
F0.04
sg7
(lp465
g28
asg183
S'fenuron'
p466
sg12
I7560
sg185
F1.93
sg186
F-9.13
sg15
(lp467
S'urea'
p468
aS'aromatic'
p469
asg189
g190
sg191
g192
ssS'mobley_4630641'
p470
(dp471
g3
S'COCCOC'
p472
sg25
F-3.36
sg26
F0.02
sg7
(lp473
g28
asg29
S'1,2-dimethoxyethane'
p474
sg12
I8071
sg13
F0.6
sg31
F-4.84
sg15
(lp475
S'dialkyl ether'
p476
asg36
g37
sg38
g39
ssS'mobley_2636578'
p477
(dp478
g3
S'C(CO[N+](=O)[O-])CO[N+](=O)[O-]'
p479
sS'calc'
p480
F-5.53
sS'd_calc'
p481
F0.02
sg7
(lp482
g28
aS'IUPAC name and SMILES standardized in v0.2 to match PubChem.\n'
p483
asS'iupac'
p484
S'3-nitrooxypropyl nitrate'
p485
sg12
I96257
sS'd_expt'
p486
cnumpy.core.multiarray
scalar
p487
(cnumpy
dtype
p488
(S'f8'
p489
I0
I1
tp490
Rp491
(I3
S'<'
p492
NNNI-1
I-1
I0
tp493
bS'\xf6(\\\x8f\xc2\xf5\xd8?'
p494
tp495
Rp496
sS'expt'
p497
g487
(g491
S'333333\x13\xc0'
p498
tp499
Rp500
sg15
(lp501
S'anion'
p502
asS'expt_reference'
p503
S'SAMPL4_Guthrie'
p504
sS'calc_reference'
p505
S'SAMPL4_Mobley'
p506
ssS'mobley_5571660'
p507
(dp508
g3
S'Cc1cccc(c1N)C'
p509
sg25
F-4.87
sg26
F0.03
sg7
(lp510
g28
asg29
S'2,6-dimethylaniline'
p511
sg12
I6896
sg13
F0.6
sg31
F-5.21
sg15
(lp512
S'primary amine'
p513
aS'primary aromatic amine'
p514
aS'aromatic'
p515
asg36
g37
sg38
g39
ssS'mobley_7690440'
p516
(dp517
g3
S'CSSC'
p518
sg25
F1.48
sg26
F0.02
sg7
(lp519
g28
asg29
S'methyldisulfanylmethane'
p520
sg12
I12232
sg13
F0.6
sg31
F-1.83
sg15
(lp521
S'disulfide'
p522
asg36
g37
sg38
g39
ssS'mobley_7463799'
p523
(dp524
g3
S'c1ccc(cc1)CCCO'
p525
sg25
F-5.5
sg26
F0.03
sg7
(lp526
g28
asg29
S'3-phenylpropan-1-ol'
p527
sg12
I31234
sg13
F0.6
sg31
F-6.92
sg15
(lp528
S'primary alcohol'
p529
aS'aromatic'
p530
asg36
g37
sg38
g39
ssS'mobley_4479135'
p531
(dp532
g3
S'C=C(c1ccccc1)c2ccccc2'
p533
sg480
F-3.92
sg481
F0.023
sg7
(lp534
g28
asg484
S'1,1-diphenylethene'
p535
sg12
I10740
sg486
g487
(g491
S'\x9a\x99\x99\x99\x99\x99\xb9?'
p536
tp537
Rp538
sg497
g487
(g491
S'=\n\xd7\xa3p=\x06\xc0'
p539
tp540
Rp541
sg15
(lp542
S'alkene'
p543
aS'aromatic'
p544
asg503
g504
sg505
g506
ssS'mobley_7176248'
p545
(dp546
g3
S'CCCN(CCC)c1c(cc(cc1[N+](=O)[O-])C(F)(F)F)[N+](=O)[O-]'
p547
sg180
F-2.58
sg181
F0.04
sg7
(lp548
g28
aS'Changed IUPAC name from trifluralin to 2,6-Dinitro-N,N-dipropyl-4-(trifluoromethyl)aniline for better handling/standardization.'
p549
asg183
S'trifluralin'
p550
sg12
I5569
sg185
F0.1
sg186
F-3.25
sg15
(lp551
S'tertiary amine'
p552
aS'tertiary aliphatic/aromatic amine (alkylarylamine)'
p553
aS'halogen derivative'
p554
aS'nitro'
p555
aS'aromatic'
p556
asg189
g190
sg191
g192
ssS'mobley_2295058'
p557
(dp558
g3
S'COC(=O)c1ccc(cc1)O'
p559
sg397
F-9.94
sg398
F0.05
sg7
(lp560
g28
asg400
S'methyl paraben'
p561
sg12
I7456
sg402
F0.26
sg403
F-9.51
sg15
(lp562
S'phenol or hydroxyhetarene'
p563
aS'carboxylic acid ester'
p564
aS'aromatic'
p565
asg409
g410
sg411
g412
ssS'mobley_819018'
p566
(dp567
g3
S'CC(=CCC/C(=C/CO)/C)C'
p568
sg480
F-2.54
sg481
F0.021
sg7
(lp569
g28
aS'IUPAC name standardized in v0.2 to match PubChem.\n'
p570
asg484
S'(2E)-3,7-dimethylocta-2,6-dien-1-ol'
p571
sg12
I637566
sg486
g487
(g491
S'\xb8\x1e\x85\xebQ\xb8\xce?'
p572
tp573
Rp574
sg497
g487
(g491
S'\xcd\xcc\xcc\xcc\xcc\xcc\x11\xc0'
p575
tp576
Rp577
sg15
(lp578
S'primary alcohol'
p579
aS'alkene'
p580
asg503
g504
sg505
g506
ssS'mobley_1976156'
p581
(dp582
g3
S'CCCCCCCCC=O'
p583
sg25
F-2.51
sg26
F0.03
sg7
(lp584
g28
asg29
S'nonanal'
p585
sg12
I31289
sg13
F0.6
sg31
F-2.07
sg15
(lp586
S'aldehyde'
p587
asg36
g37
sg38
g39
ssS'mobley_2197088'
p588
(dp589
g3
S'CCCCCCCCCC'
p590
sg25
F3.43
sg26
F0.03
sg7
(lp591
g28
asg29
S'decane'
p592
sg12
I15600
sg13
F0.6
sg31
F3.16
sg15
(lp593
g63
asg36
g37
sg38
g39
ssS'mobley_627267'
p594
(dp595
g3
S'CC(C)CBr'
p596
sg25
F1.24
sg26
F0.02
sg7
(lp597
g28
asg29
S'1-bromo-2-methyl-propane'
p598
sg12
I6555
sg13
F0.6
sg31
F-0.03
sg15
(lp599
S'alkyl bromide'
p600
asg36
g37
sg38
g39
ssS'mobley_7415647'
p601
(dp602
g3
S'CN(C)C(=O)c1ccc(cc1)[N+](=O)[O-]'
p603
sg25
F-9.92
sg26
F0.04
sg7
(lp604
g28
asg29
S'N,N-dimethyl-4-nitro-benzamide'
p605
sg12
I138975
sg13
F0.6
sg31
F-11.95
sg15
(lp606
S'tertiary carboxylic acid amide'
p607
aS'nitro'
p608
aS'aromatic'
p609
asg36
S'10.1139/v92-210'
p610
sg38
g39
ssS'mobley_6812653'
p611
(dp612
g3
S'CCCCCC'
p613
sg25
F3.05
sg26
F0.02
sg7
(lp614
g28
asg29
S'hexane'
p615
sg12
I8058
sg13
F0.6
sg31
F2.48
sg15
(lp616
g63
asg36
g37
sg38
g39
ssS'mobley_5052949'
p617
(dp618
g3
S'CCCSCCC'
p619
sg25
F0.49
sg26
F0.02
sg7
(lp620
g28
asg29
S'1-propylsulfanylpropane'
p621
sg12
I8118
sg13
F0.6
sg31
F-1.28
sg15
(lp622
S'thioether'
p623
asg36
g37
sg38
g39
ssS'mobley_3151666'
p624
(dp625
g3
S'CCCCCCCCCCO'
p626
sg25
F-2.49
sg26
F0.03
sg7
(lp627
g28
asg29
S'decan-1-ol'
p628
sg12
I8174
sg13
F0.6
sg31
F-3.64
sg15
(lp629
S'primary alcohol'
p630
asg36
g37
sg38
g39
ssS'mobley_1659169'
p631
(dp632
g3
S'C1COCCN1'
p633
sg25
F-6.28
sg26
F0.02
sg7
(lp634
g28
asg29
S'morpholine'
p635
sg12
I8083
sg13
F0.6
sg31
F-7.17
sg15
(lp636
S'dialkyl ether'
p637
aS'secondary amine'
p638
aS'secondary aliphatic amine (dialkylamine)'
p639
aS'heterocyclic'
p640
asg36
g37
sg38
g39
ssS'mobley_9534740'
p641
(dp642
g3
S'C([C@@H]1[C@H]([C@@H]([C@H]([C@@H](O1)O)O)O)O)O'
p643
sg397
F-17.01
sg398
F0.09
sg7
(lp644
g28
aS'Changed IUPAC name from d-glucose to (2R,3R,4S,5S,6R)-6-(hydroxymethyl)tetrahydropyran-2,3,4,5-tetrol for better handling/standardization.'
p645
asg400
S'(2R,3R,4S,5S,6R)-6-(hydroxymethyl)tetrahydropyran-2,3,4,5-tetrol'
p646
sg12
I64689
sg402
F0.22
sg403
F-25.47
sg15
(lp647
S'hemiacetal'
p648
aS'primary alcohol'
p649
aS'secondary alcohol'
p650
aS'1,2-diol'
p651
aS'heterocyclic'
p652
asg409
g410
sg411
g412
ssS'mobley_994483'
p653
(dp654
g3
S'CCBr'
p655
sg25
F0.93
sg26
F0.02
sg7
(lp656
g28
asg29
S'bromoethane'
p657
sg12
I6332
sg13
F0.6
sg31
F-0.74
sg15
(lp658
S'alkyl bromide'
p659
asg36
g37
sg38
g39
ssS'mobley_1189457'
p660
(dp661
g3
S'CSc1ccccc1'
p662
sg25
F-1.21
sg26
F0.02
sg7
(lp663
g28
asg29
S'methylsulfanylbenzene'
p664
sg12
I7520
sg13
F0.6
sg31
F-2.73
sg15
(lp665
S'thioether'
p666
aS'aromatic'
p667
asg36
g37
sg38
g39
ssS'mobley_8260524'
p668
(dp669
g3
S'CC#C'
p670
sg25
F0.2
sg26
F0.01
sg7
(lp671
g28
asg29
S'prop-1-yne'
p672
sg12
I6335
sg13
F0.6
sg31
F-0.48
sg15
(lp673
S'alkyne'
p674
asg36
g37
sg38
g39
ssS'mobley_646007'
p675
(dp676
g3
S'C1CCNC1'
p677
sg25
F-3.91
sg26
F0.02
sg7
(lp678
g28
asg29
S'pyrrolidine'
p679
sg12
I31268
sg13
F0.6
sg31
F-5.48
sg15
(lp680
S'secondary amine'
p681
aS'secondary aliphatic amine (dialkylamine)'
p682
aS'heterocyclic'
p683
asg36
g37
sg38
g39
ssS'mobley_8436428'
p684
(dp685
g3
S'CC(C)CC(C)C'
p686
sg25
F2.89
sg26
F0.03
sg7
(lp687
g28
asg29
S'2,4-dimethylpentane'
p688
sg12
I7907
sg13
F0.6
sg31
F2.83
sg15
(lp689
g63
asg36
g37
sg38
g39
ssS'mobley_6804509'
p690
(dp691
g3
S'c1c(c(cc(c1Cl)Cl)Cl)Cl'
p692
sg25
F0.25
sg26
F0.02
sg7
(lp693
g28
asg29
S'1,2,4,5-tetrachlorobenzene'
p694
sg12
I7270
sg13
F0.6
sg31
F-1.34
sg15
(lp695
S'aryl chloride'
p696
aS'aromatic'
p697
asg36
g37
sg38
g39
ssS'mobley_6843802'
p698
(dp699
g3
S'c1ccc(cc1)O[C@@H](C(F)F)F'
p700
sg25
F-2.93
sg26
F0.02
sg7
(lp701
S'Renamed mobley_6843802 from 1,2,2-trifluoroethoxybenzene to [(1R)-1,2,2-trifluoroethoxy]benzene (the name from the 3D structure) since the former did not completely specify stereochemistry.\n'
p702
asg29
S'1,2,2-trifluoroethoxybenzene'
p703
sg12
I21269179
sg13
F0.6
sg31
F-1.29
sg15
(lp704
S'alkyl fluoride'
p705
aS'aromatic'
p706
asg36
S'J. Lu, 1994, Ph.D. Thesis, University of Western Ontario'
p707
sg38
g39
ssS'mobley_1922649'
p708
(dp709
g3
S'COP(=S)(OC)Oc1ccc(cc1)[N+](=O)[O-]'
p710
sg180
F-9.87
sg181
F0.04
sg7
(lp711
g28
aS'Changed IUPAC name from methyparathion to methylparathion for better handling/standardization.'
p712
asg183
S'methylparathion'
p713
sg12
I4130
sg185
F0.1
sg186
F-7.19
sg15
(lp714
S'nitro'
p715
aS'thiophosphoric acid ester'
p716
aS'aromatic'
p717
asg189
g190
sg191
g192
ssS'mobley_632905'
p718
(dp719
g3
S'CC(=O)c1ccc(cc1)OC'
p720
sg25
F-6.29
sg26
F0.03
sg7
(lp721
g28
asg29
S'1-(4-methoxyphenyl)ethanone'
p722
sg12
I7476
sg13
F0.6
sg31
F-4.4
sg15
(lp723
S'ketone'
p724
aS'alkyl aryl ether'
p725
aS'aromatic'
p726
asg36
g37
sg38
g39
ssS'mobley_4039055'
p727
(dp728
g3
S'c1c(c(=O)[nH]c(=O)[nH]1)Br'
p729
sg397
F-16.61
sg398
F0.06
sg7
(lp730
g28
asg400
S'5-bromouracil'
p731
sg12
I5802
sg402
F0.55
sg403
F-18.17
sg15
(lp732
S'aryl bromide'
p733
aS'oxo(het)arene'
p734
aS'aromatic'
p735
aS'heterocyclic'
p736
asg409
g410
sg411
g412
ssS'mobley_4934872'
p737
(dp738
g3
S'CCOC(OCC)Oc1ccccc1'
p739
sg25
F-4.44
sg26
F0.04
sg7
(lp740
g28
asg29
S'diethoxymethoxybenzene'
p741
sg12
I84440
sg13
F0.6
sg31
F-5.23
sg15
(lp742
S'orthocarboxylic acid derivative'
p743
aS'orthoester'
p744
aS'aromatic'
p745
asg36
S'J. Peter Guthrie, unpublished data, as provided to D. Mobley 2007/2008, and as cited in 10.1021/jp0764384'
p746
sg38
g39
ssS'mobley_4683624'
p747
(dp748
g3
S'CCCc1ccc(cc1)O'
p749
sg25
F-5.5
sg26
F0.02
sg7
(lp750
g28
aS'Experimental value updated 10/22/13 as the average of -5.90 and -4.52, which are measured experimental values from Varhanickova, D., Shiu, W., Mackay, D., J. Chem. Eng. Data 1995, 40, 448-451 and Terres, E., Gebert, F., Hulsemann, H., Petereit, H., Toepsch, H., Ruppert, W., Brennstoff-Chemie 1955, 36, 272-274., respectively. The uncertainty was taken as the standard deviation across these two measurements.\n'
p751
asg29
S'4-propylphenol'
p752
sg12
I12580
sg13
F0.69
sg31
g487
(g491
S'\xd7\xa3p=\n\xd7\x14\xc0'
p753
tp754
Rp755
sg15
(lp756
S'phenol or hydroxyhetarene'
p757
aS'aromatic'
p758
asg36
S'10.1021/je00018a020 and Terres, E., Gebert, F., Hulsemann, H., Petereit, H., Toepsch, H., Ruppert, W., Brennstoff-Chemie 1955, 36, 272-274'
p759
sg38
g39
ssS'mobley_6619554'
p760
(dp761
g3
S'CCCCC(=O)OCC'
p762
sg25
F-3.09
sg26
F0.03
sg7
(lp763
g28
asg29
S'ethyl pentanoate'
p764
sg12
I10882
sg13
F0.6
sg31
F-2.49
sg15
(lp765
S'carboxylic acid ester'
p766
asg36
g37
sg38
g39
ssS'mobley_486214'
p767
(dp768
g3
S'COc1cccc(c1O)OC'
p769
sg480
F-7.05
sg481
F0.022
sg7
(lp770
g28
asg484
S'2,6-dimethoxyphenol'
p771
sg12
I7041
sg486
g487
(g491
S'\x9a\x99\x99\x99\x99\x99\xb9?'
p772
tp773
Rp774
sg497
g487
(g491
S'\xd7\xa3p=\n\xd7\x1b\xc0'
p775
tp776
Rp777
sg15
(lp778
S'phenol or hydroxyhetarene'
p779
aS'alkyl aryl ether'
p780
aS'aromatic'
p781
asg503
g504
sg505
g506
ssS'mobley_8426916'
p782
(dp783
g3
S'CCNCC'
p784
sg25
F-2.72
sg26
F0.02
sg7
(lp785
g28
asg29
S'N-ethylethanamine'
p786
sg12
I8021
sg13
F0.6
sg31
F-4.07
sg15
(lp787
S'secondary amine'
p788
aS'secondary aliphatic amine (dialkylamine)'
p789
asg36
g37
sg38
g39
ssS'mobley_550662'
p790
(dp791
g3
S'CC(OC)(OC)OC'
p792
sg25
F-3.89
sg26
F0.02
sg7
(lp793
g28
asg29
S'1,1,1-trimethoxyethane'
p794
sg12
I15050
sg13
F0.6
sg31
F-4.42
sg15
(lp795
S'orthocarboxylic acid derivative'
p796
aS'orthoester'
p797
asg36
S'10.1021/ja00802a021'
p798
sg38
g39
ssS'mobley_755351'
p799
(dp800
g3
S'COc1cccc(c1)N'
p801
sg25
F-7.45
sg26
F0.03
sg7
(lp802
g28
asg29
S'3-methoxyaniline'
p803
sg12
I10824
sg13
F0.6
sg31
F-7.29
sg15
(lp804
S'alkyl aryl ether'
p805
aS'primary amine'
p806
aS'primary aromatic amine'
p807
aS'aromatic'
p808
asg36
g37
sg38
g39
ssS'mobley_2751110'
p809
(dp810
g3
S'c1cc(ccc1[N+](=O)[O-])O'
p811
sg25
F-8.22
sg26
F0.02
sg7
(lp812
g28
asg29
S'4-nitrophenol'
p813
sg12
I980
sg13
F0.6
sg31
F-10.64
sg15
(lp814
S'phenol or hydroxyhetarene'
p815
aS'nitro'
p816
aS'aromatic'
p817
asg36
g37
sg38
g39
ssS'mobley_5977084'
p818
(dp819
g3
S'Cc1cccnc1'
p820
sg25
F-3.19
sg26
F0.02
sg7
(lp821
g28
asg29
S'3-methylpyridine'
p822
sg12
I7970
sg13
F0.6
sg31
F-4.77
sg15
(lp823
S'aromatic'
p824
aS'heterocyclic'
p825
asg36
g37
sg38
g39
ssS'mobley_5816127'
p826
(dp827
g3
S'COCCO'
p828
sg25
F-5.37
sg26
F0.03
sg7
(lp829
g28
aS'Updated 10/22/13 using the mean of experimental data from two sources listed as experimental references.\n'
p830
asg29
S'2-methoxyethanol'
p831
sg12
I8019
sg13
F0.4
sg31
g487
(g491
S'z\x14\xaeG\xe1z\x1a\xc0'
p832
tp833
Rp834
sg15
(lp835
S'primary alcohol'
p836
aS'dialkyl ether'
p837
asg36
S'10.1007/BF00646936 and 10.1136/oem.45.8.561'
p838
sg38
g39
ssS'mobley_6257907'
p839
(dp840
g3
S'c1cc(cc(c1)Cl)N'
p841
sg25
F-5.37
sg26
F0.02
sg7
(lp842
g28
asg29
S'3-chloroaniline'
p843
sg12
I7932
sg13
F0.6
sg31
F-5.82
sg15
(lp844
S'primary amine'
p845
aS'primary aromatic amine'
p846
aS'aryl chloride'
p847
aS'aromatic'
p848
asg36
g37
sg38
g39
ssS'mobley_1963873'
p849
(dp850
g3
S'CC(=O)NC'
p851
sg25
F-8.39
sg26
F0.03
sg7
(lp852
g28
asg29
S'N-methylacetamide'
p853
sg12
I6582
sg13
F0.6
sg31
F-10.0
sg15
(lp854
S'secondary carboxylic acid amide'
p855
asg36
g37
sg38
g39
ssS'mobley_7015518'
p856
(dp857
g3
S'COC'
p858
sg25
F-0.85
sg26
F0.02
sg7
(lp859
g28
asg29
S'methoxymethane'
p860
sg12
I8254
sg13
F0.6
sg31
F-1.91
sg15
(lp861
S'dialkyl ether'
p862
asg36
g37
sg38
g39
ssS'mobley_6195751'
p863
(dp864
g3
S'COc1c(c(c(c(c1Cl)C=O)Cl)OC)O'
p865
sg480
F-9.94
sg481
F0.024
sg7
(lp866
g28
asg484
S'2,6-dichlorosyringaldehyde'
p867
sg12
I53476
sg486
g487
(g491
S'R\xb8\x1e\x85\xebQ\xe8?'
p868
tp869
Rp870
sg497
F-8.68
sg15
(lp871
S'aldehyde'
p872
aS'phenol or hydroxyhetarene'
p873
aS'alkyl aryl ether'
p874
aS'aryl chloride'
p875
aS'aromatic'
p876
asg503
g504
sg505
g506
ssS'mobley_5390332'
p877
(dp878
g3
S'CCCC(=O)OC'
p879
sg25
F-3.32
sg26
F0.02
sg7
(lp880
g28
asg29
S'methyl butanoate'
p881
sg12
I12180
sg13
F0.6
sg31
F-2.83
sg15
(lp882
S'carboxylic acid ester'
p883
asg36
g37
sg38
g39
ssS'mobley_1017962'
p884
(dp885
g3
S'CCCCCC(=O)OC'
p886
sg25
F-3.02
sg26
F0.03
sg7
(lp887
g28
asg29
S'methyl hexanoate'
p888
sg12
I7824
sg13
F0.6
sg31
F-2.49
sg15
(lp889
S'carboxylic acid ester'
p890
asg36
g37
sg38
g39
ssS'mobley_5538249'
p891
(dp892
g3
S'c1ccc(cc1)c2c(cc(cc2Cl)Cl)Cl'
p893
sg212
F-1.14
sg213
F0.03
sg7
(lp894
g28
asg215
S'1,3,5-trichloro-2-phenyl-benzene'
p895
sg12
I37247
sg217
F0.1
sg218
F-2.16
sg15
(lp896
S'aryl chloride'
p897
aS'aromatic'
p898
asg221
g222
sg223
g224
ssS'mobley_9741965'
p899
(dp900
g3
S'C[C@@H](CCON([O-])[O-])ON([O-])[O-]'
p901
sg480
F-5.35
sg481
F0.021
sg7
(lp902
g28
asg484
S'1,3-bis-(nitrooxy)butane'
p903
sg12
I138747
sg486
g487
(g491
S'\xf6(\\\x8f\xc2\xf5\xd8?'
p904
tp905
Rp906
sg497
g487
(g491
S')\\\x8f\xc2\xf5(\x11\xc0'
p907
tp908
Rp909
sg15
(lp910
S'anion'
p911
asg503
g504
sg505
g506
ssS'mobley_5616693'
p912
(dp913
g3
S'C[C@@H]1CC[C@H](C(=O)C1)C(C)C'
p914
sg480
F-3.42
sg481
F0.021
sg7
(lp915
g28
asg484
S'(2S,5R)-2-isopropyl-5-methylcyclohexanone'
p916
sg12
I26447
sg486
F0.25
sg497
F-2.53
sg15
(lp917
S'ketone'
p918
asg503
g504
sg505
g506
ssS'mobley_9114381'
p919
(dp920
g3
S'COC(=O)CC#N'
p921
sg25
F-6.34
sg26
F0.02
sg7
(lp922
g28
asg29
S'methyl 2-cyanoacetate'
p923
sg12
I7747
sg13
F0.6
sg31
F-6.72
sg15
(lp924
S'carboxylic acid ester'
p925
aS'carbonitrile'
p926
asg36
g48
sg38
g39
ssS'mobley_9209581'
p927
(dp928
g3
S'CN(C)C'
p929
sg25
F-2.32
sg26
F0.02
sg7
(lp930
g28
asg29
S'N,N-dimethylmethanamine'
p931
sg12
I1146
sg13
F0.6
sg31
F-3.2
sg15
(lp932
S'tertiary amine'
p933
aS'tertiary aliphatic amine (trialkylamine)'
p934
asg36
g37
sg38
g39
ssS'mobley_52782'
p935
(dp936
g3
S'C(CO[N+](=O)[O-])O[N+](=O)[O-]'
p937
sg180
F-5.97
sg181
F0.02
sg7
(lp938
g28
aS'Changed IUPAC name from nitroglycol to 1,2-dinitroxyethane for better handling/standardization.'
p939
asg183
S'1,2-dinitroxyethane'
p940
sg12
I40818
sg185
F0.1
sg186
F-5.73
sg15
(lp941
S'nitrate'
p942
asg189
g190
sg191
g192
ssS'mobley_3515580'
p943
(dp944
g3
S'COc1ccccc1O'
p945
sg480
F-4.62
sg481
F0.018
sg7
(lp946
g28
asg484
S'2-methoxyphenol'
p947
sg12
I460
sg486
g487
(g491
S'\x9a\x99\x99\x99\x99\x99\xb9?'
p948
tp949
Rp950
sg497
g487
(g491
S'\xc3\xf5(\\\x8f\xc2\x17\xc0'
p951
tp952
Rp953
sg15
(lp954
S'phenol or hydroxyhetarene'
p955
aS'alkyl aryl ether'
p956
aS'aromatic'
p957
asg503
g504
sg505
g506
ssS'mobley_1571523'
p958
(dp959
g3
S'Cc1cccc(c1C)O'
p960
sg25
F-4.67
sg26
F0.03
sg7
(lp961
g28
asg29
S'2,3-dimethylphenol'
p962
sg12
I10687
sg13
F0.6
sg31
F-6.16
sg15
(lp963
S'phenol or hydroxyhetarene'
p964
aS'aromatic'
p965
asg36
g37
sg38
g39
ssS'mobley_2023925'
p966
(dp967
g3
S'[C@@H](C(F)(F)F)(OC(F)F)Cl'
p968
sg25
F-1.38
sg26
F0.02
sg7
(lp969
S'Renamed mobley_2023925 from 2-chloro-2-(difluoromethoxy)-1,1,1-trifluoro-ethane to (2R)-2-chloro-2-(difluoromethoxy)-1,1,1-trifluoro-ethane (the name from the 3D structure) since the former did not completely specify stereochemistry.\n'
p970
asg29
S'2-chloro-2-(difluoromethoxy)-1,1,1-trifluoro-ethane'
p971
sg12
I11095291
sg13
F0.6
sg31
F0.1
sg15
(lp972
S'alkyl chloride'
p973
aS'orthocarboxylic acid derivative'
p974
asg36
g37
sg38
g39
ssS'mobley_8785107'
p975
(dp976
g3
S'C[C@H]1CC[C@@H](O1)C'
p977
sg25
F-1.89
sg26
F0.02
sg7
(lp978
S'Renamed mobley_8785107 from 2,5-dimethyltetrahydrofuran to (2S,5S)-2,5-dimethyltetrahydrofuran (the name from the 3D structure) since the former did not completely specify stereochemistry.\n'
p979
asg29
S'2,5-dimethyltetrahydrofuran'
p980
sg12
I13855
sg13
F0.6
sg31
F-2.92
sg15
(lp981
S'dialkyl ether'
p982
aS'heterocyclic'
p983
asg36
g37
sg38
g39
ssS'mobley_2881590'
p984
(dp985
g3
S'CC(C)CO[N+](=O)[O-]'
p986
sg180
F-1.72
sg181
F0.03
sg7
(lp987
g28
asg183
S'isobutyl nitrate'
p988
sg12
I10974
sg185
F0.1
sg186
F-1.88
sg15
(lp989
S'nitrate'
p990
asg189
g190
sg191
g192
ssS'mobley_313406'
p991
(dp992
g3
S'CCCO'
p993
sg25
F-3.12
sg26
F0.02
sg7
(lp994
g28
asg29
S'propan-1-ol'
p995
sg12
I1031
sg13
F0.6
sg31
F-4.85
sg15
(lp996
S'primary alcohol'
p997
asg36
g37
sg38
g39
ssS'mobley_3274817'
p998
(dp999
g3
S'CC[C@@H](C)c1cc(cc(c1O)[N+](=O)[O-])[N+](=O)[O-]'
p1000
sg180
F-5.76
sg181
F0.04
sg7
(lp1001
g28
aS'Changed IUPAC name from dinoseb to 2-[(1R)-1-methylpropyl]-4,6-dinitro-phenolate for better handling/standardization.'
p1002
asg183
S'2-[(1R)-1-methylpropyl]-4,6-dinitro-phenolate'
p1003
sg12
I688400
sg185
F1.93
sg186
F-6.23
sg15
(lp1004
S'phenol or hydroxyhetarene'
p1005
aS'nitro'
p1006
aS'aromatic'
p1007
asg189
g190
sg191
g192
ssS'mobley_9979854'
p1008
(dp1009
g3
S'C[C@H](C(F)(F)F)O'
p1010
sg5
F-3.8
sg6
F0.1
sg7
(lp1011
S'Renamed mobley_9979854 from 1,1,1-trifluoropropan-2-ol to (2R)-1,1,1-trifluoropropan-2-ol (the name from the 3D structure) since the former did not completely specify stereochemistry.\n'
p1012
asg10
S'111-trifluoropropan-2-ol'
p1013
sg12
I6993809
sg13
F0.2
sg14
F-4.2
sg15
(lp1014
S'secondary alcohol'
p1015
aS'halogen derivative'
p1016
asg18
g19
sg20
g21
ssS'mobley_2126135'
p1017
(dp1018
g3
S'CCc1ccccc1O'
p1019
sg480
F-4.7
sg481
F0.019
sg7
(lp1020
g28
asg484
S'2-ethylphenol'
p1021
sg12
I6997
sg486
g487
(g491
S'\x9a\x99\x99\x99\x99\x99\xb9?'
p1022
tp1023
Rp1024
sg497
g487
(g491
S'\xa4p=\n\xd7\xa3\x16\xc0'
p1025
tp1026
Rp1027
sg15
(lp1028
S'phenol or hydroxyhetarene'
p1029
aS'aromatic'
p1030
asg503
g504
sg505
g506
ssS'mobley_6743808'
p1031
(dp1032
g3
S'Cc1ccc(cc1C)O'
p1033
sg25
F-5.33
sg26
F0.03
sg7
(lp1034
g28
asg29
S'3,4-dimethylphenol'
p1035
sg12
I7249
sg13
F0.6
sg31
F-6.5
sg15
(lp1036
S'phenol or hydroxyhetarene'
p1037
aS'aromatic'
p1038
asg36
g37
sg38
g39
ssS'mobley_2493732'
p1039
(dp1040
g3
S'C=C(Cl)Cl'
p1041
sg25
F1.24
sg26
F0.02
sg7
(lp1042
g28
asg29
S'1,1-dichloroethylene'
p1043
sg12
I6366
sg13
F0.6
sg31
F0.25
sg15
(lp1044
S'ketene acetal or derivative'
p1045
aS'halogen derivative'
p1046
asg36
g37
sg38
g39
ssS'mobley_9407874'
p1047
(dp1048
g3
S'CCCCCCC(=O)C'
p1049
sg25
F-2.3
sg26
F0.03
sg7
(lp1050
g28
asg29
S'octan-2-one'
p1051
sg12
I8093
sg13
F0.6
sg31
F-2.88
sg15
(lp1052
S'ketone'
p1053
asg36
g37
sg38
g39
ssS'mobley_7142697'
p1054
(dp1055
g3
S'CCCCCN'
p1056
sg25
F-2.99
sg26
F0.02
sg7
(lp1057
g28
asg29
S'pentan-1-amine'
p1058
sg12
I8060
sg13
F0.6
sg31
F-4.09
sg15
(lp1059
S'primary amine'
p1060
aS'primary aliphatic amine (alkylamine)'
p1061
asg36
g37
sg38
g39
ssS'mobley_8311303'
p1062
(dp1063
g3
S'c1cc(c(cc1c2c(c(cc(c2Cl)Cl)Cl)Cl)Cl)Cl'
p1064
sg212
F-0.7
sg213
F0.04
sg7
(lp1065
g28
asg215
S'1,2,4,5-tetrachloro-3-(3,4-dichlorophenyl)benzene'
p1066
sg12
I63079
sg217
F0.22
sg218
F-4.38
sg15
(lp1067
S'aryl chloride'
p1068
aS'aromatic'
p1069
asg221
g222
sg223
g224
ssS'mobley_49274'
p1070
(dp1071
g3
S'CCCCCC#C'
p1072
sg25
F0.84
sg26
F0.02
sg7
(lp1073
g28
asg29
S'hept-1-yne'
p1074
sg12
I12350
sg13
F0.6
sg31
F0.6
sg15
(lp1075
S'alkyne'
p1076
asg36
g37
sg38
g39
ssS'mobley_4694328'
p1077
(dp1078
g3
S'CCCCCCCC=O'
p1079
sg25
F-2.57
sg26
F0.03
sg7
(lp1080
g28
asg29
S'octanal'
p1081
sg12
I454
sg13
F0.6
sg31
F-2.29
sg15
(lp1082
S'aldehyde'
p1083
asg36
g37
sg38
g39
ssS'mobley_7913234'
p1084
(dp1085
g3
S'CCCCOC[C@H](C)O'
p1086
sg480
F-3.78
sg481
F0.023
sg7
(lp1087
S'Renamed mobley_7913234 from 1-butoxy-2-propanol to (2S)-1-butoxypropan-2-ol (the name from the 3D structure) since the former did not completely specify stereochemistry.\n'
p1088
asg484
S'1-butoxy-2-propanol'
p1089
sg12
I21210
sg486
g487
(g491
S'333333\xc3?'
p1090
tp1091
Rp1092
sg497
g487
(g491
S'\xecQ\xb8\x1e\x85\xeb\x16\xc0'
p1093
tp1094
Rp1095
sg15
(lp1096
S'secondary alcohol'
p1097
aS'dialkyl ether'
p1098
asg503
g504
sg505
g506
ssS'mobley_2763835'
p1099
(dp1100
g3
S'CCOc1ccccc1'
p1101
sg25
F-2.01
sg26
F0.02
sg7
(lp1102
g28
asg29
S'ethoxybenzene'
p1103
sg12
I7674
sg13
F0.6
sg31
F-2.22
sg15
(lp1104
S'alkyl aryl ether'
p1105
aS'aromatic'
p1106
asg36
g37
sg38
g39
ssS'mobley_951560'
p1107
(dp1108
g3
S'C1CNCCN1'
p1109
sg25
F-8.34
sg26
F0.03
sg7
(lp1110
g28
asg29
S'piperazine'
p1111
sg12
I4837
sg13
F0.6
sg31
F-7.4
sg15
(lp1112
S'secondary amine'
p1113
aS'secondary aliphatic amine (dialkylamine)'
p1114
aS'heterocyclic'
p1115
asg36
g37
sg38
g39
ssS'mobley_3211679'
p1116
(dp1117
g3
S'C1CCC=CC1'
p1118
sg480
F1.14
sg481
F0.017
sg7
(lp1119
g28
asg484
S'cyclohexene'
p1120
sg12
I8079
sg486
g487
(g491
S'\x9a\x99\x99\x99\x99\x99\xb9?'
p1121
tp1122
Rp1123
sg497
g487
(g491
S'\xecQ\xb8\x1e\x85\xeb\xc1?'
p1124
tp1125
Rp1126
sg15
(lp1127
S'alkene'
p1128
asg503
g504
sg505
g506
ssS'mobley_6359156'
p1129
(dp1130
g3
S'c1ccc(cc1)c2cc(ccc2Cl)Cl'
p1131
sg212
F-1.77
sg213
F0.03
sg7
(lp1132
g28
asg215
S'1,4-dichloro-2-phenyl-benzene'
p1133
sg12
I36980
sg217
F0.1
sg218
F-2.46
sg15
(lp1134
S'aryl chloride'
p1135
aS'aromatic'
p1136
asg221
g222
sg223
g224
ssS'mobley_3234716'
p1137
(dp1138
g3
S'Cc1ccc(cc1)C'
p1139
sg25
F-0.67
sg26
F0.02
sg7
(lp1140
g28
asg29
S'p-xylene'
p1141
sg12
I7809
sg13
F0.6
sg31
F-0.8
sg15
(lp1142
S'aromatic'
p1143
asg36
g37
sg38
g39
ssS'mobley_5286200'
p1144
(dp1145
g3
S'C(CCCl)CCl'
p1146
sg25
F-0.27
sg26
F0.02
sg7
(lp1147
g28
asg29
S'1,4-dichlorobutane'
p1148
sg12
I8059
sg13
F0.6
sg31
F-2.32
sg15
(lp1149
S'alkyl chloride'
p1150
asg36
g37
sg38
g39
ssS'mobley_2727678'
p1151
(dp1152
g3
S'c1c(c(=O)[nH]c(=O)[nH]1)I'
p1153
sg397
F-17.14
sg398
F0.06
sg7
(lp1154
g28
asg400
S'5-iodouracil'
p1155
sg12
I69672
sg402
F0.64
sg403
F-18.72
sg15
(lp1156
S'aryl iodide'
p1157
aS'oxo(het)arene'
p1158
aS'aromatic'
p1159
aS'heterocyclic'
p1160
asg409
g410
sg411
g412
ssS'mobley_6973347'
p1161
(dp1162
g3
S'CCOC(=O)C'
p1163
sg25
F-3.23
sg26
F0.02
sg7
(lp1164
g28
asg29
S'ethyl acetate'
p1165
sg12
I8857
sg13
F0.6
sg31
F-2.94
sg15
(lp1166
S'carboxylic acid ester'
p1167
asg36
g37
sg38
g39
ssS'mobley_9617923'
p1168
(dp1169
g3
S'CCCCCCCCC(=O)C'
p1170
sg25
F-1.98
sg26
F0.03
sg7
(lp1171
g28
asg29
S'decan-2-one'
p1172
sg12
I12741
sg13
F0.6
sg31
F-2.34
sg15
(lp1173
S'ketone'
p1174
asg36
g37
sg38
g39
ssS'mobley_6309289'
p1175
(dp1176
g3
S'C1CCNCC1'
p1177
sg25
F-3.46
sg26
F0.02
sg7
(lp1178
g28
asg29
S'piperidine'
p1179
sg12
I8082
sg13
F0.6
sg31
F-5.11
sg15
(lp1180
S'secondary amine'
p1181
aS'secondary aliphatic amine (dialkylamine)'
p1182
aS'heterocyclic'
p1183
asg36
g37
sg38
g39
ssS'mobley_1235151'
p1184
(dp1185
g3
S'CCCCC[N+](=O)[O-]'
p1186
sg25
F-1.29
sg26
F0.02
sg7
(lp1187
g28
asg29
S'1-nitropentane'
p1188
sg12
I220639
sg13
F0.6
sg31
F-2.82
sg15
(lp1189
S'nitro'
p1190
asg36
g37
sg38
g39
ssS'mobley_2689721'
p1191
(dp1192
g3
S'C1CCCCC1'
p1193
sg25
F1.67
sg26
F0.02
sg7
(lp1194
g28
asg29
S'cyclohexane'
p1195
sg12
I8078
sg13
F0.6
sg31
F1.23
sg15
(lp1196
g63
asg36
g37
sg38
g39
ssS'mobley_820789'
p1197
(dp1198
g3
S'CCCC(=O)O'
p1199
sg25
F-5.46
sg26
F0.03
sg7
(lp1200
g28
asg29
S'butyric acid'
p1201
sg12
I264
sg13
F0.6
sg31
F-6.35
sg15
(lp1202
S'carboxylic acid'
p1203
asg36
g37
sg38
g39
ssS'mobley_1838110'
p1204
(dp1205
g3
S'C(C(F)(Cl)Cl)(F)(F)Cl'
p1206
sg25
F1.53
sg26
F0.02
sg7
(lp1207
g28
asg29
S'1,1,2-trichloro-1,2,2-trifluoro-ethane'
p1208
sg12
I6428
sg13
F0.6
sg31
F1.77
sg15
(lp1209
S'halogen derivative'
p1210
asg36
g37
sg38
g39
ssS'mobley_3083321'
p1211
(dp1212
g3
S'COCOC'
p1213
sS'calc'
p1214
F-3.2
sS'd_calc'
p1215
F0.1
sS'notes'
p1216
(lp1217
S'Topology and coordinate files re-generated 10/9/13 from original .mol2 files.'
p1218
ag28
ag167
asS'iupac'
p1219
S'dimethoxymethane'
p1220
sg12
I8020
sg13
F0.2
sS'expt'
p1221
F-2.93
sg15
(lp1222
S'acetal'
p1223
asS'expt_reference'
p1224
S'10.1021/jm070549+'
p1225
sS'calc_reference'
p1226
g1225
ssS'mobley_3572203'
p1227
(dp1228
g3
S'CCCCCOC(=O)CC'
p1229
sg25
F-3.36
sg26
F0.03
sg7
(lp1230
g28
asg29
S'pentyl propanoate'
p1231
sg12
I12217
sg13
F0.6
sg31
F-2.11
sg15
(lp1232
S'carboxylic acid ester'
p1233
asg36
g37
sg38
g39
ssS'mobley_3843583'
p1234
(dp1235
g3
S'c1ccc2c(c1)cccc2N'
p1236
sg25
F-7.76
sg26
F0.03
sg7
(lp1237
g28
asg29
S'naphthalen-1-amine'
p1238
sg12
I8640
sg13
F0.6
sg31
F-7.28
sg15
(lp1239
S'primary amine'
p1240
aS'primary aromatic amine'
p1241
aS'aromatic'
p1242
asg36
g37
sg38
g39
ssS'mobley_8127829'
p1243
(dp1244
g3
S'CCc1ccccc1'
p1245
sg25
F-0.59
sg26
F0.02
sg7
(lp1246
g28
asg29
S'ethylbenzene'
p1247
sg12
I7500
sg13
F0.6
sg31
F-0.79
sg15
(lp1248
S'aromatic'
p1249
asg36
g37
sg38
g39
ssS'mobley_7983227'
p1250
(dp1251
g3
S'CC[C@@H](C)CO'
p1252
sg25
F-2.78
sg26
F0.02
sg7
(lp1253
S'Renamed mobley_7983227 from 2-methylbutan-1-ol to (2R)-2-methylbutan-1-ol (the name from the 3D structure) since the former did not completely specify stereochemistry.\n'
p1254
asg29
S'2-methylbutan-1-ol'
p1255
sg12
I8723
sg13
F0.6
sg31
F-4.42
sg15
(lp1256
S'primary alcohol'
p1257
asg36
g37
sg38
g39
ssS'mobley_2390199'
p1258
(dp1259
g3
S'CCCC(=O)CCC'
p1260
sg25
F-2.68
sg26
F0.02
sg7
(lp1261
g28
asg29
S'heptan-4-one'
p1262
sg12
I31246
sg13
F0.6
sg31
F-2.92
sg15
(lp1263
S'ketone'
p1264
asg36
g37
sg38
g39
ssS'mobley_2960202'
p1265
(dp1266
g3
S'c1c2c(cc(c1Cl)Cl)Oc3c(c(c(c(c3Cl)Cl)Cl)Cl)O2'
p1267
sg212
F-1.9
sg213
F0.03
sg7
(lp1268
g28
asg215
S'1,2,3,4,7,8-hexachlorodibenzo-p-dioxin'
p1269
sg12
I38251
sg217
F1.0
sg218
F-3.71
sg15
(lp1270
S'diaryl ether'
p1271
aS'aryl chloride'
p1272
aS'aromatic'
p1273
aS'heterocyclic'
p1274
asg221
g222
sg223
g224
ssS'mobley_5326154'
p1275
(dp1276
g3
S'CN(C)c1ccccc1'
p1277
sg25
F-4.7
sg26
F0.02
sg7
(lp1278
g28
asg29
S'N,N-dimethylaniline'
p1279
sg12
I949
sg13
F0.6
sg31
F-3.45
sg15
(lp1280
S'tertiary amine'
p1281
aS'tertiary aliphatic/aromatic amine (alkylarylamine)'
p1282
aS'aromatic'
p1283
asg36
g37
sg38
g39
ssS'mobley_7176290'
p1284
(dp1285
g3
S'c1cc(cc(c1)O)[N+](=O)[O-]'
p1286
sg25
F-7.66
sg26
F0.03
sg7
(lp1287
g28
asg29
S'3-nitrophenol'
p1288
sg12
I11137
sg13
F0.6
sg31
F-9.62
sg15
(lp1289
S'phenol or hydroxyhetarene'
p1290
aS'nitro'
p1291
aS'aromatic'
p1292
asg36
g37
sg38
g39
ssS'mobley_6334915'
p1293
(dp1294
g3
S'COP(=O)([C@H](C(Cl)(Cl)Cl)O)OC'
p1295
sg180
F-14.03
sg181
F0.04
sg7
(lp1296
g28
aS'Changed IUPAC name from trichlorfon to (1R)-2,2,2-trichloro-1-dimethoxyphosphoryl-ethanol for better handling/standardization.'
p1297
asg183
S'(1R)-2,2,2-trichloro-1-dimethoxyphosphoryl-ethanol'
p1298
sg12
I6604183
sg185
F1.93
sg186
F-12.74
sg15
(lp1299
S'halogen derivative'
p1300
aS'phosphonic acid derivative'
p1301
aS'phosphonic acid ester'
p1302
asg189
g190
sg191
g192
ssS'mobley_6497672'
p1303
(dp1304
g3
S'C/C=C/C=O'
p1305
sg25
F-3.66
sg26
F0.02
sg7
(lp1306
S'Renamed mobley_6497672 from but-2-enal to (E)-but-2-enal (the name from the 3D structure) since the former did not completely specify stereochemistry.\n'
p1307
asg29
S'but-2-enal'
p1308
sg12
I447466
sg13
F0.6
sg31
F-4.22
sg15
(lp1309
S'aldehyde'
p1310
aS'alkene'
p1311
asg36
g37
sg38
g39
ssS'mobley_5665561'
p1312
(dp1313
g3
S'Cc1cc(c2ccccc2c1)C'
p1314
sg25
F-2.79
sg26
F0.03
sg7
(lp1315
g28
asg29
S'1,3-dimethylnaphthalene'
p1316
sg12
I11327
sg13
F0.6
sg31
F-2.47
sg15
(lp1317
S'aromatic'
p1318
asg36
g37
sg38
g39
ssS'mobley_4850657'
p1319
(dp1320
g3
S'CS(=O)(=O)Cl'
p1321
sg25
F-6.33
sg26
F0.02
sg7
(lp1322
g28
asg29
S'methanesulfonyl chloride'
p1323
sg12
I31297
sg13
F0.6
sg31
F-4.87
sg15
(lp1324
S'sulfonyl halide'
p1325
asg36
S'10.1139/v98-084'
p1326
sg38
g39
ssS'mobley_8809190'
p1327
(dp1328
g3
S'CCCCc1ccccc1'
p1329
sg25
F-0.3
sg26
F0.02
sg7
(lp1330
g28
asg29
S'butylbenzene'
p1331
sg12
I7705
sg13
F0.6
sg31
F-0.4
sg15
(lp1332
S'aromatic'
p1333
asg36
g37
sg38
g39
ssS'mobley_1743409'
p1334
(dp1335
g3
S'CCOC(=O)CCC(=O)OCC'
p1336
sg25
F-8.47
sg26
F0.04
sg7
(lp1337
g28
asg29
S'diethyl butanedioate'
p1338
sg12
I31249
sg13
F0.6
sg31
F-5.71
sg15
(lp1339
S'carboxylic acid ester'
p1340
asg36
S'10.1139/v91-2'
p1341
sg38
g39
ssS'mobley_900088'
p1342
(dp1343
g3
S'CC(=C)C(=C)C'
p1344
sg25
F1.69
sg26
F0.02
sg7
(lp1345
g28
asg29
S'2,3-dimethylbuta-1,3-diene'
p1346
sg12
I10566
sg13
F0.6
sg31
F0.4
sg15
(lp1347
S'alkene'
p1348
asg36
g37
sg38
g39
ssS'mobley_5759258'
p1349
(dp1350
g3
S'CCCCCO'
p1351
sg25
F-3.14
sg26
F0.02
sg7
(lp1352
g28
asg29
S'pentan-1-ol'
p1353
sg12
I6276
sg13
F0.6
sg31
F-4.57
sg15
(lp1354
S'primary alcohol'
p1355
asg36
g37
sg38
g39
ssS'mobley_7608435'
p1356
(dp1357
g3
S'CCCCCCCC(=O)OC'
p1358
sg25
F-2.94
sg26
F0.03
sg7
(lp1359
g28
asg29
S'methyl octanoate'
p1360
sg12
I8091
sg13
F0.6
sg31
F-2.04
sg15
(lp1361
S'carboxylic acid ester'
p1362
asg36
g37
sg38
g39
ssS'mobley_3006808'
p1363
(dp1364
g3
S'C(C(F)(F)F)O'
p1365
sg25
F-3.95
sg26
F0.03
sg7
(lp1366
g28
asg29
S'2,2,2-trifluoroethanol'
p1367
sg12
I6409
sg13
F0.6
sg31
F-4.31
sg15
(lp1368
S'primary alcohol'
p1369
aS'halogen derivative'
p1370
asg36
S'10.1039/F19736901577'
p1371
sg38
g39
ssS'mobley_6303022'
p1372
(dp1373
g3
S'CCc1ccncc1'
p1374
sg25
F-2.87
sg26
F0.02
sg7
(lp1375
g28
asg29
S'4-ethylpyridine'
p1376
sg12
I10822
sg13
F0.6
sg31
F-4.73
sg15
(lp1377
S'aromatic'
p1378
aS'heterocyclic'
p1379
asg36
g37
sg38
g39
ssS'mobley_7047032'
p1380
(dp1381
g3
S'CC(C)(C)Cl'
p1382
sg25
F0.82
sg26
F0.02
sg7
(lp1383
g28
asg29
S'2-chloro-2-methyl-propane'
p1384
sg12
I10486
sg13
F0.6
sg31
F1.09
sg15
(lp1385
S'alkyl chloride'
p1386
asg36
g37
sg38
g39
ssS'mobley_1708457'
p1387
(dp1388
g3
S'CS(=O)(=O)C'
p1389
sg25
F-10.36
sg26
F0.03
sg7
(lp1390
g28
asg29
S'methylsulfonylmethane'
p1391
sg12
I6213
sg13
F0.6
sg31
F-10.08
sg15
(lp1392
S'sulfone'
p1393
asg36
g746
sg38
g39
ssS'mobley_1079207'
p1394
(dp1395
g3
S'c1cc(cc(c1)Cl)Cl'
p1396
sg25
F0.01
sg26
F0.02
sg7
(lp1397
g28
asg29
S'1,3-dichlorobenzene'
p1398
sg12
I10943
sg13
F0.6
sg31
F-0.98
sg15
(lp1399
S'aryl chloride'
p1400
aS'aromatic'
p1401
asg36
g37
sg38
g39
ssS'mobley_8573194'
p1402
(dp1403
g3
S'CCCC=O'
p1404
sg25
F-3.01
sg26
F0.02
sg7
(lp1405
g28
asg29
S'butanal'
p1406
sg12
I261
sg13
F0.6
sg31
F-3.18
sg15
(lp1407
S'aldehyde'
p1408
asg36
g37
sg38
g39
ssS'mobley_7375018'
p1409
(dp1410
g3
S'CCCCCCCCCC(=O)C'
p1411
sg25
F-2.12
sg26
F0.03
sg7
(lp1412
g28
asg29
S'undecan-2-one'
p1413
sg12
I8163
sg13
F0.6
sg31
F-2.15
sg15
(lp1414
S'ketone'
p1415
asg36
g37
sg38
g39
ssS'mobley_4792268'
p1416
(dp1417
g3
S'CCCCC(=O)O'
p1418
sg25
F-5.37
sg26
F0.06
sg7
(lp1419
g28
asg29
S'pentanoic acid'
p1420
sg12
I7991
sg13
F0.6
sg31
F-6.16
sg15
(lp1421
S'carboxylic acid'
p1422
asg36
g37
sg38
g39
ssS'mobley_1520842'
p1423
(dp1424
g3
S'Cc1ccncc1'
p1425
sg25
F-3.41
sg26
F0.02
sg7
(lp1426
g28
asg29
S'4-methylpyridine'
p1427
sg12
I7963
sg13
F0.6
sg31
F-4.93
sg15
(lp1428
S'aromatic'
p1429
aS'heterocyclic'
p1430
asg36
g37
sg38
g39
ssS'mobley_5520946'
p1431
(dp1432
g3
S'c1ccc(cc1)S'
p1433
sg25
F-1.43
sg26
F0.02
sg7
(lp1434
g28
asg29
S'benzenethiol'
p1435
sg12
I7969
sg13
F0.6
sg31
F-2.55
sg15
(lp1436
S'thiol (sulfanyl)'
p1437
aS'arylthiol (thiophenol)'
p1438
aS'aromatic'
p1439
asg36
g37
sg38
g39
ssS'mobley_2005792'
p1440
(dp1441
g3
S'c1ccc(cc1)c2ccccc2'
p1442
sg5
F-3.5
sg6
F0.1
sg7
(lp1443
g9
aS'Changed IUPAC name from biphenyle to biphenyl for better handling/standardization.'
p1444
asg10
S'biphenyl'
p1445
sg12
I7095
sg13
F0.2
sg14
F-2.7
sg15
(lp1446
S'aromatic'
p1447
asg18
g19
sg20
g21
ssS'mobley_7688753'
p1448
(dp1449
g3
S'c1cc(cc(c1)O)C=O'
p1450
sg25
F-9.24
sg26
F0.03
sg7
(lp1451
g28
aS"Experimental value updated 10/22/13 from J. Peter Guthrie's examination of published data. A range of values -7.48 to -9.52 seem possible, but the original experimental data has not yet been located. More work is needed.\n"
p1452
asg29
S'3-hydroxybenzaldehyde'
p1453
sg12
I101
sg13
F1.9
sg31
F-9.52
sg15
(lp1454
S'aldehyde'
p1455
aS'phenol or hydroxyhetarene'
p1456
aS'aromatic'
p1457
asg36
g37
sg38
g39
ssS'mobley_1723043'
p1458
(dp1459
g3
S'C1(C(C(C1(F)F)(F)F)(F)F)(F)F'
p1460
sg397
F3.01
sg398
F0.04
sg7
(lp1461
g28
asg400
S'octafluorocyclobutane'
p1462
sg12
I8263
sg402
F0.03
sg403
F3.43
sg15
(lp1463
S'alkyl fluoride'
p1464
asg409
g410
sg411
g412
ssS'mobley_7860938'
p1465
(dp1466
g3
S'CCCCNCCCC'
p1467
sg25
F-1.63
sg26
F0.03
sg7
(lp1468
g28
asg29
S'N-butylbutan-1-amine'
p1469
sg12
I8148
sg13
F0.6
sg31
F-3.24
sg15
(lp1470
S'secondary amine'
p1471
aS'secondary aliphatic amine (dialkylamine)'
p1472
asg36
g37
sg38
g39
ssS'mobley_4845722'
p1473
(dp1474
g3
S'c1(c(c(c(c(c1Cl)Cl)Cl)Cl)Cl)Cl'
p1475
sg397
F0.24
sg398
F0.04
sg7
(lp1476
g28
asg400
S'hexachlorobenzene'
p1477
sg12
I8370
sg402
F1.16
sg403
F-2.33
sg15
(lp1478
S'aryl chloride'
p1479
aS'aromatic'
p1480
asg409
g410
sg411
g412
ssS'mobley_3709920'
p1481
(dp1482
g3
S'CCCCCCCC=C'
p1483
sg25
F2.91
sg26
F0.03
sg7
(lp1484
g28
asg29
S'non-1-ene'
p1485
sg12
I31285
sg13
F0.6
sg31
F2.06
sg15
(lp1486
S'alkene'
p1487
asg36
g37
sg38
g39
ssS'mobley_7542832'
p1488
(dp1489
g3
S'CCCOCCC'
p1490
sg25
F0.21
sg26
F0.02
sg7
(lp1491
g28
asg29
S'1-propoxypropane'
p1492
sg12
I8114
sg13
F0.6
sg31
F-1.16
sg15
(lp1493
S'dialkyl ether'
p1494
asg36
g37
sg38
g39
ssS'mobley_2492140'
p1495
(dp1496
g3
S'C(C(Cl)(Cl)Cl)(Cl)Cl'
p1497
sg212
F0.13
sg213
F0.02
sg7
(lp1498
g28
asg215
S'1,1,1,2,2-pentachloroethane'
p1499
sg12
I6419
sg217
F0.1
sg218
F-1.23
sg15
(lp1500
S'alkyl chloride'
p1501
asg221
g222
sg223
g224
ssS'mobley_8899867'
p1502
(dp1503
g3
S'C1CCC(C1)O'
p1504
sg25
F-4.15
sg26
F0.02
sg7
(lp1505
g28
asg29
S'cyclopentanol'
p1506
sg12
I7298
sg13
F0.6
sg31
F-5.49
sg15
(lp1507
S'secondary alcohol'
p1508
asg36
g37
sg38
g39
ssS'mobley_5371840'
p1509
(dp1510
g3
S'c1ccc2c(c1)Oc3ccc(cc3O2)Cl'
p1511
sg212
F-3.99
sg213
F0.02
sg7
(lp1512
g28
asg215
S'2-chlorodibenzo-p-dioxin'
p1513
sg12
I38252
sg217
F0.1
sg218
F-3.1
sg15
(lp1514
S'diaryl ether'
p1515
aS'aryl chloride'
p1516
aS'aromatic'
p1517
aS'heterocyclic'
p1518
asg221
g222
sg223
g224
ssS'mobley_2929847'
p1519
(dp1520
g3
S'CC(C)CC(=O)O'
p1521
sg25
F-5.51
sg26
F0.03
sg7
(lp1522
g28
asg29
S'3-methylbutanoic acid'
p1523
sg12
I10430
sg13
F0.6
sg31
F-6.09
sg15
(lp1524
S'carboxylic acid'
p1525
asg36
g37
sg38
g39
ssS'mobley_8006582'
p1526
(dp1527
g3
S'C1CCCC1'
p1528
sg25
F1.53
sg26
F0.02
sg7
(lp1529
g28
asg29
S'cyclopentane'
p1530
sg12
I9253
sg13
F0.6
sg31
F1.2
sg15
(lp1531
g63
asg36
g37
sg38
g39
ssS'mobley_2146331'
p1532
(dp1533
g3
S'C=O'
p1534
sg25
F-3.22
sg26
F0.01
sg7
(lp1535
g28
aS'Formaldehyde is covalently hydrated in water. Our value here is the true free energy of hydration (based on the concentration of formaldehyde in gas vs in water) as opposed to the apparent one. See Guthrie, J. P., J. Am. Chem. Soc. 2000, 122, 5529-5538.\n'
p1536
asg29
S'formaldehyde'
p1537
sg12
I712
sg13
F0.6
sg31
F-2.75
sg15
(lp1538
S'aldehyde'
p1539
asg36
g37
sg38
g39
ssS'mobley_2099370'
p1540
(dp1541
g3
S'C[C@@H](c1cccc(c1)C(=O)c2ccccc2)C(=O)O'
p1542
sg397
F-11.9
sg398
F0.1
sg7
(lp1543
S'Renamed mobley_2099370 from ketoprofen to (2S)-2-(3-benzoylphenyl)propanoic acid (the name from the 3D structure) since the former did not completely specify stereochemistry.\n'
p1544
asg400
S'ketoprofen'
p1545
sg12
I3825
sg402
F0.18
sg403
F-10.78
sg15
(lp1546
S'ketone'
p1547
aS'carboxylic acid'
p1548
aS'aromatic'
p1549
asg409
g410
sg411
g412
ssS'mobley_3968043'
p1550
(dp1551
g3
S'C1CCC(=O)C1'
p1552
sg25
F-3.71
sg26
F0.02
sg7
(lp1553
g28
asg29
S'cyclopentanone'
p1554
sg12
I8452
sg13
F0.6
sg31
F-4.7
sg15
(lp1555
S'ketone'
p1556
asg36
g37
sg38
g39
ssS'mobley_3323117'
p1557
(dp1558
g3
S'C1CC[S+2](C1)([O-])[O-]'
p1559
sg397
F-9.45
sg398
F0.05
sg7
(lp1560
g28
asg400
S'sulfolane'
p1561
sg12
I31347
sg402
F0.31
sg403
F-8.61
sg15
(lp1562
S'cation'
p1563
aS'heterocyclic'
p1564
asg409
g410
sg411
g412
ssS'mobley_4043951'
p1565
(dp1566
g3
S'CCCC=C'
p1567
sg25
F2.44
sg26
F0.02
sg7
(lp1568
g28
asg29
S'pent-1-ene'
p1569
sg12
I8004
sg13
F0.6
sg31
F1.68
sg15
(lp1570
S'alkene'
p1571
asg36
g37
sg38
g39
ssS'mobley_8705848'
p1572
(dp1573
g3
S'CC(C)NC(C)C'
p1574
sg25
F-1.97
sg26
F0.02
sg7
(lp1575
g28
asg29
S'N-isopropylpropan-2-amine'
p1576
sg12
I7912
sg13
F0.6
sg31
F-3.22
sg15
(lp1577
S'secondary amine'
p1578
aS'secondary aliphatic amine (dialkylamine)'
p1579
asg36
g37
sg38
g39
ssS'mobley_2484519'
p1580
(dp1581
g3
S'c1ccc(cc1)CCl'
p1582
sg1214
F-1.5
sg1215
F0.08
sg1216
(lp1583
g1218
ag28
ag167
asg1219
S'benzyl chloride'
p1584
sg12
I7503
sg13
F0.2
sg1221
F-1.93
sg15
(lp1585
S'alkyl chloride'
p1586
aS'aromatic'
p1587
asg1224
g1225
sg1226
g1225
ssS'mobley_547634'
p1588
(dp1589
g3
S'Cc1cc2ccccc2cc1C'
p1590
sg25
F-2.59
sg26
F0.02
sg7
(lp1591
g28
asg29
S'2,3-dimethylnaphthalene'
p1592
sg12
I11386
sg13
F0.6
sg31
F-2.78
sg15
(lp1593
S'aromatic'
p1594
asg36
g37
sg38
g39
ssS'mobley_8311321'
p1595
(dp1596
g3
S'C(F)(F)Cl'
p1597
sg25
F-0.04
sg26
F0.02
sg7
(lp1598
g28
asg29
S'chloro-difluoro-methane'
p1599
sg12
I6372
sg13
F0.6
sg31
F-0.5
sg15
(lp1600
S'halogen derivative'
p1601
asg36
g37
sg38
g39
ssS'mobley_3318135'
p1602
(dp1603
g3
S'CCCCC(=O)CCCC'
p1604
sg25
F-2.34
sg26
F0.03
sg7
(lp1605
g28
asg29
S'nonan-5-one'
p1606
sg12
I10405
sg13
F0.6
sg31
F-2.64
sg15
(lp1607
S'ketone'
p1608
asg36
g37
sg38
g39
ssS'mobley_3761215'
p1609
(dp1610
g3
S'CC(Cl)(Cl)Cl'
p1611
sg25
F0.75
sg26
F0.02
sg7
(lp1612
g28
asg29
S'1,1,1-trichloroethane'
p1613
sg12
I6278
sg13
F0.6
sg31
F-0.19
sg15
(lp1614
S'halogen derivative'
p1615
asg36
g37
sg38
g39
ssS'mobley_282648'
p1616
(dp1617
g3
S'c1ccc2ccccc2c1'
p1618
sg25
F-3.34
sg26
F0.02
sg7
(lp1619
g28
asg29
S'naphthalene'
p1620
sg12
I931
sg13
F0.6
sg31
F-2.4
sg15
(lp1621
S'aromatic'
p1622
asg36
g37
sg38
g39
ssS'mobley_3183805'
p1623
(dp1624
g3
S'Cc1ccc(c(c1)C)C'
p1625
sg25
F-0.36
sg26
F0.02
sg7
(lp1626
g28
asg29
S'1,2,4-trimethylbenzene'
p1627
sg12
I7247
sg13
F0.6
sg31
F-0.86
sg15
(lp1628
S'aromatic'
p1629
asg36
g37
sg38
g39
ssS'mobley_1717215'
p1630
(dp1631
g3
S'COC=O'
p1632
sg25
F-3.17
sg26
F0.02
sg7
(lp1633
g28
asg29
S'methyl formate'
p1634
sg12
I7865
sg13
F0.6
sg31
F-2.78
sg15
(lp1635
S'carboxylic acid ester'
p1636
asg36
g37
sg38
g39
ssS'mobley_5600967'
p1637
(dp1638
g3
S'CN(C)C(=O)c1ccc(cc1)OC'
p1639
sg25
F-9.29
sg26
F0.04
sg7
(lp1640
g28
asg29
S'4-methoxy-N,N-dimethyl-benzamide'
p1641
sg12
I81713
sg13
F0.6
sg31
F-11.01
sg15
(lp1642
S'alkyl aryl ether'
p1643
aS'tertiary carboxylic acid amide'
p1644
aS'aromatic'
p1645
asg36
g610
sg38
g39
ssS'mobley_6794076'
p1646
(dp1647
g3
S'CC(=O)c1ccncc1'
p1648
sg25
F-7.63
sg26
F0.03
sg7
(lp1649
g28
asg29
S'1-(4-pyridyl)ethanone'
p1650
sg12
I14282
sg13
F0.6
sg31
F-7.62
sg15
(lp1651
S'ketone'
p1652
aS'aromatic'
p1653
aS'heterocyclic'
p1654
asg36
g37
sg38
g39
ssS'mobley_6055410'
p1655
(dp1656
g3
S'c1cc(c(cc1c2ccc(cc2F)F)C(=O)O)O'
p1657
sg397
F-6.5
sg398
F0.1
sg7
(lp1658
g28
asg400
S'diflunisal'
p1659
sg12
I3059
sg402
F0.2
sg403
F-9.4
sg15
(lp1660
S'phenol or hydroxyhetarene'
p1661
aS'aryl fluoride'
p1662
aS'carboxylic acid'
p1663
aS'aromatic'
p1664
asg409
g410
sg411
g412
ssS'mobley_7455579'
p1665
(dp1666
g3
S'CC(C)COC=O'
p1667
sg25
F-3.21
sg26
F0.02
sg7
(lp1668
g28
asg29
S'isobutyl formate'
p1669
sg12
I10957
sg13
F0.6
sg31
F-2.22
sg15
(lp1670
S'carboxylic acid ester'
p1671
asg36
g37
sg38
g39
ssS'mobley_7393673'
p1672
(dp1673
g3
S'COc1ccc(cc1)C(=O)OC'
p1674
sg25
F-6.32
sg26
F0.03
sg7
(lp1675
g28
asg29
S'methyl 4-methoxybenzoate'
p1676
sg12
I8499
sg13
F0.6
sg31
F-5.33
sg15
(lp1677
S'alkyl aryl ether'
p1678
aS'carboxylic acid ester'
p1679
aS'aromatic'
p1680
asg36
g610
sg38
g39
ssS'mobley_7676709'
p1681
(dp1682
g3
S'CC1=CC(=O)[C@@H](CC1)C(C)C'
p1683
sg480
F-3.81
sg481
F0.022
sg7
(lp1684
S'Renamed mobley_7676709 from 6-isopropyl-3-methyl-1-cyclohex-2-enone to (6S)-6-isopropyl-3-methyl-cyclohex-2-en-1-one (the name from the 3D structure) since the former did not completely specify stereochemistry.\n'
p1685
asg484
S'6-isopropyl-3-methyl-1-cyclohex-2-enone'
p1686
sg12
I61362
sg486
F0.1
sg497
F-4.51
sg15
(lp1687
S'ketone'
p1688
aS'alkene'
p1689
asg503
g504
sg505
g506
ssS'mobley_2845466'
p1690
(dp1691
g3
S'c1c2c(cc(c1Cl)Cl)Oc3cc(c(cc3O2)Cl)Cl'
p1692
sg212
F-2.49
sg213
F0.03
sg7
(lp1693
g28
asg215
S'2,3,7,8-tetrachlorodibenzo-p-dioxin'
p1694
sg12
I15625
sg217
F1.0
sg218
F-3.37
sg15
(lp1695
S'diaryl ether'
p1696
aS'aryl chloride'
p1697
aS'aromatic'
p1698
aS'heterocyclic'
p1699
asg221
g222
sg223
g224
ssS'mobley_9197172'
p1700
(dp1701
g3
S'CCCCCCC=C'
p1702
sg25
F2.77
sg26
F0.03
sg7
(lp1703
g28
asg29
S'oct-1-ene'
p1704
sg12
I8125
sg13
F0.6
sg31
F1.92
sg15
(lp1705
S'alkene'
p1706
asg36
g37
sg38
g39
ssS'mobley_9055303'
p1707
(dp1708
g3
S'C'
p1709
sg5
F2.6
sg6
F0.1
sg7
(lp1710
g9
asg10
S'methane'
p1711
sg12
I297
sg13
F0.2
sg14
F2.0
sg15
(lp1712
g63
asg18
g19
sg20
g21
ssS'mobley_6935906'
p1713
(dp1714
g3
S'CC(=CCC[C@](C)(C=C)OC(=O)C)C'
p1715
sg480
F-2.58
sg481
F0.024
sg7
(lp1716
g28
asg484
S'(3R)-3,7-Dimethylocta-1,6-dien-3-yl acetate'
p1717
sg12
I442474
sg486
g487
(g491
S'333333\xeb?'
p1718
tp1719
Rp1720
sg497
g487
(g491
S'\xecQ\xb8\x1e\x85\xeb\x03\xc0'
p1721
tp1722
Rp1723
sg15
(lp1724
S'carboxylic acid ester'
p1725
aS'alkene'
p1726
asg503
g504
sg505
g506
ssS'mobley_7239499'
p1727
(dp1728
g3
S'c1ccc2c(c1)Oc3cccc(c3O2)Cl'
p1729
sg212
F-4.38
sg213
F0.02
sg7
(lp1730
g28
asg215
S'1-chlorodibenzo-p-dioxin'
p1731
sg12
I37207
sg217
F0.1
sg218
F-3.52
sg15
(lp1732
S'diaryl ether'
p1733
aS'aryl chloride'
p1734
aS'aromatic'
p1735
aS'heterocyclic'
p1736
asg221
g222
sg223
g224
ssS'mobley_4193752'
p1737
(dp1738
g3
S'c1ccc(cc1)[N+](=O)[O-]'
p1739
sg25
F-3.4
sg26
F0.02
sg7
(lp1740
g28
asg29
S'nitrobenzene'
p1741
sg12
I7416
sg13
F0.6
sg31
F-4.12
sg15
(lp1742
S'nitro'
p1743
aS'aromatic'
p1744
asg36
g37
sg38
g39
ssS'mobley_2844990'
p1745
(dp1746
g3
S'c1cc2c(cc1Cl)Oc3cc(c(c(c3O2)Cl)Cl)Cl'
p1747
sg212
F-2.58
sg213
F0.03
sg7
(lp1748
g28
asg215
S'1,2,3,7-tetrachlorodibenzo-p-dioxin'
p1749
sg12
I48889
sg217
F1.0
sg218
F-3.84
sg15
(lp1750
S'diaryl ether'
p1751
aS'aryl chloride'
p1752
aS'aromatic'
p1753
aS'heterocyclic'
p1754
asg221
g222
sg223
g224
ssS'mobley_2925352'
p1755
(dp1756
g3
S'Cc1ccc(cc1)O'
p1757
sg25
F-5.36
sg26
F0.02
sg7
(lp1758
g28
asg29
S'p-cresol'
p1759
sg12
I2879
sg13
F0.6
sg31
F-6.13
sg15
(lp1760
S'phenol or hydroxyhetarene'
p1761
aS'aromatic'
p1762
asg36
g37
sg38
g39
ssS'mobley_5346580'
p1763
(dp1764
g3
S'CC(=O)C(C)(C)C'
p1765
sg25
F-2.91
sg26
F0.02
sg7
(lp1766
g28
asg29
S'3,3-dimethylbutan-2-one'
p1767
sg12
I6416
sg13
F0.6
sg31
F-3.11
sg15
(lp1768
S'ketone'
p1769
asg36
g37
sg38
g39
ssS'mobley_1923244'
p1770
(dp1771
g3
S'CCCC'
p1772
sg5
F3.1
sg6
F0.1
sg7
(lp1773
g9
asg10
S'n-butane'
p1774
sg12
I7843
sg13
F0.2
sg14
F2.1
sg15
(lp1775
g63
asg18
g19
sg20
g21
ssS'mobley_3690931'
p1776
(dp1777
g3
S'CCCC(=O)OCCC'
p1778
sg25
F-2.88
sg26
F0.03
sg7
(lp1779
g28
asg29
S'propyl butanoate'
p1780
sg12
I7770
sg13
F0.6
sg31
F-2.28
sg15
(lp1781
S'carboxylic acid ester'
p1782
asg36
g37
sg38
g39
ssS'mobley_6359135'
p1783
(dp1784
g3
S'C(Cl)(Cl)(Cl)Cl'
p1785
sg25
F1.41
sg26
F0.02
sg7
(lp1786
g28
asg29
S'carbon tetrachloride'
p1787
sg12
I5943
sg13
F0.6
sg31
F0.08
sg15
(lp1788
S'halogen derivative'
p1789
asg36
g37
sg38
g39
ssS'mobley_1857976'
p1790
(dp1791
g3
S'C(CCl)Cl'
p1792
sg25
F-0.52
sg26
F0.02
sg7
(lp1793
g28
asg29
S'1,2-dichloroethane'
p1794
sg12
I11
sg13
F0.6
sg31
F-1.79
sg15
(lp1795
S'alkyl chloride'
p1796
asg36
g37
sg38
g39
ssS'mobley_718988'
p1797
(dp1798
g3
S'CCCCCCCN'
p1799
sg25
F-2.72
sg26
F0.03
sg7
(lp1800
g28
asg29
S'heptan-1-amine'
p1801
sg12
I8127
sg13
F0.6
sg31
F-3.79
sg15
(lp1802
S'primary amine'
p1803
aS'primary aliphatic amine (alkylamine)'
p1804
asg36
g37
sg38
g39
ssS'mobley_1160109'
p1805
(dp1806
g3
S'C[C@@H]1CC[C@H](CC1=O)C(=C)C'
p1807
sg480
F-3.31
sg481
F0.021
sg7
(lp1808
g28
asg484
S'(2R,5R)-2-methyl-5-(1-methylethenyl)-cyclohexanone'
p1809
sg12
I22227
sg486
F0.21
sg497
F-3.75
sg15
(lp1810
S'ketone'
p1811
aS'alkene'
p1812
asg503
g504
sg505
g506
ssS'mobley_4584540'
p1813
(dp1814
g3
S'Cc1cccc(n1)C'
p1815
sg25
F-3.36
sg26
F0.02
sg7
(lp1816
g28
asg29
S'2,6-dimethylpyridine'
p1817
sg12
I7937
sg13
F0.6
sg31
F-4.59
sg15
(lp1818
S'aromatic'
p1819
aS'heterocyclic'
p1820
asg36
g37
sg38
g39
ssS'mobley_7573149'
p1821
(dp1822
g3
S'CCCOC(=O)C'
p1823
sg25
F-3.33
sg26
F0.02
sg7
(lp1824
g28
asg29
S'propyl acetate'
p1825
sg12
I7997
sg13
F0.6
sg31
F-2.79
sg15
(lp1826
S'carboxylic acid ester'
p1827
asg36
g37
sg38
g39
ssS'mobley_7758918'
p1828
(dp1829
g3
S'CCC(=O)O'
p1830
sg25
F-6.41
sg26
F0.03
sg7
(lp1831
g28
asg29
S'propionic acid'
p1832
sg12
I1032
sg13
F0.6
sg31
F-6.46
sg15
(lp1833
S'carboxylic acid'
p1834
asg36
g37
sg38
g39
ssS'mobley_1178614'
p1835
(dp1836
g3
S'c1ccc(c(c1)O)Cl'
p1837
sg25
F-3.23
sg26
F0.03
sg7
(lp1838
g28
asg29
S'2-chlorophenol'
p1839
sg12
I7245
sg13
F0.6
sg31
F-4.55
sg15
(lp1840
S'phenol or hydroxyhetarene'
p1841
aS'aryl chloride'
p1842
aS'aromatic'
p1843
asg36
g37
sg38
g39
ssS'mobley_4218209'
p1844
(dp1845
g3
S'COc1ccc(cc1)N'
p1846
sg25
F-6.92
sg26
F0.03
sg7
(lp1847
g28
asg29
S'4-methoxyaniline'
p1848
sg12
I7732
sg13
F0.6
sg31
F-7.48
sg15
(lp1849
S'alkyl aryl ether'
p1850
aS'primary amine'
p1851
aS'primary aromatic amine'
p1852
aS'aromatic'
p1853
asg36
g37
sg38
g39
ssS'mobley_7988076'
p1854
(dp1855
g3
S'c1cc(ccc1C=O)O'
p1856
sg25
F-10.0
sg26
F0.03
sg7
(lp1857
g28
asg29
S'4-hydroxybenzaldehyde'
p1858
sg12
I126
sg13
F0.6
sg31
F-8.83
sg15
(lp1859
S'aldehyde'
p1860
aS'phenol or hydroxyhetarene'
p1861
aS'aromatic'
p1862
asg36
g37
sg38
g39
ssS'mobley_6854178'
p1863
(dp1864
g3
S'CC(C)OC=O'
p1865
sg25
F-2.64
sg26
F0.02
sg7
(lp1866
g28
asg29
S'isopropyl formate'
p1867
sg12
I12257
sg13
F0.6
sg31
F-2.02
sg15
(lp1868
S'carboxylic acid ester'
p1869
asg36
g37
sg38
g39
ssS'mobley_6175884'
p1870
(dp1871
g3
S'Cc1ccc(cc1)C=O'
p1872
sg25
F-4.9
sg26
F0.03
sg7
(lp1873
g28
asg29
S'4-methylbenzaldehyde'
p1874
sg12
I7725
sg13
F0.6
sg31
F-4.27
sg15
(lp1875
S'aldehyde'
p1876
aS'aromatic'
p1877
asg36
g37
sg38
g39
ssS'mobley_6235784'
p1878
(dp1879
g3
S'CC[C@H](C)Cl'
p1880
sg25
F1.21
sg26
F0.02
sg7
(lp1881
S'Renamed mobley_6235784 from 2-chlorobutane to (2S)-2-chlorobutane (the name from the 3D structure) since the former did not completely specify stereochemistry.\n'
p1882
asg29
S'2-chlorobutane'
p1883
sg12
I6563
sg13
F0.6
sg31
F0.0
sg15
(lp1884
S'alkyl chloride'
p1885
asg36
g37
sg38
g39
ssS'mobley_9100956'
p1886
(dp1887
g3
S'CC1CCCCC1'
p1888
sg25
F1.82
sg26
F0.02
sg7
(lp1889
g28
asg29
S'methylcyclohexane'
p1890
sg12
I7962
sg13
F0.6
sg31
F1.7
sg15
(lp1891
g63
asg36
g37
sg38
g39
ssS'mobley_5026370'
p1892
(dp1893
g3
S'c1cnccc1C#N'
p1894
sg25
F-5.01
sg26
F0.02
sg7
(lp1895
g28
asg29
S'pyridine-4-carbonitrile'
p1896
sg12
I7506
sg13
F0.6
sg31
F-6.02
sg15
(lp1897
S'carbonitrile'
p1898
aS'aromatic'
p1899
aS'heterocyclic'
p1900
asg36
g37
sg38
g39
ssS'mobley_3762186'
p1901
(dp1902
g3
S'C(Cl)Cl'
p1903
sg25
F0.23
sg26
F0.01
sg7
(lp1904
g28
asg29
S'dichloromethane'
p1905
sg12
I6344
sg13
F0.6
sg31
F-1.31
sg15
(lp1906
S'alkyl chloride'
p1907
asg36
g37
sg38
g39
ssS'mobley_1977493'
p1908
(dp1909
g3
S'CCCCl'
p1910
sg25
F0.92
sg26
F0.02
sg7
(lp1911
g28
asg29
S'1-chloropropane'
p1912
sg12
I10899
sg13
F0.6
sg31
F-0.33
sg15
(lp1913
S'alkyl chloride'
p1914
asg36
g37
sg38
g39
ssS'mobley_9626434'
p1915
(dp1916
g3
S'CCOCCO'
p1917
sg25
F-4.77
sg26
F0.03
sg7
(lp1918
g28
asg29
S'2-ethoxyethanol'
p1919
sg12
I8076
sg13
F0.6
sg31
F-6.69
sg15
(lp1920
S'primary alcohol'
p1921
aS'dialkyl ether'
p1922
asg36
g37
sg38
g39
ssS'mobley_1396156'
p1923
(dp1924
g3
S'c1(c(c(c(c(c1Cl)Cl)Cl)Cl)Cl)N(=O)=O'
p1925
sg397
F-2.26
sg398
F0.05
sg7
(lp1926
g28
asg400
S'pentachloronitrobenzene'
p1927
sg12
I6720
sg402
F0.25
sg403
F-5.22
sg15
(lp1928
S'aryl chloride'
p1929
aS'nitro'
p1930
aS'aromatic'
p1931
asg409
g410
sg411
g412
ssS'mobley_9507933'
p1932
(dp1933
g3
S'Cc1ccc(nc1)C'
p1934
sg25
F-2.83
sg26
F0.02
sg7
(lp1935
g28
asg29
S'2,5-dimethylpyridine'
p1936
sg12
I11526
sg13
F0.6
sg31
F-4.72
sg15
(lp1937
S'aromatic'
p1938
aS'heterocyclic'
p1939
asg36
g37
sg38
g39
ssS'mobley_9913368'
p1940
(dp1941
g3
S'C(=C/Cl)\\Cl'
p1942
sg25
F1.2
sg26
F0.02
sg7
(lp1943
S'Renamed mobley_9913368 from (E)-1,2-dichloroethylene to (E)-1,2-dichloroethylene (the name from the 3D structure) since the former did not completely specify stereochemistry.\n'
p1944
asg29
S'(E)-1,2-dichloroethylene'
p1945
sg12
I638186
sg13
F0.6
sg31
F-0.78
sg15
(lp1946
S'halogen derivative'
p1947
aS'alkene'
p1948
asg36
g37
sg38
g39
ssS'mobley_3167746'
p1949
(dp1950
g3
S'CCCCCCCC'
p1951
sg25
F3.13
sg26
F0.03
sg7
(lp1952
g28
asg29
S'octane'
p1953
sg12
I356
sg13
F0.6
sg31
F2.88
sg15
(lp1954
g63
asg36
g37
sg38
g39
ssS'mobley_2725802'
p1955
(dp1956
g3
S'CC(=O)N1CCCC1'
p1957
sg25
F-7.97
sg26
F0.02
sg7
(lp1958
g28
asg29
S'1-pyrrolidin-1-ylethanone'
p1959
sg12
I77650
sg13
F0.6
sg31
F-9.8
sg15
(lp1960
S'tertiary carboxylic acid amide'
p1961
aS'heterocyclic'
p1962
asg36
g37
sg38
g39
ssS'mobley_4678740'
p1963
(dp1964
g3
S'c1cc(cc(c1)C(F)(F)F)C(F)(F)F'
p1965
sg1214
F-0.27
sg1215
F0.04
sg1216
(lp1966
g1218
ag28
aS'Changed IUPAC name from m-bis(trifluoromethyl)benzene to 1,3-bis(trifluoromethyl)benzene for better handling/standardization.'
p1967
ag167
asg1219
S'm-bis(trifluoromethyl)benzene'
p1968
sg12
I223106
sg13
F0.2
sg1221
F1.07
sg15
(lp1969
S'halogen derivative'
p1970
aS'aromatic'
p1971
asg1224
g1225
sg1226
g1225
ssS'mobley_242480'
p1972
(dp1973
g3
S'c1ccc2c(c1)C(=O)c3c(ccc(c3C2=O)N)N'
p1974
sg480
F-14.2
sg481
F0.024
sg7
(lp1975
g28
asg484
S'1,4-diamino-9,10-anthracenedione'
p1976
sg12
I31420
sg486
g487
(g491
S'ffffff\xd6?'
p1977
tp1978
Rp1979
sg497
g487
(g491
S"33333\xb3'\xc0"
p1980
tp1981
Rp1982
sg15
(lp1983
S'ketone'
p1984
aS'primary amine'
p1985
aS'primary aromatic amine'
p1986
aS'aromatic'
p1987
asg503
g504
sg505
g506
ssS'mobley_5445548'
p1988
(dp1989
g3
S'CC(C)c1ccccc1'
p1990
sg25
F-0.31
sg26
F0.02
sg7
(lp1991
g28
asg29
S'cumene'
p1992
sg12
I7406
sg13
F0.6
sg31
F-0.3
sg15
(lp1993
S'aromatic'
p1994
asg36
g37
sg38
g39
ssS'mobley_8823527'
p1995
(dp1996
g3
S'c1cc(c(cc1Cl)c2cc(c(c(c2)Cl)Cl)Cl)Cl'
p1997
sg212
F-0.86
sg213
F0.03
sg7
(lp1998
g28
asg215
S'1,2,3-trichloro-5-(2,5-dichlorophenyl)benzene'
p1999
sg12
I63088
sg217
F0.13
sg218
F-3.61
sg15
(lp2000
S'aryl chloride'
p2001
aS'aromatic'
p2002
asg221
g222
sg223
g224
ssS'mobley_1019269'
p2003
(dp2004
g3
S'CCCCO'
p2005
sg25
F-3.14
sg26
F0.02
sg7
(lp2006
g28
asg29
S'butan-1-ol'
p2007
sg12
I263
sg13
F0.6
sg31
F-4.72
sg15
(lp2008
S'primary alcohol'
p2009
asg36
g37
sg38
g39
ssS'mobley_1755375'
p2010
(dp2011
g3
S'Cc1cccc(c1O)C'
p2012
sg25
F-4.09
sg26
F0.03
sg7
(lp2013
g28
asg29
S'2,6-dimethylphenol'
p2014
sg12
I11335
sg13
F0.6
sg31
F-5.26
sg15
(lp2015
S'phenol or hydroxyhetarene'
p2016
aS'aromatic'
p2017
asg36
g37
sg38
g39
ssS'mobley_4371692'
p2018
(dp2019
g3
S'c1ccc2c(c1)C(=O)c3c(ccc(c3C2=O)O)N'
p2020
sg480
F-11.22
sg481
F0.022
sg7
(lp2021
g28
asg484
S'1-amino-4-hydroxy-9,10-anthracenedione'
p2022
sg12
I8323
sg486
g487
(g491
S'\xecQ\xb8\x1e\x85\xeb\xd1?'
p2023
tp2024
Rp2025
sg497
g487
(g491
S'\x8f\xc2\xf5(\\\x0f#\xc0'
p2026
tp2027
Rp2028
sg15
(lp2029
S'ketone'
p2030
aS'phenol or hydroxyhetarene'
p2031
aS'primary amine'
p2032
aS'primary aromatic amine'
p2033
aS'aromatic'
p2034
asg503
g504
sg505
g506
ssS'mobley_1139153'
p2035
(dp2036
g3
S'CC(C)CC(C)(C)C'
p2037
sg25
F2.93
sg26
F0.03
sg7
(lp2038
g28
asg29
S'2,2,4-trimethylpentane'
p2039
sg12
I10907
sg13
F0.6
sg31
F2.89
sg15
(lp2040
g63
asg36
g37
sg38
g39
ssS'mobley_5471704'
p2041
(dp2042
g3
S'CC(C)CCOC(=O)C'
p2043
sg25
F-3.05
sg26
F0.03
sg7
(lp2044
g28
asg29
S'isopentyl acetate'
p2045
sg12
I31276
sg13
F0.6
sg31
F-2.21
sg15
(lp2046
S'carboxylic acid ester'
p2047
asg36
g37
sg38
g39
ssS'mobley_6060301'
p2048
(dp2049
g3
S'CCCCCCN'
p2050
sg25
F-2.54
sg26
F0.02
sg7
(lp2051
g28
asg29
S'hexan-1-amine'
p2052
sg12
I8102
sg13
F0.6
sg31
F-3.95
sg15
(lp2053
S'primary amine'
p2054
aS'primary aliphatic amine (alkylamine)'
p2055
asg36
g37
sg38
g39
ssS'mobley_588781'
p2056
(dp2057
g3
S'CCCCCCc1ccccc1'
p2058
sg25
F0.24
sg26
F0.03
sg7
(lp2059
g28
asg29
S'hexylbenzene'
p2060
sg12
I14109
sg13
F0.6
sg31
F-0.04
sg15
(lp2061
S'aromatic'
p2062
asg36
g37
sg38
g39
ssS'mobley_2354112'
p2063
(dp2064
g3
S'CCc1cccc(c1)O'
p2065
sg25
F-5.02
sg26
F0.03
sg7
(lp2066
g28
asg29
S'3-ethylphenol'
p2067
sg12
I12101
sg13
F0.6
sg31
F-6.25
sg15
(lp2068
S'phenol or hydroxyhetarene'
p2069
aS'aromatic'
p2070
asg36
g37
sg38
g39
ssS'mobley_8772587'
p2071
(dp2072
g3
S'CCCCI'
p2073
sg25
F0.58
sg26
F0.02
sg7
(lp2074
g28
asg29
S'1-iodobutane'
p2075
sg12
I10962
sg13
F0.6
sg31
F-0.25
sg15
(lp2076
S'alkyl iodide'
p2077
asg36
g37
sg38
g39
ssS'mobley_5456566'
p2078
(dp2079
g3
S'c1(c(c(c(c(c1Cl)Cl)Cl)Cl)Cl)c2c(c(c(c(c2Cl)Cl)Cl)Cl)Cl'
p2080
sg212
F0.87
sg213
F0.06
sg7
(lp2081
g28
asg215
S'1,2,3,4,5-pentachloro-6-(2,3,4,5,6-pentachlorophenyl)benzene'
p2082
sg12
I16318
sg217
F1.0
sg218
F-2.98
sg15
(lp2083
S'aryl chloride'
p2084
aS'aromatic'
p2085
asg221
g222
sg223
g224
ssS'mobley_2371092'
p2086
(dp2087
g3
S'Cc1ccncc1C'
p2088
sg25
F-3.18
sg26
F0.02
sg7
(lp2089
g28
asg29
S'3,4-dimethylpyridine'
p2090
sg12
I11417
sg13
F0.6
sg31
F-5.22
sg15
(lp2091
S'aromatic'
p2092
aS'heterocyclic'
p2093
asg36
g37
sg38
g39
ssS'mobley_1328936'
p2094
(dp2095
g3
S'COC(=O)c1ccc(cc1)[N+](=O)[O-]'
p2096
sg25
F-6.39
sg26
F0.03
sg7
(lp2097
g28
asg29
S'methyl 4-nitrobenzoate'
p2098
sg12
I12083
sg13
F0.6
sg31
F-6.88
sg15
(lp2099
S'carboxylic acid ester'
p2100
aS'nitro'
p2101
aS'aromatic'
p2102
asg36
g610
sg38
g39
ssS'mobley_5499659'
p2103
(dp2104
g3
S'Cn1ccnc1'
p2105
sg25
F-6.33
sg26
F0.03
sg7
(lp2106
g28
asg29
S'1-methylimidazole'
p2107
sg12
I1390
sg13
F0.6
sg31
F-8.41
sg15
(lp2108
S'aromatic'
p2109
aS'heterocyclic'
p2110
asg36
g37
sg38
g39
ssS'mobley_2792521'
p2111
(dp2112
g3
S'CCC/C=C/C=O'
p2113
sg25
F-3.22
sg26
F0.02
sg7
(lp2114
S'Renamed mobley_2792521 from hex-2-enal to (E)-hex-2-enal (the name from the 3D structure) since the former did not completely specify stereochemistry.\n'
p2115
aS'Experimental value provided by J. Peter Guthrie, University of Western Ontario, 10/23/2013, as a weighted average of the Buttery et al. and Karl et al. values noted in the experimental reference field.'
p2116
asg29
S'(2E)-hex-2-enal'
p2117
sg12
I5281168
sg13
F0.6
sg31
F-3.68
sg15
(lp2118
S'aldehyde'
p2119
aS'alkene'
p2120
asg36
S'10.1021/jf60178a004 and 10.1016/S1387-3806(02)00927-2'
p2121
sg38
g39
ssS'mobley_9974966'
p2122
(dp2123
g3
S'CC(C)SC(C)C'
p2124
sg25
F0.1
sg26
F0.02
sg7
(lp2125
g28
asg29
S'2-isopropylsulfanylpropane'
p2126
sg12
I12264
sg13
F0.6
sg31
F-1.21
sg15
(lp2127
S'thioether'
p2128
asg36
g37
sg38
g39
ssS'mobley_6733657'
p2129
(dp2130
g3
S'C1[C@H]([C@@H]2[C@H]([C@H]1Cl)[C@]3(C(=C([C@@]2(C3(Cl)Cl)Cl)Cl)Cl)Cl)Cl'
p2131
sg180
F-3.25
sg181
F0.03
sg7
(lp2132
g28
asg183
S'chlordane'
p2133
sg12
I5993
sg185
F0.1
sg186
F-3.44
sg15
(lp2134
S'alkyl chloride'
p2135
aS'alkene'
p2136
asg189
g190
sg191
g192
ssS'mobley_6082662'
p2137
(dp2138
g3
S'c1cc(ccc1N)N(=O)=O'
p2139
sg397
F-10.38
sg398
F0.05
sg7
(lp2140
g28
asg400
S'4-nitroaniline'
p2141
sg12
I7475
sg402
F0.1
sg403
F-9.82
sg15
(lp2142
S'primary amine'
p2143
aS'primary aromatic amine'
p2144
aS'nitro'
p2145
aS'aromatic'
p2146
asg409
g410
sg411
g412
ssS'mobley_2310185'
p2147
(dp2148
g3
S'CCO'
p2149
sg25
F-3.45
sg26
F0.03
sg7
(lp2150
g28
asg29
S'ethanol'
p2151
sg12
I702
sg13
F0.6
sg31
F-5.0
sg15
(lp2152
S'primary alcohol'
p2153
asg36
g37
sg38
g39
ssS'mobley_7099614'
p2154
(dp2155
g3
S'C=CCCl'
p2156
sg25
F0.88
sg26
F0.02
sg7
(lp2157
g28
asg29
S'3-chloroprop-1-ene'
p2158
sg12
I7850
sg13
F0.6
sg31
F-0.57
sg15
(lp2159
S'alkyl chloride'
p2160
aS'alkene'
p2161
asg36
g37
sg38
g39
ssS'mobley_7859387'
p2162
(dp2163
g3
S'CCCCCCC=O'
p2164
sg25
F-2.63
sg26
F0.03
sg7
(lp2165
g28
asg29
S'heptanal'
p2166
sg12
I8130
sg13
F0.6
sg31
F-2.67
sg15
(lp2167
S'aldehyde'
p2168
asg36
g37
sg38
g39
ssS'mobley_63712'
p2169
(dp2170
g3
S'CN1CCCCC1'
p2171
sg25
F-3.21
sg26
F0.02
sg7
(lp2172
g28
asg29
S'1-methylpiperidine'
p2173
sg12
I12291
sg13
F0.6
sg31
F-3.88
sg15
(lp2174
S'tertiary amine'
p2175
aS'tertiary aliphatic amine (trialkylamine)'
p2176
aS'heterocyclic'
p2177
asg36
g37
sg38
g39
ssS'mobley_3060426'
p2178
(dp2179
g3
S'CC(C)CCC(C)(C)C'
p2180
sg25
F2.86
sg26
F0.03
sg7
(lp2181
g28
asg29
S'2,2,5-trimethylhexane'
p2182
sg12
I19041
sg13
F0.6
sg31
F2.93
sg15
(lp2183
g63
asg36
g37
sg38
g39
ssS'mobley_7360181'
p2184
(dp2185
g3
S'COC(C(F)(F)F)(OC)OC'
p2186
sg397
F-2.37
sg398
F0.05
sg7
(lp2187
g28
aS'Changed IUPAC name from trimethyl orthotrifluoroacetate to 1,1,1-trifluoro-2,2,2-trimethoxyethane for better handling/standardization.'
p2188
asg400
S'1,1,1-trifluoro-2,2,2-trimethoxyethane'
p2189
sg12
I18927701
sg402
F0.2
sg403
F-0.8
sg15
(lp2190
S'halogen derivative'
p2191
aS'orthocarboxylic acid derivative'
p2192
aS'orthoester'
p2193
asg409
g410
sg411
g412
ssS'mobley_5282042'
p2194
(dp2195
g3
S'CN(C)CCC=C1c2ccccc2CCc3c1cccc3'
p2196
sg480
F-8.28
sg481
F0.031
sg7
(lp2197
g28
asg484
S'Amitriptyline'
p2198
sg12
I2160
sg486
F0.6
sg497
F-7.43
sg15
(lp2199
S'tertiary amine'
p2200
aS'tertiary aliphatic amine (trialkylamine)'
p2201
aS'alkene'
p2202
aS'aromatic'
p2203
asg503
g504
sg505
g506
ssS'mobley_2607611'
p2204
(dp2205
g3
S'CCCCCCOC(=O)C'
p2206
sg25
F-2.97
sg26
F0.03
sg7
(lp2207
g28
asg29
S'hexyl acetate'
p2208
sg12
I8908
sg13
F0.6
sg31
F-2.26
sg15
(lp2209
S'carboxylic acid ester'
p2210
asg36
g37
sg38
g39
ssS'mobley_1036761'
p2211
(dp2212
g3
S'C1CCC(CC1)N'
p2213
sg25
F-3.94
sg26
F0.02
sg7
(lp2214
g28
asg29
S'cyclohexanamine'
p2215
sg12
I7965
sg13
F0.6
sg31
F-4.59
sg15
(lp2216
S'primary amine'
p2217
aS'primary aliphatic amine (alkylamine)'
p2218
asg36
g37
sg38
g39
ssS'mobley_4893032'
p2219
(dp2220
g3
S'CCCCC#N'
p2221
sg25
F-2.16
sg26
F0.02
sg7
(lp2222
g28
asg29
S'pentanenitrile'
p2223
sg12
I8061
sg13
F0.6
sg31
F-3.52
sg15
(lp2224
S'carbonitrile'
p2225
asg36
g37
sg38
g39
ssS'mobley_8558116'
p2226
(dp2227
g3
S'CN1CCOCC1'
p2228
sg25
F-5.87
sg26
F0.03
sg7
(lp2229
g28
asg29
S'4-methylmorpholine'
p2230
sg12
I7972
sg13
F0.6
sg31
F-6.32
sg15
(lp2231
S'dialkyl ether'
p2232
aS'tertiary amine'
p2233
aS'tertiary aliphatic amine (trialkylamine)'
p2234
aS'heterocyclic'
p2235
asg36
g37
sg38
g39
ssS'mobley_5518547'
p2236
(dp2237
g3
S'Cc1ccc(cc1)N'
p2238
sg25
F-5.56
sg26
F0.03
sg7
(lp2239
g28
asg29
S'4-methylaniline'
p2240
sg12
I7813
sg13
F0.6
sg31
F-5.57
sg15
(lp2241
S'primary amine'
p2242
aS'primary aromatic amine'
p2243
aS'aromatic'
p2244
asg36
g37
sg38
g39
ssS'mobley_3378420'
p2245
(dp2246
g3
S'CCCCCCCCCO'
p2247
sg25
F-2.54
sg26
F0.03
sg7
(lp2248
g28
asg29
S'nonan-1-ol'
p2249
sg12
I8914
sg13
F0.6
sg31
F-3.88
sg15
(lp2250
S'primary alcohol'
p2251
asg36
g37
sg38
g39
ssS'mobley_9794857'
p2252
(dp2253
g3
S'CC(C)(C)OC'
p2254
sg25
F-0.68
sg26
F0.02
sg7
(lp2255
g28
asg29
S'2-methoxy-2-methyl-propane'
p2256
sg12
I15413
sg13
F0.6
sg31
F-2.21
sg15
(lp2257
S'dialkyl ether'
p2258
asg36
g1341
sg38
g39
ssS'mobley_6456034'
p2259
(dp2260
g3
S'CC(C)COC(=O)C(C)C'
p2261
sg25
F-2.55
sg26
F0.03
sg7
(lp2262
g28
asg29
S'isobutyl 2-methylpropanoate'
p2263
sg12
I7351
sg13
F0.6
sg31
F-1.69
sg15
(lp2264
S'carboxylic acid ester'
p2265
asg36
g37
sg38
g39
ssS'mobley_3573480'
p2266
(dp2267
g3
S'CCCCCC(=O)C'
p2268
sg25
F-2.8
sg26
F0.02
sg7
(lp2269
g28
asg29
S'heptan-2-one'
p2270
sg12
I8051
sg13
F0.6
sg31
F-3.04
sg15
(lp2271
S'ketone'
p2272
asg36
g37
sg38
g39
ssS'mobley_676247'
p2273
(dp2274
g3
S'C(F)(F)(F)F'
p2275
sg25
F2.42
sg26
F0.01
sg7
(lp2276
g28
asg29
S'tetrafluoromethane'
p2277
sg12
I6393
sg13
F0.6
sg31
F3.12
sg15
(lp2278
S'halogen derivative'
p2279
asg36
g37
sg38
g39
ssS'mobley_5760563'
p2280
(dp2281
g3
S'COS(=O)(=O)OC'
p2282
sg25
F-7.85
sg26
F0.02
sg7
(lp2283
g28
asg29
S'dimethyl sulfate'
p2284
sg12
I6497
sg13
F0.6
sg31
F-5.1
sg15
(lp2285
S'sulfuric acid diester'
p2286
asg36
S'10.1139/v78-385'
p2287
sg38
g39
ssS'mobley_8754702'
p2288
(dp2289
g3
S'CCCOC=O'
p2290
sg25
F-3.5
sg26
F0.02
sg7
(lp2291
g28
asg29
S'propyl formate'
p2292
sg12
I8073
sg13
F0.6
sg31
F-2.48
sg15
(lp2293
S'carboxylic acid ester'
p2294
asg36
g37
sg38
g39
ssS'mobley_1424265'
p2295
(dp2296
g3
S'Cc1cccc(c1)C'
p2297
sg25
F-0.17
sg26
F0.02
sg7
(lp2298
g28
asg29
S'm-xylene'
p2299
sg12
I7929
sg13
F0.6
sg31
F-0.83
sg15
(lp2300
S'aromatic'
p2301
asg36
g37
sg38
g39
ssS'mobley_3169935'
p2302
(dp2303
g3
S'c1ccc(c(c1)N)Cl'
p2304
sg25
F-4.96
sg26
F0.03
sg7
(lp2305
g28
asg29
S'2-chloroaniline'
p2306
sg12
I7240
sg13
F0.6
sg31
F-4.91
sg15
(lp2307
S'primary amine'
p2308
aS'primary aromatic amine'
p2309
aS'aryl chloride'
p2310
aS'aromatic'
p2311
asg36
g37
sg38
g39
ssS'mobley_5311804'
p2312
(dp2313
g3
S'c1ccc(cc1)CO'
p2314
sg25
F-5.41
sg26
F0.03
sg7
(lp2315
g28
asg29
S'phenylmethanol'
p2316
sg12
I244
sg13
F0.6
sg31
F-6.62
sg15
(lp2317
S'primary alcohol'
p2318
aS'aromatic'
p2319
asg36
g37
sg38
g39
ssS'mobley_6115639'
p2320
(dp2321
g3
S'COP(=O)(OC)OC'
p2322
sg397
F-11.36
sg398
F0.06
sg7
(lp2323
g28
asg400
S'trimethyl phosphate'
p2324
sg12
I10541
sg402
F0.1
sg403
F-8.7
sg15
(lp2325
S'phosphoric acid ester'
p2326
asg409
g410
sg411
g412
ssS'mobley_6714389'
p2327
(dp2328
g3
S'CN'
p2329
sg25
F-3.44
sg26
F0.01
sg7
(lp2330
g28
asg29
S'methanamine'
p2331
sg12
I6329
sg13
F0.6
sg31
F-4.55
sg15
(lp2332
S'primary amine'
p2333
aS'primary aliphatic amine (alkylamine)'
p2334
asg36
g37
sg38
g39
ssS'mobley_9015240'
p2335
(dp2336
g3
S'CCCCCCCCBr'
p2337
sg25
F1.92
sg26
F0.03
sg7
(lp2338
g28
asg29
S'1-bromooctane'
p2339
sg12
I8140
sg13
F0.6
sg31
F0.52
sg15
(lp2340
S'alkyl bromide'
p2341
asg36
g37
sg38
g39
ssS'mobley_1417007'
p2342
(dp2343
g3
S'C1C=CC[C@@H]2[C@@H]1C(=O)N(C2=O)SC(Cl)(Cl)Cl'
p2344
sg180
F-8.71
sg181
F0.04
sg7
(lp2345
S'Renamed mobley_1417007 from captan to (3aR,7aR)-2-(trichloromethylsulfanyl)-3a,4,7,7a-tetrahydroisoindole-1,3-dione (the name from the 3D structure) since the former did not completely specify stereochemistry.\n'
p2346
asg183
S'captan'
p2347
sg12
I8606
sg185
F1.93
sg186
F-9.01
sg15
(lp2348
S'halogen derivative'
p2349
aS'carboxylic acid imide, N-substituted'
p2350
aS'alkene'
p2351
aS'heterocyclic'
p2352
asg189
g190
sg191
g192
ssS'mobley_2681549'
p2353
(dp2354
g3
S'c1c(cc(cc1Cl)Cl)Cl'
p2355
sg25
F0.45
sg26
F0.02
sg7
(lp2356
g28
asg29
S'1,3,5-trichlorobenzene'
p2357
sg12
I7950
sg13
F0.6
sg31
F-0.78
sg15
(lp2358
S'aryl chloride'
p2359
aS'aromatic'
p2360
asg36
g37
sg38
g39
ssS'mobley_4287564'
p2361
(dp2362
g3
S'Cc1ccccn1'
p2363
sg25
F-3.41
sg26
F0.02
sg7
(lp2364
g28
asg29
S'2-methylpyridine'
p2365
sg12
I7975
sg13
F0.6
sg31
F-4.63
sg15
(lp2366
S'aromatic'
p2367
aS'heterocyclic'
p2368
asg36
g37
sg38
g39
ssS'mobley_2043882'
p2369
(dp2370
g3
S'CC(=O)C1CCCCC1'
p2371
sg25
F-3.9
sg26
F0.02
sg7
(lp2372
g28
asg29
S'1-cyclohexylethanone'
p2373
sg12
I13207
sg13
F0.6
sg31
F-3.9
sg15
(lp2374
S'ketone'
p2375
asg36
g37
sg38
g39
ssS'mobley_352111'
p2376
(dp2377
g3
S'CC(=O)OCCOC(=O)C'
p2378
sg25
F-8.32
sg26
F0.04
sg7
(lp2379
g28
asg29
S'2-acetoxyethyl acetate'
p2380
sg12
I8121
sg13
F0.6
sg31
F-6.34
sg15
(lp2381
S'carboxylic acid ester'
p2382
asg36
g37
sg38
g39
ssS'mobley_3686115'
p2383
(dp2384
g3
S'CCOC(C)OCC'
p2385
sg1214
F-1.89
sg1215
F0.08
sg1216
(lp2386
g1218
ag28
ag167
asg1219
S'1,1-diethoxyethane'
p2387
sg12
I7765
sg13
F0.2
sg1221
F-3.28
sg15
(lp2388
S'acetal'
p2389
asg1224
g1225
sg1226
g1225
ssS'mobley_8337722'
p2390
(dp2391
g3
S'C[C@@H]1CC[C@H]([C@@H](C1)O)C(C)C'
p2392
sg480
F-3.39
sg481
F0.021
sg7
(lp2393
g28
asg484
S'(1R,2S,5R)-2-isopropyl-5-methylcyclohexanol'
p2394
sg12
I16666
sg486
F0.28
sg497
F-3.2
sg15
(lp2395
S'secondary alcohol'
p2396
asg503
g504
sg505
g506
ssS'mobley_7326706'
p2397
(dp2398
g3
S'CCOP(=S)(OCC)Oc1c(cc(c(n1)Cl)Cl)Cl'
p2399
sg180
F-9.05
sg181
F0.04
sg7
(lp2400
g28
asg183
S'chlorpyrifos'
p2401
sg12
I2730
sg185
F0.21
sg186
F-5.04
sg15
(lp2402
S'aryl chloride'
p2403
aS'thiophosphoric acid ester'
p2404
aS'aromatic'
p2405
aS'heterocyclic'
p2406
asg189
g190
sg191
g192
ssS'mobley_3144334'
p2407
(dp2408
g3
S'Cc1ccc(c(c1)O)C'
p2409
sg25
F-4.39
sg26
F0.03
sg7
(lp2410
g28
asg29
S'2,5-dimethylphenol'
p2411
sg12
I7267
sg13
F0.6
sg31
F-5.91
sg15
(lp2412
S'phenol or hydroxyhetarene'
p2413
aS'aromatic'
p2414
asg36
g37
sg38
g39
ssS'mobley_7608462'
p2415
(dp2416
g3
S'c1ccc(cc1)Cl'
p2417
sg25
F-0.6
sg26
F0.02
sg7
(lp2418
g28
asg29
S'chlorobenzene'
p2419
sg12
I7964
sg13
F0.6
sg31
F-1.12
sg15
(lp2420
S'aryl chloride'
p2421
aS'aromatic'
p2422
asg36
g37
sg38
g39
ssS'mobley_2078467'
p2423
(dp2424
g3
S'C[C@@H](c1ccc(cc1)CC(C)C)C(=O)O'
p2425
sg397
F-6.91
sg398
F0.07
sg7
(lp2426
g28
asg400
S'ibuprofen'
p2427
sg12
I3672
sg402
F0.64
sg403
F-7.0
sg15
(lp2428
S'carboxylic acid'
p2429
aS'aromatic'
p2430
asg409
g410
sg411
g412
ssS'mobley_5973402'
p2431
(dp2432
g3
S'CC(C)CCO'
p2433
sg25
F-2.92
sg26
F0.03
sg7
(lp2434
g28
asg29
S'3-methylbutan-1-ol'
p2435
sg12
I31260
sg13
F0.6
sg31
F-4.42
sg15
(lp2436
S'primary alcohol'
p2437
asg36
g37
sg38
g39
ssS'mobley_6353617'
p2438
(dp2439
g3
S'CC(=O)c1cccnc1'
p2440
sg25
F-7.1
sg26
F0.03
sg7
(lp2441
g28
asg29
S'1-(3-pyridyl)ethanone'
p2442
sg12
I9589
sg13
F0.6
sg31
F-8.26
sg15
(lp2443
S'ketone'
p2444
aS'aromatic'
p2445
aS'heterocyclic'
p2446
asg36
g37
sg38
g39
ssS'mobley_2261979'
p2447
(dp2448
g3
S'c1cc2cccc3c2c(c1)CC3'
p2449
sg25
F-3.51
sg26
F0.03
sg7
(lp2450
g28
asg29
S'acenaphthene'
p2451
sg12
I6734
sg13
F0.6
sg31
F-3.15
sg15
(lp2452
S'aromatic'
p2453
asg36
g37
sg38
g39
ssS'mobley_4715906'
p2454
(dp2455
g3
S'C[C@@H]1CCCC[C@@H]1C'
p2456
sg25
F2.05
sg26
F0.02
sg7
(lp2457
S'Renamed mobley_4715906 from 1,2-dimethylcyclohexane to (1R,2S)-1,2-dimethylcyclohexane (the name from the 3D structure) since the former did not completely specify stereochemistry.\n'
p2458
asg29
S'1,2-dimethylcyclohexane'
p2459
sg12
I11416
sg13
F0.6
sg31
F1.58
sg15
(lp2460
g63
asg36
g37
sg38
g39
ssS'mobley_5952846'
p2461
(dp2462
g3
S'C(=C(Cl)Cl)(Cl)Cl'
p2463
sg25
F1.41
sg26
F0.02
sg7
(lp2464
g28
asg29
S'1,1,2,2-tetrachloroethylene'
p2465
sg12
I31373
sg13
F0.6
sg31
F0.1
sg15
(lp2466
S'halogen derivative'
p2467
asg36
g37
sg38
g39
ssS'mobley_1903702'
p2468
(dp2469
g3
S'CC[C@H](C)O'
p2470
sg25
F-3.12
sg26
F0.03
sg7
(lp2471
S'Renamed mobley_1903702 from butan-2-ol to (2S)-butan-2-ol (the name from the 3D structure) since the former did not completely specify stereochemistry.\n'
p2472
asg29
S'butan-2-ol'
p2473
sg12
I6568
sg13
F0.6
sg31
F-4.62
sg15
(lp2474
S'secondary alcohol'
p2475
asg36
g37
sg38
g39
ssS'mobley_5220185'
p2476
(dp2477
g3
S'CCc1cnccn1'
p2478
sg25
F-5.68
sg26
F0.03
sg7
(lp2479
g28
asg29
S'2-ethylpyrazine'
p2480
sg12
I26331
sg13
F0.6
sg31
F-5.45
sg15
(lp2481
S'aromatic'
p2482
aS'heterocyclic'
p2483
asg36
g37
sg38
g39
ssS'mobley_5510474'
p2484
(dp2485
g3
S'c1ccc2c(c1)Oc3c(c(c(c(c3Cl)Cl)Cl)Cl)O2'
p2486
sg212
F-2.7
sg213
F0.03
sg7
(lp2487
g28
asg215
S'1,2,3,4-tetrachlorodibenzo-p-dioxin'
p2488
sg12
I35454
sg217
F0.14
sg218
F-3.81
sg15
(lp2489
S'diaryl ether'
p2490
aS'aryl chloride'
p2491
aS'aromatic'
p2492
aS'heterocyclic'
p2493
asg221
g222
sg223
g224
ssS'mobley_3980099'
p2494
(dp2495
g3
S'c1cc(c(c(c1)Cl)Cl)Cl'
p2496
sg25
F-0.38
sg26
F0.02
sg7
(lp2497
g28
asg29
S'1,2,3-trichlorobenzene'
p2498
sg12
I6895
sg13
F0.6
sg31
F-1.24
sg15
(lp2499
S'aryl chloride'
p2500
aS'aromatic'
p2501
asg36
g37
sg38
g39
ssS'mobley_2501588'
p2502
(dp2503
g3
S'CCC[N@@](CC1CC1)c2c(cc(cc2[N+](=O)[O-])C(F)(F)F)[N+](=O)[O-]'
p2504
sg180
F-1.81
sg181
F0.04
sg7
(lp2505
g28
asg183
S'profluralin'
p2506
sg12
I33500
sg185
F1.37
sg186
F-2.45
sg15
(lp2507
S'tertiary amine'
p2508
aS'tertiary aliphatic/aromatic amine (alkylarylamine)'
p2509
aS'halogen derivative'
p2510
aS'nitro'
p2511
aS'aromatic'
p2512
asg189
g190
sg191
g192
ssS'mobley_3968739'
p2513
(dp2514
g3
S'COC(=O)c1ccccc1'
p2515
sg25
F-5.06
sg26
F0.03
sg7
(lp2516
g28
asg29
S'methyl benzoate'
p2517
sg12
I7150
sg13
F0.6
sg31
F-3.92
sg15
(lp2518
S'carboxylic acid ester'
p2519
aS'aromatic'
p2520
asg36
g37
sg38
g39
ssS'mobley_9897248'
p2521
(dp2522
g3
S'CC(=CCC/C(=C\\CO)/C)C'
p2523
sg480
F-2.64
sg481
F0.022
sg7
(lp2524
g28
aS'Former IUPAC name Nerol replaced with one generated from the 3D structure, (2Z)-3,7-dimethylocta-2,6-dien-1-ol'
p2525
asg484
S'(2Z)-3,7-dimethylocta-2,6-dien-1-ol'
p2526
sg12
I643820
sg486
g487
(g491
S'\x00\x00\x00\x00\x00\x00\xd0?'
p2527
tp2528
Rp2529
sg497
g487
(g491
S'\x1f\x85\xebQ\xb8\x1e\x13\xc0'
p2530
tp2531
Rp2532
sg15
(lp2533
S'primary alcohol'
p2534
aS'alkene'
p2535
asg503
g504
sg505
g506
ssS'mobley_3727287'
p2536
(dp2537
g3
S'C1=CC(=O)C=CC1=O'
p2538
sg5
F-6.9
sg6
F0.1
sg7
(lp2539
g9
asg10
S'quinone'
p2540
sg12
I4650
sg13
F0.2
sg14
F-6.5
sg15
(lp2541
S'ketone'
p2542
aS'alkene'
p2543
asg18
g19
sg20
g21
ssS'mobley_4924862'
p2544
(dp2545
g3
S'CC(C)CCOC=O'
p2546
sg25
F-3.39
sg26
F0.02
sg7
(lp2547
g28
asg29
S'isopentyl formate'
p2548
sg12
I8052
sg13
F0.6
sg31
F-2.13
sg15
(lp2549
S'carboxylic acid ester'
p2550
asg36
g37
sg38
g39
ssS'mobley_6620221'
p2551
(dp2552
g3
S'CC1(Cc2cccc(c2O1)OC(=O)NC)C'
p2553
sg180
F-11.21
sg181
F0.04
sg7
(lp2554
g28
asg183
S'carbofuran'
p2555
sg12
I2566
sg185
F0.3
sg186
F-9.61
sg15
(lp2556
S'alkyl aryl ether'
p2557
aS'carbamic acid ester (urethane)'
p2558
aS'aromatic'
p2559
aS'heterocyclic'
p2560
asg189
g190
sg191
g192
ssS'mobley_3370989'
p2561
(dp2562
g3
S'CC(F)F'
p2563
sg25
F0.19
sg26
F0.02
sg7
(lp2564
g28
asg29
S'1,1-difluoroethane'
p2565
sg12
I6368
sg13
F0.6
sg31
F-0.11
sg15
(lp2566
S'alkyl fluoride'
p2567
asg36
g37
sg38
g39
ssS'mobley_6232400'
p2568
(dp2569
g3
S'c1cc(cnc1)C=O'
p2570
sg25
F-7.64
sg26
F0.03
sg7
(lp2571
g28
asg29
S'pyridine-3-carbaldehyde'
p2572
sg12
I10371
sg13
F0.6
sg31
F-7.1
sg15
(lp2573
S'aldehyde'
p2574
aS'aromatic'
p2575
aS'heterocyclic'
p2576
asg36
g37
sg38
g39
ssS'mobley_5056289'
p2577
(dp2578
g3
S'C[C@H]1CCCO1'
p2579
sg25
F-1.95
sg26
F0.02
sg7
(lp2580
S'Renamed mobley_5056289 from 2-methyltetrahydrofuran to (2S)-2-methyltetrahydrofuran (the name from the 3D structure) since the former did not completely specify stereochemistry.\n'
p2581
asg29
S'2-methyltetrahydrofuran'
p2582
sg12
I7301
sg13
F0.6
sg31
F-3.3
sg15
(lp2583
S'dialkyl ether'
p2584
aS'heterocyclic'
p2585
asg36
g37
sg38
g39
ssS'mobley_6358463'
p2586
(dp2587
g3
S'c1ccc(c(c1)C(F)(F)F)C(F)(F)F'
p2588
sg25
F-1.58
sg26
F0.03
sg7
(lp2589
g28
asg29
S'1,2-bis(trifluoromethyl)benzene'
p2590
sg12
I9818
sg13
F0.6
sg31
F1.07
sg15
(lp2591
S'halogen derivative'
p2592
aS'aromatic'
p2593
asg36
g37
sg38
g39
ssS'mobley_1261349'
p2594
(dp2595
g3
S'CC(C)(C)C'
p2596
sg25
F2.6
sg26
F0.02
sg7
(lp2597
g28
asg29
S'neopentane'
p2598
sg12
I10041
sg13
F0.6
sg31
F2.51
sg15
(lp2599
g63
asg36
g37
sg38
g39
ssS'mobley_1363784'
p2600
(dp2601
g3
S'Cc1cc(cnc1)C'
p2602
sg25
F-2.94
sg26
F0.02
sg7
(lp2603
g28
asg29
S'3,5-dimethylpyridine'
p2604
sg12
I11565
sg13
F0.6
sg31
F-4.84
sg15
(lp2605
S'aromatic'
p2606
aS'heterocyclic'
p2607
asg36
g37
sg38
g39
ssS'mobley_628086'
p2608
(dp2609
g3
S'C[C@@H](C(F)(F)F)O'
p2610
sg25
F-3.56
sg26
F0.03
sg7
(lp2611
S'Renamed mobley_628086 from 1,1,1-trifluoropropan-2-ol to (2S)-1,1,1-trifluoropropan-2-ol (the name from the 3D structure) since the former did not completely specify stereochemistry.\n'
p2612
asg29
S'1,1,1-trifluoropropan-2-ol'
p2613
sg12
I9774
sg13
F0.6
sg31
F-4.16
sg15
(lp2614
S'secondary alcohol'
p2615
aS'halogen derivative'
p2616
asg36
g37
sg38
g39
ssS'mobley_7599023'
p2617
(dp2618
g3
S'c1ccc(cc1)Br'
p2619
sg25
F-0.37
sg26
F0.02
sg7
(lp2620
g28
asg29
S'bromobenzene'
p2621
sg12
I7961
sg13
F0.6
sg31
F-1.46
sg15
(lp2622
S'aryl bromide'
p2623
aS'aromatic'
p2624
asg36
g37
sg38
g39
ssS'mobley_7039935'
p2625
(dp2626
g3
S'c1ccc2c(c1)cccc2O'
p2627
sg25
F-7.51
sg26
F0.03
sg7
(lp2628
g28
asg29
S'naphthalen-1-ol'
p2629
sg12
I7005
sg13
F0.6
sg31
F-7.67
sg15
(lp2630
S'phenol or hydroxyhetarene'
p2631
aS'aromatic'
p2632
asg36
g37
sg38
g39
ssS'mobley_1662128'
p2633
(dp2634
g3
S'CCC=C'
p2635
sg25
F2.48
sg26
F0.02
sg7
(lp2636
g28
asg29
S'but-1-ene'
p2637
sg12
I7844
sg13
F0.6
sg31
F1.38
sg15
(lp2638
S'alkene'
p2639
asg36
g37
sg38
g39
ssS'mobley_9510785'
p2640
(dp2641
g3
S'c1ccc(cc1)c2cc(c(c(c2Cl)Cl)Cl)Cl'
p2642
sg212
F-1.34
sg213
F0.03
sg7
(lp2643
g28
asg215
S'1,2,3,4-tetrachloro-5-phenyl-benzene'
p2644
sg12
I36401
sg217
F1.0
sg218
F-3.48
sg15
(lp2645
S'aryl chloride'
p2646
aS'aromatic'
p2647
asg221
g222
sg223
g224
ssS'mobley_4465023'
p2648
(dp2649
g3
S'C(=C\\Cl)\\Cl'
p2650
sg25
F0.31
sg26
F0.02
sg7
(lp2651
S'Renamed mobley_4465023 from (Z)-1,2-dichloroethylene to (Z)-1,2-dichloroethylene (the name from the 3D structure) since the former did not completely specify stereochemistry.\n'
p2652
asg29
S'(Z)-1,2-dichloroethylene'
p2653
sg12
I643833
sg13
F0.6
sg31
F-1.17
sg15
(lp2654
S'halogen derivative'
p2655
aS'alkene'
p2656
asg36
g37
sg38
g39
ssS'mobley_4364398'
p2657
(dp2658
g3
S'CI'
p2659
sg25
F0.03
sg26
F0.01
sg7
(lp2660
g28
asg29
S'iodomethane'
p2661
sg12
I6328
sg13
F0.6
sg31
F-0.89
sg15
(lp2662
S'alkyl iodide'
p2663
asg36
g37
sg38
g39
ssS'mobley_6917738'
p2664
(dp2665
g3
S'COCCN'
p2666
sg25
F-5.62
sg26
F0.03
sg7
(lp2667
g28
asg29
S'2-methoxyethanamine'
p2668
sg12
I8018
sg13
F0.6
sg31
F-6.55
sg15
(lp2669
S'dialkyl ether'
p2670
aS'primary amine'
p2671
aS'primary aliphatic amine (alkylamine)'
p2672
asg36
g37
sg38
g39
ssS'mobley_7943327'
p2673
(dp2674
g3
S'CCC(=O)OCC'
p2675
sg25
F-3.39
sg26
F0.02
sg7
(lp2676
g28
asg29
S'ethyl propanoate'
p2677
sg12
I7749
sg13
F0.6
sg31
F-2.68
sg15
(lp2678
S'carboxylic acid ester'
p2679
asg36
g37
sg38
g39
ssS'mobley_8118832'
p2680
(dp2681
g3
S'C=CCO'
p2682
sg25
F-3.23
sg26
F0.03
sg7
(lp2683
g28
asg29
S'prop-2-en-1-ol'
p2684
sg12
I7858
sg13
F0.6
sg31
F-5.03
sg15
(lp2685
S'primary alcohol'
p2686
aS'alkene'
p2687
asg36
g37
sg38
g39
ssS'mobley_5076071'
p2688
(dp2689
g3
S'CCN(CC)c1c(cc(c(c1[N+](=O)[O-])N)C(F)(F)F)[N+](=O)[O-]'
p2690
sg180
F-7.42
sg181
F0.04
sg7
(lp2691
g28
aS'Changed IUPAC name from dinitramine to 1-N,1-N-diethyl-2,6-dinitro-4-(trifluoromethyl)benzene-1,3-diamine for better handling/standardization.'
p2692
asg183
S'1-N,1-N-diethyl-2,6-dinitro-4-(trifluoromethyl)benzene-1,3-diamine'
p2693
sg12
I34468
sg185
F1.93
sg186
F-5.66
sg15
(lp2694
S'primary amine'
p2695
aS'primary aromatic amine'
p2696
aS'tertiary amine'
p2697
aS'tertiary aliphatic/aromatic amine (alkylarylamine)'
p2698
aS'halogen derivative'
p2699
aS'nitro'
p2700
aS'aromatic'
p2701
asg189
g190
sg191
g192
ssS'mobley_20524'
p2702
(dp2703
g3
S'c1ccc(cc1)O'
p2704
sg5
F-4.6
sg6
F0.1
sg7
(lp2705
g9
asg10
S'phenol'
p2706
sg12
I996
sg13
F0.2
sg14
F-6.6
sg15
(lp2707
S'phenol or hydroxyhetarene'
p2708
aS'aromatic'
p2709
asg18
g19
sg20
g21
ssS'mobley_7378987'
p2710
(dp2711
g3
S'Cn1cnc2c1c(=O)n(c(=O)n2C)C'
p2712
sg397
F-17.57
sg398
F0.07
sg7
(lp2713
g28
asg400
S'caffeine'
p2714
sg12
I2519
sg402
F0.74
sg403
F-12.64
sg15
(lp2715
S'oxo(het)arene'
p2716
aS'aromatic'
p2717
aS'heterocyclic'
p2718
asg409
g410
sg411
g412
ssS'mobley_7227357'
p2719
(dp2720
g3
S'CCC(CC)O'
p2721
sg25
F-2.95
sg26
F0.02
sg7
(lp2722
g28
asg29
S'pentan-3-ol'
p2723
sg12
I11428
sg13
F0.6
sg31
F-4.35
sg15
(lp2724
S'secondary alcohol'
p2725
asg36
g37
sg38
g39
ssS'mobley_9139060'
p2726
(dp2727
g3
S'CC1CCC(CC1)C'
p2728
sg25
F2.05
sg26
F0.02
sg7
(lp2729
g28
asg29
S'1,4-dimethylcyclohexane'
p2730
sg12
I11523
sg13
F0.6
sg31
F2.11
sg15
(lp2731
g63
asg36
g37
sg38
g39
ssS'mobley_2996632'
p2732
(dp2733
g3
S'C(Cl)(Cl)Cl'
p2734
sg25
F0.32
sg26
F0.02
sg7
(lp2735
g28
asg29
S'chloroform'
p2736
sg12
I6212
sg13
F0.6
sg31
F-1.08
sg15
(lp2737
S'halogen derivative'
p2738
asg36
g37
sg38
g39
ssS'mobley_9073553'
p2739
(dp2740
g3
S'CSC'
p2741
sg25
F0.26
sg26
F0.02
sg7
(lp2742
g28
asg29
S'methylsulfanylmethane'
p2743
sg12
I1068
sg13
F0.6
sg31
F-1.61
sg15
(lp2744
S'thioether'
p2745
asg36
g37
sg38
g39
ssS'mobley_397645'
p2746
(dp2747
g3
S'CCOC(=O)c1ccccc1'
p2748
sg25
F-4.68
sg26
F0.02
sg7
(lp2749
g28
asg29
S'ethyl benzoate'
p2750
sg12
I7165
sg13
F0.6
sg31
F-3.64
sg15
(lp2751
S'carboxylic acid ester'
p2752
aS'aromatic'
p2753
asg36
g37
sg38
g39
ssS'mobley_2518989'
p2754
(dp2755
g3
S'CCOP(=S)(OCC)S[C@@H](CCl)N1C(=O)c2ccccc2C1=O'
p2756
sg180
F-15.1
sg181
F0.06
sg7
(lp2757
S'Renamed mobley_2518989 from 2-(2-chloro-1-diethoxyphosphinothioylsulfanylethyl)isoindole-1,3-dione to 2-[(1S)-2-chloro-1-diethoxyphosphinothioylsulfanyl-ethyl]isoindoline-1,3-dione (the name from the 3D structure) since the former did not completely specify stereochemistry.\n'
p2758
asg183
S'dialifor'
p2759
sg12
I25146
sg185
F1.93
sg186
F-5.74
sg15
(lp2760
S'alkyl chloride'
p2761
aS'carboxylic acid imide, N-substituted'
p2762
aS'thiophosphoric acid ester'
p2763
aS'aromatic'
p2764
aS'heterocyclic'
p2765
asg189
g190
sg191
g192
ssS'mobley_3047364'
p2766
(dp2767
g3
S'CCNc1nc(nc(n1)SC)NC(C)C'
p2768
sg180
F-9.24
sg181
F0.04
sg7
(lp2769
g28
aS'Changed IUPAC name from ametryn to 2-N-ethyl-6-(methylsulfanyl)-4-N-(propan-2-yl)-1,3,5-triazine-2,4-diamine for better handling/standardization.'
p2770
asg183
S'2-N-ethyl-6-(methylsulfanyl)-4-N-(propan-2-yl)-1,3,5-triazine-2,4-diamine'
p2771
sg12
I13263
sg185
F0.45
sg186
F-7.65
sg15
(lp2772
S'thioether'
p2773
aS'secondary amine'
p2774
aS'secondary aliphatic/aromatic amine (alkylarylamine)'
p2775
aS'aromatic'
p2776
aS'heterocyclic'
p2777
asg189
g190
sg191
g192
ssS'mobley_5857'
p2778
(dp2779
g3
S'c1ccc2c(c1)cccn2'
p2780
sg25
F-4.87
sg26
F0.02
sg7
(lp2781
g28
asg29
S'quinoline'
p2782
sg12
I7047
sg13
F0.6
sg31
F-5.72
sg15
(lp2783
S'aromatic'
p2784
aS'heterocyclic'
p2785
asg36
g37
sg38
g39
ssS'mobley_197466'
p2786
(dp2787
g3
S'CC(=O)C1CC1'
p2788
sg25
F-3.74
sg26
F0.02
sg7
(lp2789
g28
asg29
S'1-cyclopropylethanone'
p2790
sg12
I13004
sg13
F0.6
sg31
F-4.61
sg15
(lp2791
S'ketone'
p2792
asg36
g37
sg38
g39
ssS'mobley_2068538'
p2793
(dp2794
g3
S'CCC'
p2795
sg5
F2.4
sg6
F0.1
sg7
(lp2796
g9
asg10
S'propane'
p2797
sg12
I6334
sg13
F0.2
sg14
F2.0
sg15
(lp2798
g63
asg18
g19
sg20
g21
ssS'mobley_967099'
p2799
(dp2800
g3
S'CC(C)[N+](=O)[O-]'
p2801
sg25
F-1.61
sg26
F0.02
sg7
(lp2802
g28
asg29
S'2-nitropropane'
p2803
sg12
I398
sg13
F0.6
sg31
F-3.13
sg15
(lp2804
S'nitro'
p2805
asg36
g37
sg38
g39
ssS'mobley_1792062'
p2806
(dp2807
g3
S'C(CBr)Br'
p2808
sg25
F0.19
sg26
F0.02
sg7
(lp2809
g28
asg29
S'1,2-dibromoethane'
p2810
sg12
I7839
sg13
F0.6
sg31
F-2.33
sg15
(lp2811
S'alkyl bromide'
p2812
asg36
g37
sg38
g39
ssS'mobley_7203421'
p2813
(dp2814
g3
S'CCCCCC(=O)N'
p2815
sg25
F-8.14
sg26
F0.03
sg7
(lp2816
g28
asg29
S'hexanamide'
p2817
sg12
I12332
sg13
F0.6
sg31
F-9.31
sg15
(lp2818
S'primary carboxylic acid amide'
p2819
asg36
g37
sg38
g39
ssS'mobley_7912193'
p2820
(dp2821
g3
S'CCCCOC(=O)c1ccc(cc1)O'
p2822
sg397
F-9.19
sg398
F0.06
sg7
(lp2823
g28
asg400
S'butyl paraben'
p2824
sg12
I7184
sg402
F0.27
sg403
F-8.72
sg15
(lp2825
S'phenol or hydroxyhetarene'
p2826
aS'carboxylic acid ester'
p2827
aS'aromatic'
p2828
asg409
g410
sg411
g412
ssS'mobley_7200804'
p2829
(dp2830
g3
S'c1ccc(c(c1)O)F'
p2831
sg25
F-3.24
sg26
F0.03
sg7
(lp2832
g28
asg29
S'2-fluorophenol'
p2833
sg12
I9707
sg13
F0.6
sg31
F-5.29
sg15
(lp2834
S'phenol or hydroxyhetarene'
p2835
aS'aryl fluoride'
p2836
aS'aromatic'
p2837
asg36
g37
sg38
g39
ssS'mobley_7814642'
p2838
(dp2839
g3
S'c1cc(c(cc1Cl)Cl)Cl'
p2840
sg25
F-0.18
sg26
F0.02
sg7
(lp2841
g28
asg29
S'1,2,4-trichlorobenzene'
p2842
sg12
I13
sg13
F0.6
sg31
F-1.12
sg15
(lp2843
S'aryl chloride'
p2844
aS'aromatic'
p2845
asg36
g37
sg38
g39
ssS'mobley_5094777'
p2846
(dp2847
g3
S'c1ccc2c(c1)CCC2'
p2848
sg25
F-1.7
sg26
F0.02
sg7
(lp2849
g28
asg29
S'indane'
p2850
sg12
I10326
sg13
F0.6
sg31
F-1.46
sg15
(lp2851
S'aromatic'
p2852
asg36
g37
sg38
g39
ssS'mobley_4561957'
p2853
(dp2854
g3
S'CC(C)C(C)C'
p2855
sg25
F2.69
sg26
F0.02
sg7
(lp2856
g28
asg29
S'2,3-dimethylbutane'
p2857
sg12
I6589
sg13
F0.6
sg31
F2.34
sg15
(lp2858
g63
asg36
g37
sg38
g39
ssS'mobley_5852491'
p2859
(dp2860
g3
S'CC1CCCC1'
p2861
sg25
F2.12
sg26
F0.02
sg7
(lp2862
g28
asg29
S'methylcyclopentane'
p2863
sg12
I7296
sg13
F0.6
sg31
F1.59
sg15
(lp2864
g63
asg36
g37
sg38
g39
ssS'mobley_1987439'
p2865
(dp2866
g3
S'Cc1cc(cc(c1)C)C'
p2867
sg25
F0.04
sg26
F0.02
sg7
(lp2868
g28
asg29
S'mesitylene'
p2869
sg12
I7947
sg13
F0.6
sg31
F-0.9
sg15
(lp2870
S'aromatic'
p2871
asg36
g37
sg38
g39
ssS'mobley_8492526'
p2872
(dp2873
g3
S'CCCCC=O'
p2874
sg25
F-2.96
sg26
F0.02
sg7
(lp2875
g28
asg29
S'pentanal'
p2876
sg12
I8063
sg13
F0.6
sg31
F-3.03
sg15
(lp2877
S'aldehyde'
p2878
asg36
g37
sg38
g39
ssS'mobley_4494568'
p2879
(dp2880
g3
S'Cc1ccc(cc1)Br'
p2881
sg25
F0.04
sg26
F0.02
sg7
(lp2882
g28
asg29
S'1-bromo-4-methyl-benzene'
p2883
sg12
I7805
sg13
F0.6
sg31
F-1.39
sg15
(lp2884
S'aryl bromide'
p2885
aS'aromatic'
p2886
asg36
g37
sg38
g39
ssS'mobley_7869158'
p2887
(dp2888
g3
S'CC[C@H](C)O[N+](=O)[O-]'
p2889
sg180
F-1.68
sg181
F0.02
sg7
(lp2890
g28
aS'Changed IUPAC name from 2-butyl nitrate to [(2S)-butan-2-yl] nitrate for better handling/standardization.'
p2891
asg183
S'[(2S)-butan-2-yl] nitrate'
p2892
sg12
I79123
sg185
F0.1
sg186
F-1.82
sg15
(lp2893
S'nitrate'
p2894
asg189
g190
sg191
g192
ssS'mobley_7893124'
p2895
(dp2896
g3
S'CC(C)(C)c1ccccc1'
p2897
sg25
F-0.42
sg26
F0.03
sg7
(lp2898
g28
asg29
S'tert-butylbenzene'
p2899
sg12
I7366
sg13
F0.6
sg31
F-0.44
sg15
(lp2900
S'aromatic'
p2901
asg36
g37
sg38
g39
ssS'mobley_5880265'
p2902
(dp2903
g3
S'CCCCOCCO'
p2904
sg25
F-4.07
sg26
F0.03
sg7
(lp2905
g28
asg29
S'2-butoxyethanol'
p2906
sg12
I8133
sg13
F0.6
sg31
F-6.25
sg15
(lp2907
S'primary alcohol'
p2908
aS'dialkyl ether'
p2909
asg36
g37
sg38
g39
ssS'mobley_8691603'
p2910
(dp2911
g3
S'Cc1cccc(c1)O'
p2912
sg25
F-5.28
sg26
F0.03
sg7
(lp2913
g28
asg29
S'm-cresol'
p2914
sg12
I342
sg13
F0.6
sg31
F-5.49
sg15
(lp2915
S'phenol or hydroxyhetarene'
p2916
aS'aromatic'
p2917
asg36
g37
sg38
g39
ssS'mobley_2693089'
p2918
(dp2919
g3
S'CC(C)Cc1cnccn1'
p2920
sg25
F-5.1
sg26
F0.03
sg7
(lp2921
g28
asg29
S'2-isobutylpyrazine'
p2922
sg12
I34591
sg13
F0.6
sg31
F-5.04
sg15
(lp2923
S'aromatic'
p2924
aS'heterocyclic'
p2925
asg36
g37
sg38
g39
ssS'mobley_8525830'
p2926
(dp2927
g3
S'CCCCCI'
p2928
sg25
F0.66
sg26
F0.02
sg7
(lp2929
g28
asg29
S'1-iodopentane'
p2930
sg12
I12335
sg13
F0.6
sg31
F-0.14
sg15
(lp2931
S'alkyl iodide'
p2932
asg36
g37
sg38
g39
ssS'mobley_6239320'
p2933
(dp2934
g3
S'c1(=O)[nH]c(=O)[nH]c(=O)[nH]1'
p2935
sg397
F-21.71
sg398
F0.07
sg7
(lp2936
g28
asg400
S'cyanuric acid'
p2937
sg12
I7956
sg402
F0.27
sg403
F-18.06
sg15
(lp2938
S'oxo(het)arene'
p2939
aS'aromatic'
p2940
aS'heterocyclic'
p2941
asg409
g410
sg411
g412
ssS'mobley_4506634'
p2942
(dp2943
g3
S'[C@@H](C(F)(F)F)(Cl)Br'
p2944
sg25
F0.7
sg26
F0.02
sg7
(lp2945
S'Renamed mobley_4506634 from 2-bromo-2-chloro-1,1,1-trifluoro-ethane to (2R)-2-bromo-2-chloro-1,1,1-trifluoro-ethane (the name from the 3D structure) since the former did not completely specify stereochemistry.\n'
p2946
asg29
S'2-bromo-2-chloro-1,1,1-trifluoro-ethane'
p2947
sg12
I445258
sg13
F0.6
sg31
F-0.11
sg15
(lp2948
S'alkyl chloride'
p2949
aS'alkyl bromide'
p2950
asg36
g37
sg38
g39
ssS'mobley_6430250'
p2951
(dp2952
g3
S'CCCc1ccccc1'
p2953
sg25
F0.01
sg26
F0.02
sg7
(lp2954
g28
asg29
S'propylbenzene'
p2955
sg12
I7668
sg13
F0.6
sg31
F-0.53
sg15
(lp2956
S'aromatic'
p2957
asg36
g37
sg38
g39
ssS'mobley_8685905'
p2958
(dp2959
g3
S'[C@@H](C(F)(F)F)(F)Br'
p2960
sg25
F0.46
sg26
F0.02
sg7
(lp2961
S'Renamed mobley_8685905 from 2-bromo-1,1,1,2-tetrafluoro-ethane to (2R)-2-bromo-1,1,1,2-tetrafluoro-ethane (the name from the 3D structure) since the former did not completely specify stereochemistry.\n'
p2962
asg29
S'2-bromo-1,1,1,2-tetrafluoro-ethane'
p2963
sg12
I31300
sg13
F0.6
sg31
F0.5
sg15
(lp2964
S'alkyl fluoride'
p2965
aS'alkyl bromide'
p2966
asg36
g37
sg38
g39
ssS'mobley_2451097'
p2967
(dp2968
g3
S'c1ccc(cc1)C#N'
p2969
sg25
F-2.56
sg26
F0.02
sg7
(lp2970
g28
asg29
S'benzonitrile'
p2971
sg12
I7505
sg13
F0.6
sg31
F-4.1
sg15
(lp2972
S'carbonitrile'
p2973
aS'aromatic'
p2974
asg36
S'10.1039/P29940001777'
p2975
sg38
g39
ssS'mobley_6102880'
p2976
(dp2977
g3
S'c1ccc(cc1)Oc2ccccc2'
p2978
sg480
F-2.79
sg481
F0.02
sg7
(lp2979
g28
asg484
S'diphenyl ether'
p2980
sg12
I7583
sg486
g487
(g491
S'\x14\xaeG\xe1z\x14\xe6?'
p2981
tp2982
Rp2983
sg497
g487
(g491
S'\xf6(\\\x8f\xc2\xf5\x06\xc0'
p2984
tp2985
Rp2986
sg15
(lp2987
S'diaryl ether'
p2988
aS'aromatic'
p2989
asg503
g504
sg505
g506
ssS'mobley_337666'
p2990
(dp2991
g3
S'c1c(c(=O)[nH]c(=O)[nH]1)F'
p2992
sg397
F-16.41
sg398
F0.06
sg7
(lp2993
g28
aS'Changed IUPAC name from 5-flurouracil to 5-fluorouracil for better handling/standardization.'
p2994
asg400
S'5-fluorouracil'
p2995
sg12
I3385
sg402
F0.88
sg403
F-16.92
sg15
(lp2996
S'aryl fluoride'
p2997
aS'oxo(het)arene'
p2998
aS'aromatic'
p2999
aS'heterocyclic'
p3000
asg409
g410
sg411
g412
ssS'mobley_1893937'
p3001
(dp3002
g3
S'CCCCCCCl'
p3003
sg25
F1.23
sg26
F0.03
sg7
(lp3004
g28
asg29
S'1-chlorohexane'
p3005
sg12
I10992
sg13
F0.6
sg31
F0.0
sg15
(lp3006
S'alkyl chloride'
p3007
asg36
g37
sg38
g39
ssS'mobley_1827204'
p3008
(dp3009
g3
S'CCCCCC=O'
p3010
sg25
F-2.96
sg26
F0.02
sg7
(lp3011
g28
asg29
S'hexanal'
p3012
sg12
I6184
sg13
F0.6
sg31
F-2.81
sg15
(lp3013
S'aldehyde'
p3014
asg36
g37
sg38
g39
ssS'mobley_2913224'
p3015
(dp3016
g3
S'CC(=O)Oc1ccccc1C(=O)O'
p3017
sg397
F-11.25
sg398
F0.07
sg7
(lp3018
g28
asg400
S'acetylsalicylic acid'
p3019
sg12
I2244
sg402
F0.18
sg403
F-9.94
sg15
(lp3020
S'carboxylic acid'
p3021
aS'carboxylic acid ester'
p3022
aS'aromatic'
p3023
asg409
g410
sg411
g412
ssS'mobley_5561855'
p3024
(dp3025
g3
S'c1cc(c(c(c1)Cl)c2c(cc(cc2Cl)Cl)Cl)Cl'
p3026
sg212
F-0.54
sg213
F0.04
sg7
(lp3027
g28
asg215
S'1,3,5-trichloro-2-(2,6-dichlorophenyl)benzene'
p3028
sg12
I91662
sg217
F0.1
sg218
F-1.96
sg15
(lp3029
S'aryl chloride'
p3030
aS'aromatic'
p3031
asg221
g222
sg223
g224
ssS'mobley_1592519'
p3032
(dp3033
g3
S'CCCCCC(=O)OCC'
p3034
sg25
F-2.8
sg26
F0.04
sg7
(lp3035
g28
asg29
S'ethyl hexanoate'
p3036
sg12
I31265
sg13
F0.6
sg31
F-2.23
sg15
(lp3037
S'carboxylic acid ester'
p3038
asg36
g37
sg38
g39
ssS'mobley_2517158'
p3039
(dp3040
g3
S'CCCCCCCBr'
p3041
sg25
F1.66
sg26
F0.03
sg7
(lp3042
g28
asg29
S'1-bromoheptane'
p3043
sg12
I12369
sg13
F0.6
sg31
F0.34
sg15
(lp3044
S'alkyl bromide'
p3045
asg36
g37
sg38
g39
ssS'mobley_6250025'
p3046
(dp3047
g3
S'CCCCCCI'
p3048
sg25
F0.66
sg26
F0.02
sg7
(lp3049
g28
asg29
S'1-iodohexane'
p3050
sg12
I12527
sg13
F0.6
sg31
F0.08
sg15
(lp3051
S'alkyl iodide'
p3052
asg36
g37
sg38
g39
ssS'mobley_8789864'
p3053
(dp3054
g3
S'COC(CC#N)(OC)OC'
p3055
sg25
F-5.74
sg26
F0.04
sg7
(lp3056
g28
asg29
S'3,3,3-trimethoxypropanenitrile'
p3057
sg12
I144381
sg13
F0.6
sg31
F-6.4
sg15
(lp3058
S'carbonitrile'
p3059
aS'orthocarboxylic acid derivative'
p3060
aS'orthoester'
p3061
asg36
g48
sg38
g39
ssS'mobley_3325209'
p3062
(dp3063
g3
S'COC(c1ccccc1)(OC)OC'
p3064
sg25
F-5.83
sg26
F0.04
sg7
(lp3065
g28
asg29
S'trimethoxymethylbenzene'
p3066
sg12
I69720
sg13
F0.6
sg31
F-4.04
sg15
(lp3067
S'orthocarboxylic acid derivative'
p3068
aS'orthoester'
p3069
aS'aromatic'
p3070
asg36
g48
sg38
g39
ssS'mobley_1875719'
p3071
(dp3072
g3
S'CCC(=O)CC'
p3073
sg5
F-2.7
sg6
F0.1
sg7
(lp3074
g9
asg10
S'pentan-3-one'
p3075
sg12
I7288
sg13
F0.2
sg14
F-3.41
sg15
(lp3076
S'ketone'
p3077
asg18
g19
sg20
g21
ssS'mobley_9112978'
p3078
(dp3079
g3
S'CC/C=C\\C'
p3080
sg25
F2.55
sg26
F0.02
sg7
(lp3081
S'Renamed mobley_9112978 from pent-2-ene to (Z)-pent-2-ene (the name from the 3D structure) since the former did not completely specify stereochemistry.\n'
p3082
asg29
S'pent-2-ene'
p3083
sg12
I21934815
sg13
F0.6
sg31
F1.31
sg15
(lp3084
S'alkene'
p3085
asg36
g37
sg38
g39
ssS'mobley_5692472'
p3086
(dp3087
g3
S'CNC'
p3088
sg25
F-3.11
sg26
F0.02
sg7
(lp3089
g28
asg29
S'N-methylmethanamine'
p3090
sg12
I674
sg13
F0.6
sg31
F-4.29
sg15
(lp3091
S'secondary amine'
p3092
aS'secondary aliphatic amine (dialkylamine)'
p3093
asg36
g37
sg38
g39
ssS'mobley_2972345'
p3094
(dp3095
g3
S'c1ccc2c(c1)Cc3ccccc3C2'
p3096
sg480
F-4.38
sg481
F0.022
sg7
(lp3097
g28
asg484
S'9,10-dihydroanthracene'
p3098
sg12
I11940
sg486
g487
(g491
S'\x9a\x99\x99\x99\x99\x99\xb9?'
p3099
tp3100
Rp3101
sg497
g487
(g491
S'=\n\xd7\xa3p=\x0e\xc0'
p3102
tp3103
Rp3104
sg15
(lp3105
S'aromatic'
p3106
asg503
g504
sg505
g506
ssS'mobley_3976574'
p3107
(dp3108
g3
S'c1cc2c(cc1Cl)Oc3c(c(c(c(c3Cl)Cl)Cl)Cl)O2'
p3109
sg212
F-2.17
sg213
F0.03
sg7
(lp3110
g28
asg215
S'1,2,3,4,7-pentachlorodibenzo-p-dioxin'
p3111
sg12
I38254
sg217
F1.0
sg218
F-4.15
sg15
(lp3112
S'diaryl ether'
p3113
aS'aryl chloride'
p3114
aS'aromatic'
p3115
aS'heterocyclic'
p3116
asg221
g222
sg223
g224
ssS'mobley_8966374'
p3117
(dp3118
g3
S'Cc1cnccn1'
p3119
sg25
F-6.1
sg26
F0.03
sg7
(lp3120
g28
asg29
S'2-methylpyrazine'
p3121
sg12
I7976
sg13
F0.6
sg31
F-5.51
sg15
(lp3122
S'aromatic'
p3123
aS'heterocyclic'
p3124
asg36
g37
sg38
g39
ssS'mobley_2328633'
p3125
(dp3126
g3
S'CCCCCC1CCCC1'
p3127
sg25
F2.39
sg26
F0.03
sg7
(lp3128
g28
asg29
S'pentylcyclopentane'
p3129
sg12
I19540
sg13
F0.6
sg31
F2.55
sg15
(lp3130
g63
asg36
g37
sg38
g39
ssS'mobley_7298388'
p3131
(dp3132
g3
S'Cc1cccc(c1)[N+](=O)[O-]'
p3133
sg25
F-3.16
sg26
F0.02
sg7
(lp3134
g28
asg29
S'1-methyl-3-nitro-benzene'
p3135
sg12
I7422
sg13
F0.6
sg31
F-3.45
sg15
(lp3136
S'nitro'
p3137
aS'aromatic'
p3138
asg36
g37
sg38
g39
ssS'mobley_3269819'
p3139
(dp3140
g3
S'c1c(cc(c(c1Cl)Cl)Cl)c2cc(c(c(c2Cl)Cl)Cl)Cl'
p3141
sg212
F-0.77
sg213
F0.04
sg7
(lp3142
g28
asg215
S'1,2,3,4-tetrachloro-5-(3,4,5-trichlorophenyl)benzene'
p3143
sg12
I38306
sg217
F0.1
sg218
F-3.17
sg15
(lp3144
S'aryl chloride'
p3145
aS'aromatic'
p3146
asg221
g222
sg223
g224
ssS'mobley_3802803'
p3147
(dp3148
g3
S'CCCCCCON([O-])[O-]'
p3149
sg480
F-1.63
sg481
F0.022
sg7
(lp3150
g28
asg484
S'hexyl nitrate'
p3151
sg12
I30209
sg486
g487
(g491
S'\x9a\x99\x99\x99\x99\x99\xb9?'
p3152
tp3153
Rp3154
sg497
g487
(g491
S'\x8f\xc2\xf5(\\\x8f\xfa\xbf'
p3155
tp3156
Rp3157
sg15
(lp3158
S'anion'
p3159
asg503
g504
sg505
g506
ssS'mobley_7497999'
p3160
(dp3161
g3
S'CC(=O)c1ccccc1'
p3162
sg25
F-5.07
sg26
F0.03
sg7
(lp3163
g28
asg29
S'1-phenylethanone'
p3164
sg12
I7410
sg13
F0.6
sg31
F-4.58
sg15
(lp3165
S'ketone'
p3166
aS'aromatic'
p3167
asg36
g37
sg38
g39
ssS'mobley_8208692'
p3168
(dp3169
g3
S'c1c(c(c(c(c1Cl)Cl)Cl)Cl)c2c(cc(c(c2Cl)Cl)Cl)Cl'
p3170
sg212
F0.0
sg213
F0.05
sg7
(lp3171
g28
asg215
S'1,2,3,4-tetrachloro-5-(2,3,4,6-tetrachlorophenyl)benzene'
p3172
sg12
I39253
sg217
F0.25
sg218
F-4.61
sg15
(lp3173
S'aryl chloride'
p3174
aS'aromatic'
p3175
asg221
g222
sg223
g224
ssS'mobley_1199854'
p3176
(dp3177
g3
S'CCCI'
p3178
sg25
F0.0
sg26
F0.02
sg7
(lp3179
g28
asg29
S'1-iodopropane'
p3180
sg12
I33643
sg13
F0.6
sg31
F-0.53
sg15
(lp3181
S'alkyl iodide'
p3182
asg36
g37
sg38
g39
ssS'mobley_3867265'
p3183
(dp3184
g3
S'CC(=O)C'
p3185
sg25
F-3.36
sg26
F0.02
sg7
(lp3186
g28
asg29
S'acetone'
p3187
sg12
I180
sg13
F0.6
sg31
F-3.8
sg15
(lp3188
S'ketone'
p3189
asg36
g37
sg38
g39
ssS'mobley_5072416'
p3190
(dp3191
g3
S'COc1ccccc1N'
p3192
sg25
F-6.53
sg26
F0.03
sg7
(lp3193
g28
asg29
S'2-methoxyaniline'
p3194
sg12
I7000
sg13
F0.6
sg31
F-6.12
sg15
(lp3195
S'alkyl aryl ether'
p3196
aS'primary amine'
p3197
aS'primary aromatic amine'
p3198
aS'aromatic'
p3199
asg36
g37
sg38
g39
ssS'mobley_2489709'
p3200
(dp3201
g3
S'c1ccc(c(c1)Cl)Cl'
p3202
sg25
F-0.64
sg26
F0.02
sg7
(lp3203
g28
asg29
S'1,2-dichlorobenzene'
p3204
sg12
I7239
sg13
F0.6
sg31
F-1.36
sg15
(lp3205
S'aryl chloride'
p3206
aS'aromatic'
p3207
asg36
g37
sg38
g39
ssS'mobley_2481002'
p3208
(dp3209
g3
S'C([N+](=O)[O-])(Cl)(Cl)Cl'
p3210
sg180
F-0.26
sg181
F0.02
sg7
(lp3211
g28
aS'Changed IUPAC name from chloropicrin to trichloro(nitro)methane for better handling/standardization.'
p3212
asg183
S'trichloro(nitro)methane'
p3213
sg12
I6423
sg185
F0.1
sg186
F-1.45
sg15
(lp3214
S'halogen derivative'
p3215
asg189
g190
sg191
g192
ssS'mobley_1034539'
p3216
(dp3217
g3
S'c1cc(c(cc1c2cc(c(c(c2Cl)Cl)Cl)Cl)Cl)Cl'
p3218
sg212
F-1.0
sg213
F0.04
sg7
(lp3219
g28
asg215
S'1,2,3,4-tetrachloro-5-(3,4-dichlorophenyl)benzene'
p3220
sg12
I38019
sg217
F0.1
sg218
F-3.04
sg15
(lp3221
S'aryl chloride'
p3222
aS'aromatic'
p3223
asg221
g222
sg223
g224
ssS'mobley_9460824'
p3224
(dp3225
g3
S'CCOP(=S)(OCC)SCSCC'
p3226
sg180
F-5.2
sg181
F0.04
sg7
(lp3227
g28
aS'Changed IUPAC name from phorate to diethoxy-(ethylsulfanylmethylsulfanyl)-thioxo-$l^{5}-phosphane for better handling/standardization.'
p3228
asg183
S'diethoxy-(ethylsulfanylmethylsulfanyl)-thioxo-$l^{5}-phosphane'
p3229
sg12
I4790
sg185
F0.1
sg186
F-4.37
sg15
(lp3230
S'thiophosphoric acid ester'
p3231
asg189
g190
sg191
g192
ssS'mobley_8882696'
p3232
(dp3233
g3
S'C1CCOC1'
p3234
sg25
F-2.07
sg26
F0.02
sg7
(lp3235
g28
asg29
S'tetrahydrofuran'
p3236
sg12
I8028
sg13
F0.6
sg31
F-3.47
sg15
(lp3237
S'dialkyl ether'
p3238
aS'heterocyclic'
p3239
asg36
g37
sg38
g39
ssS'mobley_8916409'
p3240
(dp3241
g3
S'CCOC(=O)C[C@H](C(=O)OCC)SP(=S)(OC)OC'
p3242
sg180
F-12.99
sg181
F0.05
sg7
(lp3243
g28
aS'Changed IUPAC name from malathion to diethyl (2R)-2-dimethoxyphosphinothioylsulfanylbutanedioate for better handling/standardization.'
p3244
asg183
S'diethyl (2R)-2-dimethoxyphosphinothioylsulfanylbutanedioate'
p3245
sg12
I12358970
sg185
F0.21
sg186
F-8.15
sg15
(lp3246
S'carboxylic acid ester'
p3247
aS'thiophosphoric acid ester'
p3248
asg189
g190
sg191
g192
ssS'mobley_1770205'
p3249
(dp3250
g3
S'COP(=S)(OC)SCn1c(=O)c2ccccc2nn1'
p3251
sg180
F-15.54
sg181
F0.04
sg7
(lp3252
g28
aS'Changed IUPAC name from azinphosmethyl to 3-(dimethoxyphosphinothioylsulfanylmethyl)-1,2,3-benzotriazin-4-one for better handling/standardization.'
p3253
asg183
S'3-(dimethoxyphosphinothioylsulfanylmethyl)-1,2,3-benzotriazin-4-one'
p3254
sg12
I2268
sg185
F1.37
sg186
F-10.03
sg15
(lp3255
S'oxo(het)arene'
p3256
aS'thiophosphoric acid ester'
p3257
aS'aromatic'
p3258
aS'heterocyclic'
p3259
asg189
g190
sg191
g192
ssS'mobley_3982371'
p3260
(dp3261
g3
S'CC(=O)OC'
p3262
sg25
F-3.73
sg26
F0.02
sg7
(lp3263
g28
asg29
S'methyl acetate'
p3264
sg12
I6584
sg13
F0.6
sg31
F-3.13
sg15
(lp3265
S'carboxylic acid ester'
p3266
asg36
g37
sg38
g39
ssS'mobley_2659552'
p3267
(dp3268
g3
S'Cc1ccc(cc1)C(=O)N(C)C'
p3269
sg1214
F-8.76
sg1215
F0.05
sg1216
(lp3270
g1218
ag28
ag167
asg1219
S'N,N-4-trimethylbenzamide'
p3271
sg12
I84179
sg13
F0.2
sg1221
F-9.76
sg15
(lp3272
S'tertiary carboxylic acid amide'
p3273
aS'aromatic'
p3274
asg1224
g1225
sg1226
g1225
ssS'mobley_2422586'
p3275
(dp3276
g3
S'CCCOC'
p3277
sg25
F-0.41
sg26
F0.02
sg7
(lp3278
g28
asg29
S'1-methoxypropane'
p3279
sg12
I11182
sg13
F0.6
sg31
F-1.66
sg15
(lp3280
S'dialkyl ether'
p3281
asg36
g37
sg38
g39
ssS'mobley_2725215'
p3282
(dp3283
g3
S'CCCN(CCC)c1c(cc(cc1[N+](=O)[O-])S(=O)(=O)C)[N+](=O)[O-]'
p3284
sg180
F-11.56
sg181
F0.05
sg7
(lp3285
g28
asg183
S'nitralin'
p3286
sg12
I20848
sg185
F1.93
sg186
F-7.98
sg15
(lp3287
S'tertiary amine'
p3288
aS'tertiary aliphatic/aromatic amine (alkylarylamine)'
p3289
aS'nitro'
p3290
aS'sulfone'
p3291
aS'aromatic'
p3292
asg189
g190
sg191
g192
ssS'mobley_9571888'
p3293
(dp3294
g3
S'C1[C@@H]2[C@H](COS(=O)O1)[C@@]3(C(=C([C@]2(C3(Cl)Cl)Cl)Cl)Cl)Cl'
p3295
sg180
F-9.96
sg181
F0.04
sg7
(lp3296
g28
asg183
S'endosulfan alpha'
p3297
sg12
I12309460
sg185
F0.26
sg186
F-4.23
sg15
(lp3298
S'alkyl chloride'
p3299
aS'alkene'
p3300
aS'heterocyclic'
p3301
asg189
g190
sg191
g192
ssS'mobley_3777264'
p3302
(dp3303
g3
S'c1cc(cc(c1)[N+](=O)[O-])N'
p3304
sg25
F-8.24
sg26
F0.03
sg7
(lp3305
g28
asg29
S'3-nitroaniline'
p3306
sg12
I7423
sg13
F0.6
sg31
F-8.84
sg15
(lp3307
S'primary amine'
p3308
aS'primary aromatic amine'
p3309
aS'nitro'
p3310
aS'aromatic'
p3311
asg36
g37
sg38
g39
ssS'mobley_6006813'
p3312
(dp3313
g3
S'CCCC[N+](=O)[O-]'
p3314
sg25
F-1.51
sg26
F0.02
sg7
(lp3315
g28
asg29
S'1-nitrobutane'
p3316
sg12
I12302
sg13
F0.6
sg31
F-3.09
sg15
(lp3317
S'nitro'
p3318
asg36
g37
sg38
g39
ssS'mobley_1636752'
p3319
(dp3320
g3
S'CO'
p3321
sg25
F-3.48
sg26
F0.01
sg7
(lp3322
g28
asg29
S'methanol'
p3323
sg12
I887
sg13
F0.6
sg31
F-5.1
sg15
(lp3324
S'primary alcohol'
p3325
asg36
g37
sg38
g39
ssS'mobley_3525176'
p3326
(dp3327
g3
S'CCCCCc1ccccc1'
p3328
sg25
F0.05
sg26
F0.03
sg7
(lp3329
g28
asg29
S'pentylbenzene'
p3330
sg12
I10864
sg13
F0.6
sg31
F-0.23
sg15
(lp3331
S'aromatic'
p3332
asg36
g37
sg38
g39
ssS'mobley_1905088'
p3333
(dp3334
g3
S'c1ccc(cc1)CBr'
p3335
sg1214
F-1.11
sg1215
F0.1
sg1216
(lp3336
g1218
ag28
ag167
asg1219
S'benzyl bromide'
p3337
sg12
I7498
sg13
F0.2
sg1221
F-2.38
sg15
(lp3338
S'alkyl bromide'
p3339
aS'aromatic'
p3340
asg1224
g1225
sg1226
g1225
ssS'mobley_637522'
p3341
(dp3342
g3
S'c1ccc2cc3ccccc3cc2c1'
p3343
sg25
F-5.39
sg26
F0.03
sg7
(lp3344
g28
asg29
S'anthracene'
p3345
sg12
I8418
sg13
F0.6
sg31
F-3.95
sg15
(lp3346
S'aromatic'
p3347
asg36
g37
sg38
g39
ssS'mobley_1615431'
p3348
(dp3349
g3
S'CC(C)OC(C)C'
p3350
sg25
F-0.11
sg26
F0.02
sg7
(lp3351
g28
asg29
S'2-isopropoxypropane'
p3352
sg12
I7914
sg13
F0.6
sg31
F-0.53
sg15
(lp3353
S'dialkyl ether'
p3354
asg36
g37
sg38
g39
ssS'mobley_9281946'
p3355
(dp3356
g3
S'CCOP(=S)(OCC)Oc1ccc(cc1)[N+](=O)[O-]'
p3357
sg180
F-9.41
sg181
F0.04
sg7
(lp3358
g28
aS'Changed IUPAC name from parathion to diethoxy-(4-nitrophenoxy)-thioxo-$l^{5}-phosphane for better handling/standardization.'
p3359
asg183
S'diethoxy-(4-nitrophenoxy)-thioxo-$l^{5}-phosphane'
p3360
sg12
I991
sg185
F0.1
sg186
F-6.74
sg15
(lp3361
S'nitro'
p3362
aS'thiophosphoric acid ester'
p3363
aS'aromatic'
p3364
asg189
g190
sg191
g192
ssS'mobley_1469079'
p3365
(dp3366
g3
S'c1ccc2c(c1)Oc3cc(c(cc3O2)Cl)Cl'
p3367
sg212
F-3.51
sg213
F0.02
sg7
(lp3368
g28
asg215
S'2,3-dichlorodibenzo-p-dioxin'
p3369
sg12
I34586
sg217
F1.0
sg218
F-3.56
sg15
(lp3370
S'diaryl ether'
p3371
aS'aryl chloride'
p3372
aS'aromatic'
p3373
aS'heterocyclic'
p3374
asg221
g222
sg223
g224
ssS'mobley_4603202'
p3375
(dp3376
g3
S'C(CCl)OCCCl'
p3377
sg1214
F-2.07
sg1215
F0.01
sg1216
(lp3378
g1218
ag28
aS'Changed IUPAC name from bis-2-chloroethyl ether to 1-chloro-2-(2-chloroethoxy)ethane for better handling/standardization.'
p3379
ag167
asg1219
S'1-chloro-2-(2-chloroethoxy)ethane'
p3380
sg12
I8115
sg13
F0.2
sg1221
F-4.23
sg15
(lp3381
S'dialkyl ether'
p3382
aS'alkyl chloride'
p3383
asg1224
g1225
sg1226
g1225
ssS'mobley_2341732'
p3384
(dp3385
g3
S'CCCCC(=O)OC'
p3386
sg25
F-3.51
sg26
F0.02
sg7
(lp3387
g28
asg29
S'methyl pentanoate'
p3388
sg12
I12206
sg13
F0.6
sg31
F-2.56
sg15
(lp3389
S'carboxylic acid ester'
p3390
asg36
g37
sg38
g39
ssS'mobley_6981465'
p3391
(dp3392
g3
S'CC(C)OC(=O)C'
p3393
sg25
F-2.92
sg26
F0.03
sg7
(lp3394
g28
asg29
S'isopropyl acetate'
p3395
sg12
I7915
sg13
F0.6
sg31
F-2.64
sg15
(lp3396
S'carboxylic acid ester'
p3397
asg36
g37
sg38
g39
ssS'mobley_1527293'
p3398
(dp3399
g3
S'C[C@@H](c1ccc(c(c1)F)c2ccccc2)C(=O)O'
p3400
sg397
F-8.7
sg398
F0.07
sg7
(lp3401
S'Renamed mobley_1527293 from flurbiprofen to (2S)-2-(3-fluoro-4-phenyl-phenyl)propanoic acid (the name from the 3D structure) since the former did not completely specify stereochemistry.\n'
p3402
asg400
S'flurbiprofen'
p3403
sg12
I3394
sg402
F0.16
sg403
F-8.42
sg15
(lp3404
S'aryl fluoride'
p3405
aS'carboxylic acid'
p3406
aS'aromatic'
p3407
asg409
g410
sg411
g412
ssS'mobley_5732611'
p3408
(dp3409
g3
S'Cc1c[nH]cn1'
p3410
sg25
F-7.99
sg26
F0.03
sg7
(lp3411
g28
asg29
S'4-methyl-1H-imidazole'
p3412
sg12
I13195
sg13
F0.6
sg31
F-10.27
sg15
(lp3413
S'aromatic'
p3414
aS'heterocyclic'
p3415
asg36
S'10.1021/bi00507a030'
p3416
sg38
g39
ssS'mobley_3259411'
p3417
(dp3418
g3
S'C(C(CO)O)O'
p3419
sg397
F-9.71
sg398
F0.06
sg7
(lp3420
g28
asg400
S'glycerol'
p3421
sg12
I753
sg402
F1.0
sg403
F-13.43
sg15
(lp3422
S'primary alcohol'
p3423
aS'secondary alcohol'
p3424
aS'1,2-diol'
p3425
asg409
g410
sg411
g412
ssS'mobley_5393242'
p3426
(dp3427
g3
S'CCOP(=S)(OCC)Oc1cc(nc(n1)C(C)C)C'
p3428
sg180
F-9.97
sg181
F0.05
sg7
(lp3429
g28
asg183
S'diazinon'
p3430
sg12
I3017
sg185
F0.13
sg186
F-6.48
sg15
(lp3431
S'thiophosphoric acid ester'
p3432
aS'aromatic'
p3433
aS'heterocyclic'
p3434
asg189
g190
sg191
g192
ssS'mobley_9624458'
p3435
(dp3436
g3
S'C(CCl)CCl'
p3437
sg25
F-0.38
sg26
F0.02
sg7
(lp3438
g28
asg29
S'1,3-dichloropropane'
p3439
sg12
I8881
sg13
F0.6
sg31
F-1.89
sg15
(lp3440
S'alkyl chloride'
p3441
asg36
g37
sg38
g39
ssS'mobley_2316618'
p3442
(dp3443
g3
S'c1ccc2c(c1)C(=O)c3cccc(c3C2=O)NCCO'
p3444
sg480
F-13.33
sg481
F0.029
sg7
(lp3445
g28
asg484
S'1-(2-hydroxyethylamino)-9,10-anthraquinone'
p3446
sg12
I20528
sg486
g487
(g491
S'\x9a\x99\x99\x99\x99\x99\xf1?'
p3447
tp3448
Rp3449
sg497
g487
(g491
S'\xecQ\xb8\x1e\x85k,\xc0'
p3450
tp3451
Rp3452
sg15
(lp3453
S'ketone'
p3454
aS'primary alcohol'
p3455
aS'1,2-aminoalcohol'
p3456
aS'secondary amine'
p3457
aS'secondary aliphatic/aromatic amine (alkylarylamine)'
p3458
aS'aromatic'
p3459
asg503
g504
sg505
g506
ssS'mobley_349850'
p3460
(dp3461
g3
S'Cc1ccc(cc1)C(=O)C'
p3462
sg25
F-4.82
sg26
F0.03
sg7
(lp3463
g28
asg29
S'1-(p-tolyl)ethanone'
p3464
sg12
I8500
sg13
F0.6
sg31
F-4.7
sg15
(lp3465
S'ketone'
p3466
aS'aromatic'
p3467
asg36
g37
sg38
g39
ssS'mobley_186894'
p3468
(dp3469
g3
S'CCCS'
p3470
sg5
F-0.3
sg6
F0.1
sg7
(lp3471
g9
asg10
S'propanethiol'
p3472
sg12
I7848
sg13
F0.2
sg14
F-1.1
sg15
(lp3473
S'thiol (sulfanyl)'
p3474
aS'alkylthiol'
p3475
asg18
g19
sg20
g21
ssS'mobley_7463408'
p3476
(dp3477
g3
S'CCC(=O)Nc1ccc(c(c1)Cl)Cl'
p3478
sg180
F-9.65
sg181
F0.04
sg7
(lp3479
g28
aS'Changed IUPAC name from propanil to N-(3,4-dichlorophenyl)propanimidic acid for better handling/standardization.'
p3480
asg183
S'N-(3,4-dichlorophenyl)propanimidic acid'
p3481
sg12
I4933
sg185
F1.93
sg186
F-7.78
sg15
(lp3482
S'aryl chloride'
p3483
aS'secondary carboxylic acid amide'
p3484
aS'aromatic'
p3485
asg189
g190
sg191
g192
ssS'mobley_4609460'
p3486
(dp3487
g3
S'CCOC(=O)c1ccc(cc1)O'
p3488
sg397
F-9.57
sg398
F0.06
sg7
(lp3489
g28
asg400
S'ethyl paraben'
p3490
sg12
I8434
sg402
F0.3
sg403
F-9.2
sg15
(lp3491
S'phenol or hydroxyhetarene'
p3492
aS'carboxylic acid ester'
p3493
aS'aromatic'
p3494
asg409
g410
sg411
g412
ssS'mobley_2049967'
p3495
(dp3496
g3
S'CCSC'
p3497
sg5
F-0.3
sg6
F0.1
sg7
(lp3498
g9
aS'Changed IUPAC name from ethylmethylsulfide to methylsulfanylethane for better handling/standardization.'
p3499
asg10
S'methylsulfanylethane'
p3500
sg12
I12230
sg13
F0.2
sg14
F-1.5
sg15
(lp3501
S'thioether'
p3502
asg18
g19
sg20
g21
ssS'mobley_4759887'
p3503
(dp3504
g3
S'CCCCCCCI'
p3505
sg25
F1.19
sg26
F0.03
sg7
(lp3506
g28
asg29
S'1-iodoheptane'
p3507
sg12
I20274
sg13
F0.6
sg31
F0.27
sg15
(lp3508
S'alkyl iodide'
p3509
asg36
g37
sg38
g39
ssS'mobley_2850833'
p3510
(dp3511
g3
S'c1ccc(c(c1)C=O)O'
p3512
sg480
F-4.89
sg481
F0.018
sg7
(lp3513
g28
asg484
S'2-hydroxybenzaldehyde'
p3514
sg12
I6998
sg486
g487
(g491
S'\x9a\x99\x99\x99\x99\x99\xb9?'
p3515
tp3516
Rp3517
sg497
g487
(g491
S'\xb8\x1e\x85\xebQ\xb8\x12\xc0'
p3518
tp3519
Rp3520
sg15
(lp3521
S'aldehyde'
p3522
aS'phenol or hydroxyhetarene'
p3523
aS'aromatic'
p3524
asg503
g504
sg505
g506
ssS'mobley_511661'
p3525
(dp3526
g3
S'C=CC=C'
p3527
sg5
F1.9
sg6
F0.1
sg7
(lp3528
g9
asg10
S'butadiene'
p3529
sg12
I7845
sg13
F0.2
sg14
F0.56
sg15
(lp3530
S'alkene'
p3531
asg18
S'10.1021/jo00891a006'
p3532
sg20
g21
ssS'mobley_4463913'
p3533
(dp3534
g3
S'CC(OC(=O)C)OC(=O)C'
p3535
sg25
F-7.9
sg26
F0.1
sg7
(lp3536
g28
asg29
S'1-acetoxyethyl acetate'
p3537
sg12
I222536
sg13
F0.6
sg31
F-4.97
sg15
(lp3538
S'carboxylic acid ester'
p3539
asg36
g1341
sg38
g39
ssS'mobley_6632459'
p3540
(dp3541
g3
S'CCC=O'
p3542
sg25
F-3.08
sg26
F0.02
sg7
(lp3543
g28
asg29
S'propanal'
p3544
sg12
I527
sg13
F0.6
sg31
F-3.43
sg15
(lp3545
S'aldehyde'
p3546
asg36
g37
sg38
g39
ssS'mobley_2183616'
p3547
(dp3548
g3
S'CC[C@H](C)c1ccccc1'
p3549
sg25
F0.04
sg26
F0.03
sg7
(lp3550
S'Renamed mobley_2183616 from sec-butylbenzene to [(1S)-1-methylpropyl]benzene (the name from the 3D structure) since the former did not completely specify stereochemistry.\n'
p3551
asg29
S'sec-butylbenzene'
p3552
sg12
I8680
sg13
F0.6
sg31
F-0.45
sg15
(lp3553
S'aromatic'
p3554
asg36
g37
sg38
g39
ssS'mobley_6416775'
p3555
(dp3556
g3
S'CCCC1CCCC1'
p3557
sg25
F2.15
sg26
F0.02
sg7
(lp3558
g28
asg29
S'propylcyclopentane'
p3559
sg12
I16270
sg13
F0.6
sg31
F2.13
sg15
(lp3560
g63
asg36
g37
sg38
g39
ssS'mobley_902954'
p3561
(dp3562
g3
S'CCCCO[N+](=O)[O-]'
p3563
sg180
F-1.83
sg181
F0.02
sg7
(lp3564
g28
asg183
S'butyl nitrate'
p3565
sg12
I13567
sg185
F0.1
sg186
F-2.09
sg15
(lp3566
S'nitrate'
p3567
asg189
g190
sg191
g192
ssS'mobley_2523689'
p3568
(dp3569
g3
S'c1ccc(cc1)n2c(=O)c(c(cn2)N)Cl'
p3570
sg180
F-16.62
sg181
F0.04
sg7
(lp3571
g28
aS'Changed IUPAC name from pyrazon to 5-Amino-4-chloro-2-phenylpyridazin-3(2H)-one for better handling/standardization.'
p3572
asg183
S'5-Amino-4-chloro-2-phenylpyridazin-3(2H)-one'
p3573
sg12
I15546
sg185
F1.93
sg186
F-16.43
sg15
(lp3574
S'primary amine'
p3575
aS'primary aromatic amine'
p3576
aS'aryl chloride'
p3577
aS'oxo(het)arene'
p3578
aS'aromatic'
p3579
aS'heterocyclic'
p3580
asg189
g190
sg191
g192
ssS'mobley_3969312'
p3581
(dp3582
g3
S'c1ccc(cc1)C=O'
p3583
sg25
F-4.99
sg26
F0.02
sg7
(lp3584
g28
asg29
S'benzaldehyde'
p3585
sg12
I240
sg13
F0.6
sg31
F-4.02
sg15
(lp3586
S'aldehyde'
p3587
aS'aromatic'
p3588
asg36
g37
sg38
g39
ssS'mobley_6248915'
p3589
(dp3590
g3
S'CCCCCCCCN'
p3591
sg25
F-2.38
sg26
F0.03
sg7
(lp3592
g28
asg29
S'octan-1-amine'
p3593
sg12
I8143
sg13
F0.6
sg31
F-3.65
sg15
(lp3594
S'primary amine'
p3595
aS'primary aliphatic amine (alkylamine)'
p3596
asg36
g37
sg38
g39
ssS'mobley_1881249'
p3597
(dp3598
g3
S'CCCC(=O)C'
p3599
sg25
F-3.29
sg26
F0.02
sg7
(lp3600
g28
asg29
S'pentan-2-one'
p3601
sg12
I7895
sg13
F0.6
sg31
F-3.52
sg15
(lp3602
S'ketone'
p3603
asg36
g37
sg38
g39
ssS'mobley_8449031'
p3604
(dp3605
g3
S'CCN(CC)CC'
p3606
sg25
F-1.83
sg26
F0.03
sg7
(lp3607
g28
asg29
S'N,N-diethylethanamine'
p3608
sg12
I8471
sg13
F0.6
sg31
F-3.22
sg15
(lp3609
S'tertiary amine'
p3610
aS'tertiary aliphatic amine (trialkylamine)'
p3611
asg36
g37
sg38
g39
ssS'mobley_5467162'
p3612
(dp3613
g3
S'CC(C)(C)c1ccc(cc1)O'
p3614
sg25
F-5.54
sg26
F0.04
sg7
(lp3615
g28
asg29
S'4-tert-butylphenol'
p3616
sg12
I7393
sg13
F0.6
sg31
F-5.91
sg15
(lp3617
S'phenol or hydroxyhetarene'
p3618
aS'aromatic'
p3619
asg36
g37
sg38
g39
ssS'mobley_6522117'
p3620
(dp3621
g3
S'CCOP(=O)(OCC)O/C(=C/Cl)/c1ccc(cc1Cl)Cl'
p3622
sg180
F-9.45
sg181
F0.05
sg7
(lp3623
S'Renamed mobley_6522117 from 2-chloro-1-(2,4-dichlorophenyl)ethenyl diethyl phosphate to [(E)-2-chloro-1-(2,4-dichlorophenyl)vinyl] diethyl phosphate (the name from the 3D structure) since the former did not completely specify stereochemistry.\n'
p3624
asg183
S'2-chloro-1-(2,4-dichlorophenyl)ethenyl diethyl phosphate'
p3625
sg12
I10107
sg185
F1.37
sg186
F-7.07
sg15
(lp3626
S'aryl chloride'
p3627
aS'phosphoric acid ester'
p3628
aS'alkene'
p3629
aS'aromatic'
p3630
asg189
g190
sg191
g192
ssS'mobley_7977115'
p3631
(dp3632
g3
S'CCC[C@H](CC)O'
p3633
sg25
F-2.63
sg26
F0.02
sg7
(lp3634
S'Renamed mobley_7977115 from hexan-3-ol to (3S)-hexan-3-ol (the name from the 3D structure) since the former did not completely specify stereochemistry.\n'
p3635
asg29
S'hexan-3-ol'
p3636
sg12
I12178
sg13
F0.6
sg31
F-4.06
sg15
(lp3637
S'secondary alcohol'
p3638
asg36
g37
sg38
g39
ssS'mobley_8809274'
p3639
(dp3640
g3
S'c1ccc(cc1)C(F)(F)F'
p3641
sg25
F-0.55
sg26
F0.02
sg7
(lp3642
g28
asg29
S'trifluoromethylbenzene'
p3643
sg12
I7368
sg13
F0.6
sg31
F-0.25
sg15
(lp3644
S'halogen derivative'
p3645
aS'aromatic'
p3646
asg36
S'10.1039/P29940001777'
p3647
sg38
g39
ssS'mobley_5063386'
p3648
(dp3649
g3
S'c1ccc(c(c1)[N+](=O)[O-])O'
p3650
sg25
F-5.34
sg26
F0.03
sg7
(lp3651
g28
asg29
S'2-nitrophenol'
p3652
sg12
I6947
sg13
F0.6
sg31
F-4.58
sg15
(lp3653
S'phenol or hydroxyhetarene'
p3654
aS'nitro'
p3655
aS'aromatic'
p3656
asg36
g37
sg38
g39
ssS'mobley_2958326'
p3657
(dp3658
g3
S'CCCNCCC'
p3659
sg25
F-2.26
sg26
F0.02
sg7
(lp3660
g28
asg29
S'N-propylpropan-1-amine'
p3661
sg12
I8902
sg13
F0.6
sg31
F-3.65
sg15
(lp3662
S'secondary amine'
p3663
aS'secondary aliphatic amine (dialkylamine)'
p3664
asg36
g37
sg38
g39
ssS'mobley_8052240'
p3665
(dp3666
g3
S'c1ccc2c(c1)C(=O)c3cccc(c3C2=O)N'
p3667
sg480
F-11.59
sg481
F0.022
sg7
(lp3668
g28
asg484
S'1-amino-9,10-anthracenedione'
p3669
sg12
I6710
sg486
g487
(g491
S'\xaeG\xe1z\x14\xae\xe7?'
p3670
tp3671
Rp3672
sg497
g487
(g491
S'\xe1z\x14\xaeG\xe1"\xc0'
p3673
tp3674
Rp3675
sg15
(lp3676
S'ketone'
p3677
aS'primary amine'
p3678
aS'primary aromatic amine'
p3679
aS'aromatic'
p3680
asg503
g504
sg505
g506
ssS'mobley_1760914'
p3681
(dp3682
g3
S'Cc1ccccc1Cl'
p3683
sg25
F-0.51
sg26
F0.02
sg7
(lp3684
g28
asg29
S'1-chloro-2-methyl-benzene'
p3685
sg12
I7238
sg13
F0.6
sg31
F-1.14
sg15
(lp3686
S'aryl chloride'
p3687
aS'aromatic'
p3688
asg36
g37
sg38
g39
ssS'mobley_2402487'
p3689
(dp3690
g3
S'CCOC(=O)CC(=O)OCC'
p3691
sg25
F-6.45
sg26
F0.04
sg7
(lp3692
g28
asg29
S'diethyl propanedioate'
p3693
sg12
I7761
sg13
F0.6
sg31
F-6.0
sg15
(lp3694
S'carboxylic acid ester'
p3695
asg36
g1341
sg38
g39
ssS'mobley_4059279'
p3696
(dp3697
g3
S'CN1CCN(CC1)C'
p3698
sg25
F-7.4
sg26
F0.03
sg7
(lp3699
g28
asg29
S'1,4-dimethylpiperazine'
p3700
sg12
I7818
sg13
F0.6
sg31
F-7.58
sg15
(lp3701
S'tertiary amine'
p3702
aS'tertiary aliphatic amine (trialkylamine)'
p3703
aS'heterocyclic'
p3704
asg36
g1341
sg38
g39
ssS'mobley_9733743'
p3705
(dp3706
g3
S'CCCCN'
p3707
sg25
F-2.82
sg26
F0.02
sg7
(lp3708
g28
asg29
S'butan-1-amine'
p3709
sg12
I8007
sg13
F0.6
sg31
F-4.24
sg15
(lp3710
S'primary amine'
p3711
aS'primary aliphatic amine (alkylamine)'
p3712
asg36
g37
sg38
g39
ssS'mobley_252413'
p3713
(dp3714
g3
S'CCCC(C)(C)C'
p3715
sg25
F2.9
sg26
F0.02
sg7
(lp3716
g28
asg29
S'2,2-dimethylpentane'
p3717
sg12
I11542
sg13
F0.6
sg31
F2.88
sg15
(lp3718
g63
asg36
g37
sg38
g39
ssS'mobley_1144156'
p3719
(dp3720
g3
S'CCOCC'
p3721
sg25
F-0.7
sg26
F0.02
sg7
(lp3722
g28
asg29
S'ethoxyethane'
p3723
sg12
I3283
sg13
F0.6
sg31
F-1.59
sg15
(lp3724
S'dialkyl ether'
p3725
asg36
g37
sg38
g39
ssS'mobley_2972906'
p3726
(dp3727
g3
S'c1ccsc1'
p3728
sg5
F-0.6
sg6
F0.1
sg7
(lp3729
g9
asg10
S'thiophene'
p3730
sg12
I8030
sg13
F0.2
sg14
F-1.4
sg15
(lp3731
S'aromatic'
p3732
aS'heterocyclic'
p3733
asg18
g19
sg20
g21
ssS'mobley_3266352'
p3734
(dp3735
g3
S'CN(CC(F)(F)F)c1ccccc1'
p3736
sg25
F-3.69
sg26
F0.03
sg7
(lp3737
g28
asg29
S'N-methyl-N-(2,2,2-trifluoroethyl)aniline'
p3738
sg12
I13238893
sg13
F0.6
sg31
F-1.92
sg15
(lp3739
S'tertiary amine'
p3740
aS'tertiary aliphatic/aromatic amine (alkylarylamine)'
p3741
aS'halogen derivative'
p3742
aS'aromatic'
p3743
asg36
S'10.1139/v93-262'
p3744
sg38
g39
ssS'mobley_1231151'
p3745
(dp3746
g3
S'CC(C)Cl'
p3747
sg25
F0.82
sg26
F0.02
sg7
(lp3748
g28
asg29
S'2-chloropropane'
p3749
sg12
I6361
sg13
F0.6
sg31
F-0.25
sg15
(lp3750
S'alkyl chloride'
p3751
asg36
g37
sg38
g39
ssS'mobley_4035953'
p3752
(dp3753
g3
S'Cc1ccccc1O'
p3754
sg5
F-5.0
sg6
F0.1
sg7
(lp3755
g9
asg10
S'o-cresol'
p3756
sg12
I335
sg13
F0.2
sg14
F-5.9
sg15
(lp3757
S'phenol or hydroxyhetarene'
p3758
aS'aromatic'
p3759
asg18
g19
sg20
g21
ssS'mobley_1650157'
p3760
(dp3761
g3
S'CC(C)(C)O'
p3762
sg25
F-3.09
sg26
F0.02
sg7
(lp3763
g28
asg29
S'2-methylpropan-2-ol'
p3764
sg12
I6386
sg13
F0.6
sg31
F-4.47
sg15
(lp3765
S'tertiary alcohol'
p3766
asg36
g37
sg38
g39
ssS'mobley_299266'
p3767
(dp3768
g3
S'CC(=C)C'
p3769
sg25
F2.34
sg26
F0.02
sg7
(lp3770
g28
asg29
S'2-methylprop-1-ene'
p3771
sg12
I8255
sg13
F0.6
sg31
F1.16
sg15
(lp3772
S'alkene'
p3773
asg36
g37
sg38
g39
ssS'mobley_7774695'
p3774
(dp3775
g3
S'CNc1ccccc1'
p3776
sg25
F-5.74
sg26
F0.03
sg7
(lp3777
g28
asg29
S'N-methylaniline'
p3778
sg12
I7515
sg13
F0.6
sg31
F-4.69
sg15
(lp3779
S'secondary amine'
p3780
aS'secondary aliphatic/aromatic amine (alkylarylamine)'
p3781
aS'aromatic'
p3782
asg36
g37
sg38
g39
ssS'mobley_7066554'
p3783
(dp3784
g3
S'c1cc(ccc1O)Cl'
p3785
sg25
F-5.36
sg26
F0.02
sg7
(lp3786
g28
asg29
S'4-chlorophenol'
p3787
sg12
I4684
sg13
F0.6
sg31
F-7.03
sg15
(lp3788
S'phenol or hydroxyhetarene'
p3789
aS'aryl chloride'
p3790
aS'aromatic'
p3791
asg36
g37
sg38
g39
ssS'mobley_7326982'
p3792
(dp3793
g3
S'CC(C)O'
p3794
sg25
F-3.28
sg26
F0.02
sg7
(lp3795
g28
asg29
S'propan-2-ol'
p3796
sg12
I3776
sg13
F0.6
sg31
F-4.74
sg15
(lp3797
S'secondary alcohol'
p3798
asg36
g37
sg38
g39
ssS'mobley_7009711'
p3799
(dp3800
g3
S'Cc1cc(cc(c1)O)C'
p3801
sg25
F-5.12
sg26
F0.03
sg7
(lp3802
g28
asg29
S'3,5-dimethylphenol'
p3803
sg12
I7948
sg13
F0.6
sg31
F-6.27
sg15
(lp3804
S'phenol or hydroxyhetarene'
p3805
aS'aromatic'
p3806
asg36
g37
sg38
g39
ssS'mobley_9705941'
p3807
(dp3808
g3
S'Cc1cccs1'
p3809
sg25
F-0.22
sg26
F0.02
sg7
(lp3810
g28
asg29
S'2-methylthiophene'
p3811
sg12
I11126
sg13
F0.6
sg31
F-1.38
sg15
(lp3812
S'aromatic'
p3813
aS'heterocyclic'
p3814
asg36
g37
sg38
g39
ssS'mobley_4149784'
p3815
(dp3816
g3
S'c1cc2c(cc1Cl)Oc3ccc(cc3O2)Cl'
p3817
sg212
F-3.39
sg213
F0.02
sg7
(lp3818
g28
asg215
S'2,7-dichlorodibenzo-p-dioxin'
p3819
sg12
I36613
sg217
F0.12
sg218
F-3.67
sg15
(lp3820
S'diaryl ether'
p3821
aS'aryl chloride'
p3822
aS'aromatic'
p3823
aS'heterocyclic'
p3824
asg221
g222
sg223
g224
ssS'mobley_2213823'
p3825
(dp3826
g3
S'CCC(C)CC'
p3827
sg25
F2.72
sg26
F0.02
sg7
(lp3828
g28
asg29
S'3-methylpentane'
p3829
sg12
I7282
sg13
F0.6
sg31
F2.51
sg15
(lp3830
g63
asg36
g37
sg38
g39
ssS'mobley_7754849'
p3831
(dp3832
g3
S'CCOP(=S)(OCC)SCSP(=S)(OCC)OCC'
p3833
sg180
F-9.71
sg181
F0.05
sg7
(lp3834
g28
asg183
S'ethion'
p3835
sg12
I3286
sg185
F1.37
sg186
F-6.1
sg15
(lp3836
S'thiophosphoric acid ester'
p3837
asg189
g190
sg191
g192
ssS'mobley_8885088'
p3838
(dp3839
g3
S'C1CC=CC1'
p3840
sg25
F1.38
sg26
F0.02
sg7
(lp3841
g28
asg29
S'cyclopentene'
p3842
sg12
I8882
sg13
F0.6
sg31
F0.56
sg15
(lp3843
S'alkene'
p3844
asg36
g37
sg38
g39
ssS'mobley_3359593'
p3845
(dp3846
g3
S'CCCc1ccc(c(c1)OC)O'
p3847
sg480
F-4.1
sg481
F0.024
sg7
(lp3848
g28
asg484
S'4-propylguaiacol'
p3849
sg12
I17739
sg486
F0.18
sg497
F-5.26
sg15
(lp3850
S'phenol or hydroxyhetarene'
p3851
aS'alkyl aryl ether'
p3852
aS'aromatic'
p3853
asg503
g504
sg505
g506
ssS'mobley_7417968'
p3854
(dp3855
g3
S'CCOCCOC(=O)C'
p3856
sg480
F-6.04
sg481
F0.021
sg7
(lp3857
g28
asg484
S'2-ethoxyethyl acetate'
p3858
sg12
I8095
sg486
g487
(g491
S'\x9a\x99\x99\x99\x99\x99\xb9?'
p3859
tp3860
Rp3861
sg497
g487
(g491
S'=\n\xd7\xa3p=\x15\xc0'
p3862
tp3863
Rp3864
sg15
(lp3865
S'dialkyl ether'
p3866
aS'carboxylic acid ester'
p3867
asg503
g504
sg505
g506
ssS'mobley_9653690'
p3868
(dp3869
g3
S'CC1=CC[C@H](C[C@@H]1O)C(=C)C'
p3870
sg480
F-3.38
sg481
F0.021
sg7
(lp3871
g28
asg484
S'(1S,5R)-2-methyl-5-(1-methylethenyl)-2-cyclohexen-1-ol'
p3872
sg12
I94221
sg486
F0.43
sg497
F-4.44
sg15
(lp3873
S'secondary alcohol'
p3874
aS'alkene'
p3875
asg503
g504
sg505
g506
ssS'mobley_4699732'
p3876
(dp3877
g3
S'C[C@@H](CCl)Cl'
p3878
sg25
F-0.2
sg26
F0.02
sg7
(lp3879
S'Renamed mobley_4699732 from 1,2-dichloropropane to (2S)-1,2-dichloropropane (the name from the 3D structure) since the former did not completely specify stereochemistry.\n'
p3880
asg29
S'1,2-dichloropropane'
p3881
sg12
I6564
sg13
F0.6
sg31
F-1.27
sg15
(lp3882
S'alkyl chloride'
p3883
asg36
g37
sg38
g39
ssS'mobley_4305650'
p3884
(dp3885
g3
S'CCC#N'
p3886
sg25
F-1.27
sg26
F0.02
sg7
(lp3887
g28
asg29
S'propanenitrile'
p3888
sg12
I7854
sg13
F0.6
sg31
F-3.84
sg15
(lp3889
S'carbonitrile'
p3890
asg36
g37
sg38
g39
ssS'mobley_628951'
p3891
(dp3892
g3
S'c1cc(c(c(c1)Cl)c2c(cccc2Cl)Cl)Cl'
p3893
sg212
F-1.22
sg213
F0.04
sg7
(lp3894
g28
asg215
S'1,3-dichloro-2-(2,6-dichlorophenyl)benzene'
p3895
sg12
I27588
sg217
F0.12
sg218
F-2.28
sg15
(lp3896
S'aryl chloride'
p3897
aS'aromatic'
p3898
asg221
g222
sg223
g224
ssS'mobley_4883284'
p3899
(dp3900
g3
S'c1ccc(cc1)N'
p3901
sg25
F-5.92
sg26
F0.02
sg7
(lp3902
g28
asg29
S'aniline'
p3903
sg12
I6115
sg13
F0.6
sg31
F-5.49
sg15
(lp3904
S'primary amine'
p3905
aS'primary aromatic amine'
p3906
aS'aromatic'
p3907
asg36
g37
sg38
g39
ssS'mobley_3210206'
p3908
(dp3909
g3
S'C[C@@H](CO[N+](=O)[O-])O[N+](=O)[O-]'
p3910
sg180
F-5.62
sg181
F0.03
sg7
(lp3911
g28
asg183
S'1,2-dinitroxypropane'
p3912
sg12
I21075956
sg185
F0.1
sg186
F-4.95
sg15
(lp3913
S'nitrate'
p3914
asg189
g190
sg191
g192
ssS'mobley_2802855'
p3915
(dp3916
g3
S'CCCCBr'
p3917
sg25
F1.68
sg26
F0.02
sg7
(lp3918
g28
asg29
S'1-bromobutane'
p3919
sg12
I8002
sg13
F0.6
sg31
F-0.4
sg15
(lp3920
S'alkyl bromide'
p3921
asg36
g37
sg38
g39
ssS'mobley_1803862'
p3922
(dp3923
g3
S'CCC(C)C'
p3924
sg25
F2.52
sg26
F0.02
sg7
(lp3925
g28
asg29
S'isopentane'
p3926
sg12
I6556
sg13
F0.6
sg31
F2.38
sg15
(lp3927
g63
asg36
g37
sg38
g39
ssS'mobley_1858644'
p3928
(dp3929
g3
S'c1ccc(cc1)CCO'
p3930
sg25
F-5.33
sg26
F0.03
sg7
(lp3931
g28
asg29
S'2-phenylethanol'
p3932
sg12
I6054
sg13
F0.6
sg31
F-6.79
sg15
(lp3933
S'primary alcohol'
p3934
aS'aromatic'
p3935
asg36
g37
sg38
g39
ssS'mobley_8467917'
p3936
(dp3937
g3
S'CCCC/C=C/C'
p3938
sg25
F2.83
sg26
F0.02
sg7
(lp3939
S'Renamed mobley_8467917 from hept-2-ene to (E)-hept-2-ene (the name from the 3D structure) since the former did not completely specify stereochemistry.\n'
p3940
asg29
S'hept-2-ene'
p3941
sg12
I11611
sg13
F0.6
sg31
F1.68
sg15
(lp3942
S'alkene'
p3943
asg36
g37
sg38
g39
ssS'mobley_7017274'
p3944
(dp3945
g3
S'c1ccc2c(c1)ccc3c2cccc3'
p3946
sg25
F-5.15
sg26
F0.03
sg7
(lp3947
g28
asg29
S'phenanthrene'
p3948
sg12
I995
sg13
F0.6
sg31
F-3.88
sg15
(lp3949
S'aromatic'
p3950
asg36
g37
sg38
g39
ssS'mobley_8746821'
p3951
(dp3952
g3
S'Cc1cccnc1C'
p3953
sg25
F-3.27
sg26
F0.02
sg7
(lp3954
g28
asg29
S'2,3-dimethylpyridine'
p3955
sg12
I11420
sg13
F0.6
sg31
F-4.82
sg15
(lp3956
S'aromatic'
p3957
aS'heterocyclic'
p3958
asg36
g37
sg38
g39
ssS'mobley_4177472'
p3959
(dp3960
g3
S'CC(C)C(C)C(C)C'
p3961
sg25
F2.86
sg26
F0.03
sg7
(lp3962
g28
asg29
S'2,3,4-trimethylpentane'
p3963
sg12
I11269
sg13
F0.6
sg31
F2.56
sg15
(lp3964
g63
asg36
g37
sg38
g39
ssS'mobley_8522124'
p3965
(dp3966
g3
S'CCCCCCC#C'
p3967
sg25
F1.12
sg26
F0.03
sg7
(lp3968
g28
asg29
S'oct-1-yne'
p3969
sg12
I12370
sg13
F0.6
sg31
F0.71
sg15
(lp3970
S'alkyne'
p3971
asg36
g37
sg38
g39
ssS'mobley_1896013'
p3972
(dp3973
g3
S'C1[C@H]([C@@H]([C@H]([C@H](O1)O)O)O)O'
p3974
sg397
F-13.7
sg398
F0.1
sg7
(lp3975
g28
aS'Changed IUPAC name from d-xylose to (2S,3R,4S,5R)-oxane-2,3,4,5-tetrol for better handling/standardization.'
p3976
asg400
S'(2S,3R,4S,5R)-oxane-2,3,4,5-tetrol'
p3977
sg12
I6027
sg402
F0.27
sg403
F-20.52
sg15
(lp3978
S'hemiacetal'
p3979
aS'secondary alcohol'
p3980
aS'1,2-diol'
p3981
aS'heterocyclic'
p3982
asg409
g410
sg411
g412
ssS'mobley_2245668'
p3983
(dp3984
g3
S'CC(C)CO'
p3985
sg25
F-2.96
sg26
F0.02
sg7
(lp3986
g28
asg29
S'2-methylpropan-1-ol'
p3987
sg12
I6560
sg13
F0.6
sg31
F-4.5
sg15
(lp3988
S'primary alcohol'
p3989
asg36
g37
sg38
g39
ssS'mobley_8723116'
p3990
(dp3991
g3
S'c1cc(ccc1N)Cl'
p3992
sg25
F-5.28
sg26
F0.02
sg7
(lp3993
g28
asg29
S'4-chloroaniline'
p3994
sg12
I7812
sg13
F0.6
sg31
F-5.9
sg15
(lp3995
S'primary amine'
p3996
aS'primary aromatic amine'
p3997
aS'aryl chloride'
p3998
aS'aromatic'
p3999
asg36
g37
sg38
g39
ssS'mobley_129464'
p4000
(dp4001
g3
S'CCCCOCCCC'
p4002
sg25
F0.59
sg26
F0.03
sg7
(lp4003
g28
asg29
S'1-butoxybutane'
p4004
sg12
I8909
sg13
F0.6
sg31
F-0.83
sg15
(lp4005
S'dialkyl ether'
p4006
asg36
g37
sg38
g39
ssS'mobley_9434451'
p4007
(dp4008
g3
S'CC(C)Br'
p4009
sg25
F0.97
sg26
F0.02
sg7
(lp4010
g28
asg29
S'2-bromopropane'
p4011
sg12
I6358
sg13
F0.6
sg31
F-0.48
sg15
(lp4012
S'alkyl bromide'
p4013
asg36
g37
sg38
g39
ssS'mobley_7261305'
p4014
(dp4015
g3
S'NN'
p4016
sg25
F-7.1
sg26
F0.02
sg7
(lp4017
g28
asg29
S'hydrazine'
p4018
sg12
I9321
sg13
F0.6
sg31
F-9.3
sg15
(lp4019
S'hydrazine derivative'
p4020
asg36
g37
sg38
g39
ssS'mobley_8191186'
p4021
(dp4022
g3
S'C(C(F)(F)F)Cl'
p4023
sg25
F0.16
sg26
F0.02
sg7
(lp4024
g28
asg29
S'2-chloro-1,1,1-trifluoro-ethane'
p4025
sg12
I6408
sg13
F0.6
sg31
F0.06
sg15
(lp4026
S'alkyl chloride'
p4027
asg36
g37
sg38
g39
ssS'mobley_4434915'
p4028
(dp4029
g3
S'CCl'
p4030
sg25
F0.81
sg26
F0.01
sg7
(lp4031
g28
asg29
S'chloromethane'
p4032
sg12
I6327
sg13
F0.6
sg31
F-0.55
sg15
(lp4033
S'alkyl chloride'
p4034
asg36
g37
sg38
g39
ssS'mobley_667278'
p4035
(dp4036
g3
S'c1cc(c(c(c1c2cc(c(c(c2Cl)Cl)Cl)Cl)Cl)Cl)Cl'
p4037
sg212
F-2.21
sg213
F0.08
sg7
(lp4038
g28
asg215
S'1,2,3,4-tetrachloro-5-(2,3,4-trichlorophenyl)benzene'
p4039
sg12
I37037
sg217
F0.1
sg218
F-4.4
sg15
(lp4040
S'aryl chloride'
p4041
aS'aromatic'
p4042
asg221
g222
sg223
g224
ssS'mobley_6911232'
p4043
(dp4044
g3
S'CCOC'
p4045
sg25
F-0.82
sg26
F0.02
sg7
(lp4046
g28
asg29
S'methoxyethane'
p4047
sg12
I10903
sg13
F0.6
sg31
F-2.1
sg15
(lp4048
S'dialkyl ether'
p4049
asg36
g37
sg38
g39
ssS'mobley_8057732'
p4050
(dp4051
g3
S'c1cc(cc(c1)Cl)O'
p4052
sg25
F-5.28
sg26
F0.03
sg7
(lp4053
g28
asg29
S'3-chlorophenol'
p4054
sg12
I7933
sg13
F0.6
sg31
F-6.62
sg15
(lp4055
S'phenol or hydroxyhetarene'
p4056
aS'aryl chloride'
p4057
aS'aromatic'
p4058
asg36
g37
sg38
g39
ssS'mobley_5310099'
p4059
(dp4060
g3
S'CCCCC=C'
p4061
sg25
F2.59
sg26
F0.02
sg7
(lp4062
g28
asg29
S'hex-1-ene'
p4063
sg12
I11597
sg13
F0.6
sg31
F1.58
sg15
(lp4064
S'alkene'
p4065
asg36
g37
sg38
g39
ssS'mobley_5006685'
p4066
(dp4067
g3
S'CC(=C)[C@H]1CCC(=CC1)C=O'
p4068
sg480
F-3.61
sg481
F0.02
sg7
(lp4069
S'Renamed mobley_5006685 from 4-(1-Methylethenyl)-1-cyclohexene-1-carboxaldehyde to (4S)-4-isopropenylcyclohexene-1-carbaldehyde (the name from the 3D structure) since the former did not completely specify stereochemistry.\n'
p4070
asg484
S'4-(1-Methylethenyl)-1-cyclohexene-1-carboxaldehyde'
p4071
sg12
I16441
sg486
g487
(g491
S'\xc3\xf5(\\\x8f\xc2\xc5?'
p4072
tp4073
Rp4074
sg497
g487
(g491
S'\\\x8f\xc2\xf5(\\\x10\xc0'
p4075
tp4076
Rp4077
sg15
(lp4078
S'aldehyde'
p4079
aS'alkene'
p4080
asg503
g504
sg505
g506
ssS'mobley_6198745'
p4081
(dp4082
g3
S'CC(=O)OCC(COC(=O)C)OC(=O)C'
p4083
sg1214
F-12.16
sg1215
F0.1
sg1216
(lp4084
g1218
ag28
aS'Changed IUPAC name from glycerol triacetate to 2,3-diacetoxypropyl acetate for better handling/standardization.'
p4085
ag167
asg1219
S'2,3-diacetoxypropyl acetate'
p4086
sg12
I5541
sg13
F0.2
sg1221
F-8.84
sg15
(lp4087
S'carboxylic acid ester'
p4088
asg1224
g1225
sg1226
g1225
ssS'mobley_3201701'
p4089
(dp4090
g3
S'Cc1c(nc(nc1OC(=O)N(C)C)N(C)C)C'
p4091
sg180
F-13.68
sg181
F0.04
sg7
(lp4092
g28
aS'Changed IUPAC name from pirimor to 2-(dimethylamino)-5,6-dimethylpyrimidin-4-yl N,N-dimethylcarbamate for better handling/standardization.'
p4093
asg183
S'pirimor'
p4094
sg12
I31645
sg185
F1.93
sg186
F-9.41
sg15
(lp4095
S'tertiary amine'
p4096
aS'tertiary aliphatic/aromatic amine (alkylarylamine)'
p4097
aS'carbamic acid ester (urethane)'
p4098
aS'aromatic'
p4099
aS'heterocyclic'
p4100
asg189
g190
sg191
g192
ssS'mobley_4690963'
p4101
(dp4102
g3
S'CCOCCOCC'
p4103
sg25
F-3.08
sg26
F0.03
sg7
(lp4104
g28
asg29
S'1,2-diethoxyethane'
p4105
sg12
I12375
sg13
F0.6
sg31
F-3.54
sg15
(lp4106
S'dialkyl ether'
p4107
asg36
g37
sg38
g39
ssS'mobley_1929982'
p4108
(dp4109
g3
S'S'
p4110
sg25
F-1.17
sg26
F0.01
sg7
(lp4111
g28
asg29
S'hydrogen sulfide'
p4112
sg12
I402
sg13
F0.6
sg31
F-0.7
sg15
(lp4113
g63
asg36
g37
sg38
g39
ssS'mobley_3187514'
p4114
(dp4115
g3
S'Cc1ccccc1N'
p4116
sg25
F-5.37
sg26
F0.03
sg7
(lp4117
g28
asg29
S'2-methylaniline'
p4118
sg12
I7242
sg13
F0.6
sg31
F-5.53
sg15
(lp4119
S'primary amine'
p4120
aS'primary aromatic amine'
p4121
aS'aromatic'
p4122
asg36
g37
sg38
g39
ssS'mobley_4964807'
p4123
(dp4124
g3
S'CC(=O)CO[N+](=O)[O-]'
p4125
sg180
F-5.18
sg181
F0.02
sg7
(lp4126
g28
asg183
S'nitroxyacetone'
p4127
sg12
I81226
sg185
F0.1
sg186
F-5.99
sg15
(lp4128
S'ketone'
p4129
aS'nitrate'
p4130
asg189
g190
sg191
g192
ssS'mobley_210639'
p4131
(dp4132
g3
S'CC(C)I'
p4133
sg25
F0.29
sg26
F0.02
sg7
(lp4134
g28
asg29
S'2-iodopropane'
p4135
sg12
I6362
sg13
F0.6
sg31
F-0.46
sg15
(lp4136
S'alkyl iodide'
p4137
asg36
g37
sg38
g39
ssS'mobley_1075836'
p4138
(dp4139
g3
S'CCC(=O)OC'
p4140
sg25
F-3.83
sg26
F0.02
sg7
(lp4141
g28
asg29
S'methyl propanoate'
p4142
sg12
I11124
sg13
F0.6
sg31
F-2.93
sg15
(lp4143
S'carboxylic acid ester'
p4144
asg36
g37
sg38
g39
ssS'mobley_6091882'
p4145
(dp4146
g3
S'C=C'
p4147
sg25
F2.36
sg26
F0.01
sg7
(lp4148
g28
asg29
S'ethylene'
p4149
sg12
I6325
sg13
F0.6
sg31
F1.28
sg15
(lp4150
S'alkene'
p4151
asg36
g37
sg38
g39
ssS'mobley_8514745'
p4152
(dp4153
g3
S'CCCCCOC(=O)C'
p4154
sg25
F-2.83
sg26
F0.03
sg7
(lp4155
g28
asg29
S'pentyl acetate'
p4156
sg12
I12348
sg13
F0.6
sg31
F-2.51
sg15
(lp4157
S'carboxylic acid ester'
p4158
asg36
g37
sg38
g39
ssS'mobley_8668219'
p4159
(dp4160
g3
S'CC[C@@H](C)C(C)C'
p4161
sg25
F2.66
sg26
F0.03
sg7
(lp4162
S'Renamed mobley_8668219 from 2,3-dimethylpentane to (3R)-2,3-dimethylpentane (the name from the 3D structure) since the former did not completely specify stereochemistry.\n'
p4163
asg29
S'2,3-dimethylpentane'
p4164
sg12
I11260
sg13
F0.6
sg31
F2.52
sg15
(lp4165
g63
asg36
g37
sg38
g39
ssS'mobley_9729792'
p4166
(dp4167
g3
S'C1C=CC=CC=C1'
p4168
sg25
F0.15
sg26
F0.02
sg7
(lp4169
g28
asg29
S'cyclohepta-1,3,5-triene'
p4170
sg12
I11000
sg13
F0.6
sg31
F-0.99
sg15
(lp4171
S'alkene'
p4172
asg36
g37
sg38
g39
ssS'mobley_2784376'
p4173
(dp4174
g3
S'C1CC1'
p4175
sg25
F2.64
sg26
F0.02
sg7
(lp4176
g28
asg29
S'cyclopropane'
p4177
sg12
I6351
sg13
F0.6
sg31
F0.75
sg15
(lp4178
g63
asg36
g37
sg38
g39
ssS'mobley_8739734'
p4179
(dp4180
g3
S'CC(C)C(=O)C'
p4181
sg25
F-2.93
sg26
F0.02
sg7
(lp4182
g28
asg29
S'3-methylbutan-2-one'
p4183
sg12
I11251
sg13
F0.6
sg31
F-3.24
sg15
(lp4184
S'ketone'
p4185
asg36
g37
sg38
g39
ssS'mobley_6338073'
p4186
(dp4187
g3
S'CCNc1nc(nc(n1)SC)NC(C)(C)C'
p4188
sg180
F-7.9
sg181
F0.05
sg7
(lp4189
g28
aS'Changed IUPAC name from terbutryn to 2-N-tert-butyl-4-N-ethyl-6-(methylsulfanyl)-1,3,5-triazine-2,4-diamine for better handling/standardization.'
p4190
asg183
S'terbutryn'
p4191
sg12
I13450
sg185
F0.42
sg186
F-6.68
sg15
(lp4192
S'thioether'
p4193
aS'secondary amine'
p4194
aS'secondary aliphatic/aromatic amine (alkylarylamine)'
p4195
aS'aromatic'
p4196
aS'heterocyclic'
p4197
asg189
g190
sg191
g192
ssS'mobley_4884177'
p4198
(dp4199
g3
S'CCc1cccnc1'
p4200
sg25
F-2.96
sg26
F0.02
sg7
(lp4201
g28
asg29
S'3-ethylpyridine'
p4202
sg12
I10823
sg13
F0.6
sg31
F-4.59
sg15
(lp4203
S'aromatic'
p4204
aS'heterocyclic'
p4205
asg36
g37
sg38
g39
ssS'mobley_6081058'
p4206
(dp4207
g3
S'CCCCC/C=C/C=O'
p4208
sg25
F-2.47
sg26
F0.03
sg7
(lp4209
S'Renamed mobley_6081058 from oct-2-enal to (E)-oct-2-enal (the name from the 3D structure) since the former did not completely specify stereochemistry.\n'
p4210
asg29
S'oct-2-enal'
p4211
sg12
I16900
sg13
F0.6
sg31
F-3.43
sg15
(lp4212
S'aldehyde'
p4213
aS'alkene'
p4214
asg36
g37
sg38
g39
ssS'mobley_9257453'
p4215
(dp4216
g3
S'c1cc(c(cc1O)Cl)Cl'
p4217
sg480
F-5.32
sg481
F0.019
sg7
(lp4218
g28
asg484
S'3,4-dichlorophenol'
p4219
sg12
I7258
sg486
g487
(g491
S'\x9a\x99\x99\x99\x99\x99\xb9?'
p4220
tp4221
Rp4222
sg497
g487
(g491
S')\\\x8f\xc2\xf5(\x1d\xc0'
p4223
tp4224
Rp4225
sg15
(lp4226
S'phenol or hydroxyhetarene'
p4227
aS'aryl chloride'
p4228
aS'aromatic'
p4229
asg503
g504
sg505
g506
ssS'mobley_36119'
p4230
(dp4231
g3
S'CCCCCCCCO'
p4232
sg25
F-2.65
sg26
F0.03
sg7
(lp4233
g28
asg29
S'octan-1-ol'
p4234
sg12
I957
sg13
F0.6
sg31
F-4.09
sg15
(lp4235
S'primary alcohol'
p4236
asg36
g37
sg38
g39
ssS'mobley_5079234'
p4237
(dp4238
g3
S'CCCCCCCO'
p4239
sg25
F-2.72
sg26
F0.02
sg7
(lp4240
g28
asg29
S'heptan-1-ol'
p4241
sg12
I8129
sg13
F0.6
sg31
F-4.21
sg15
(lp4242
S'primary alcohol'
p4243
asg36
g37
sg38
g39
ssS'mobley_2487143'
p4244
(dp4245
g3
S'CCCCC(=O)C'
p4246
sg25
F-2.77
sg26
F0.02
sg7
(lp4247
g28
asg29
S'hexan-2-one'
p4248
sg12
I11583
sg13
F0.6
sg31
F-3.28
sg15
(lp4249
S'ketone'
p4250
asg36
g37
sg38
g39
ssS'mobley_430089'
p4251
(dp4252
g3
S'CCCC#C'
p4253
sg25
F0.45
sg26
F0.02
sg7
(lp4254
g28
asg29
S'pent-1-yne'
p4255
sg12
I12309
sg13
F0.6
sg31
F0.01
sg15
(lp4256
S'alkyne'
p4257
asg36
g37
sg38
g39
ssS'mobley_7829570'
p4258
(dp4259
g3
S'CCCC[N@](CC)c1c(cc(cc1[N+](=O)[O-])C(F)(F)F)[N+](=O)[O-]'
p4260
sg180
F-2.68
sg181
F0.04
sg7
(lp4261
g28
aS'Changed IUPAC name from benefin to N-butyl-N-ethyl-2,6-dinitro-4-(trifluoromethyl)aniline for better handling/standardization.'
p4262
asg183
S'N-butyl-N-ethyl-2,6-dinitro-4-(trifluoromethyl)aniline'
p4263
sg12
I2319
sg185
F1.93
sg186
F-3.51
sg15
(lp4264
S'tertiary amine'
p4265
aS'tertiary aliphatic/aromatic amine (alkylarylamine)'
p4266
aS'halogen derivative'
p4267
aS'nitro'
p4268
aS'aromatic'
p4269
asg189
g190
sg191
g192
ssS'mobley_5890803'
p4270
(dp4271
g3
S'CCCOC(=O)CC'
p4272
sg25
F-2.95
sg26
F0.02
sg7
(lp4273
g28
asg29
S'propyl propanoate'
p4274
sg12
I7803
sg13
F0.6
sg31
F-2.44
sg15
(lp4275
S'carboxylic acid ester'
p4276
asg36
g37
sg38
g39
ssS'mobley_4395315'
p4277
(dp4278
g3
S'Cc1cc(ccc1Cl)O'
p4279
sg25
F-4.9
sg26
F0.03
sg7
(lp4280
g28
asg29
S'4-chloro-3-methyl-phenol'
p4281
sg12
I1732
sg13
F0.6
sg31
F-6.79
sg15
(lp4282
S'phenol or hydroxyhetarene'
p4283
aS'aryl chloride'
p4284
aS'aromatic'
p4285
asg36
g37
sg38
g39
ssS'mobley_1722522'
p4286
(dp4287
g3
S'CCCC(=O)OCC'
p4288
sg25
F-3.04
sg26
F0.02
sg7
(lp4289
g28
asg29
S'ethyl butanoate'
p4290
sg12
I7762
sg13
F0.6
sg31
F-2.49
sg15
(lp4291
S'carboxylic acid ester'
p4292
asg36
g37
sg38
g39
ssS'mobley_766666'
p4293
(dp4294
g3
S'C(=C(Cl)Cl)Cl'
p4295
sg25
F0.99
sg26
F0.02
sg7
(lp4296
g28
asg29
S'1,1,2-trichloroethylene'
p4297
sg12
I6575
sg13
F0.6
sg31
F-0.44
sg15
(lp4298
S'halogen derivative'
p4299
asg36
g37
sg38
g39
ssS'mobley_4188615'
p4300
(dp4301
g3
S'CN(C)C(=O)c1ccccc1'
p4302
sg25
F-7.98
sg26
F0.04
sg7
(lp4303
g28
asg29
S'N,N-dimethylbenzamide'
p4304
sg12
I11916
sg13
F0.6
sg31
F-9.29
sg15
(lp4305
S'tertiary carboxylic acid amide'
p4306
aS'aromatic'
p4307
asg36
g610
sg38
g39
ssS'mobley_3999471'
p4308
(dp4309
g3
S'CC(Cl)Cl'
p4310
sg25
F0.17
sg26
F0.02
sg7
(lp4311
g28
asg29
S'1,1-dichloroethane'
p4312
sg12
I6365
sg13
F0.6
sg31
F-0.84
sg15
(lp4313
S'alkyl chloride'
p4314
asg36
g37
sg38
g39
ssS'mobley_5747981'
p4315
(dp4316
g3
S'COCC(OC)(OC)OC'
p4317
sg25
F-5.97
sg26
F0.04
sg7
(lp4318
g28
asg29
S'1,1,1,2-tetramethoxyethane'
p4319
sg12
I141897
sg13
F0.6
sg31
F-5.73
sg15
(lp4320
S'dialkyl ether'
p4321
aS'orthocarboxylic acid derivative'
p4322
aS'orthoester'
p4323
asg36
g48
sg38
g39
ssS'mobley_9671033'
p4324
(dp4325
g3
S'CCC[N+](=O)[O-]'
p4326
sg25
F-1.38
sg26
F0.02
sg7
(lp4327
g28
asg29
S'1-nitropropane'
p4328
sg12
I7903
sg13
F0.6
sg31
F-3.34
sg15
(lp4329
S'nitro'
p4330
asg36
g37
sg38
g39
ssS'mobley_525934'
p4331
(dp4332
g3
S'CS'
p4333
sg5
F-0.2
sg6
F0.1
sg7
(lp4334
g9
asg10
S'methanethiol'
p4335
sg12
I878
sg13
F0.2
sg14
F-1.2
sg15
(lp4336
S'thiol (sulfanyl)'
p4337
aS'alkylthiol'
p4338
asg18
g19
sg20
g21
ssS'mobley_8578590'
p4339
(dp4340
g3
S'CS(=O)C'
p4341
sg25
F-8.32
sg26
F0.03
sg7
(lp4342
g28
aS'Updated 10/22/13 using the mean of experimental data from two sources from J. Peter Guthrie --  Watts & Brimblecombe (1987) and Taft & Abraham et al. (1985). Uncertainty taken as the standard deviation across the two datapoints..\n'
p4343
asg29
S'methylsulfinylmethane'
p4344
sg12
I679
sg13
g487
(g491
S'8\n\xd7\xa3p=\xe2?'
p4345
tp4346
Rp4347
sg31
g487
(g491
S'\x90\xc2\xf5(\\\x8f"\xc0'
p4348
tp4349
Rp4350
sg15
(lp4351
S'sulfoxide'
p4352
asg36
S'10.1080/09593338709384509 and 10.1038/313384a0'
p4353
sg38
g39
ssS'mobley_1821184'
p4354
(dp4355
g3
S'Cc1c[nH]c2c1cccc2'
p4356
sg25
F-6.55
sg26
F0.03
sg7
(lp4357
g28
asg29
S'3-methyl-1H-indole'
p4358
sg12
I6736
sg13
F0.6
sg31
F-5.88
sg15
(lp4359
S'aromatic'
p4360
aS'heterocyclic'
p4361
asg36
g3416
sg38
g39
ssS'mobley_6571751'
p4362
(dp4363
g3
S'CC1=CCCCC1'
p4364
sg25
F1.33
sg26
F0.02
sg7
(lp4365
g28
asg29
S'1-methylcyclohexene'
p4366
sg12
I11574
sg13
F0.6
sg31
F0.67
sg15
(lp4367
S'alkene'
p4368
asg36
g37
sg38
g39
ssS'mobley_4553008'
p4369
(dp4370
g3
S'c1cc(ccc1Cl)Cl'
p4371
sg25
F-0.1
sg26
F0.02
sg7
(lp4372
g28
asg29
S'1,4-dichlorobenzene'
p4373
sg12
I4685
sg13
F0.6
sg31
F-1.01
sg15
(lp4374
S'aryl chloride'
p4375
aS'aromatic'
p4376
asg36
g37
sg38
g39
ssS'mobley_5690766'
p4377
(dp4378
g3
S'C=CCCC=C'
p4379
sg25
F2.44
sg26
F0.02
sg7
(lp4380
g28
asg29
S'hexa-1,5-diene'
p4381
sg12
I11598
sg13
F0.6
sg31
F1.01
sg15
(lp4382
S'alkene'
p4383
asg36
g37
sg38
g39
ssS'mobley_7532833'
p4384
(dp4385
g3
S'CC#N'
p4386
sg25
F-2.51
sg26
F0.01
sg7
(lp4387
g28
asg29
S'acetonitrile'
p4388
sg12
I6342
sg13
F0.6
sg31
F-3.88
sg15
(lp4389
S'carbonitrile'
p4390
asg36
S'10.1021/jp0264477'
p4391
sg38
g39
ssS'mobley_3398536'
p4392
(dp4393
g3
S'c1ccc(cc1)I'
p4394
sg25
F-0.34
sg26
F0.02
sg7
(lp4395
g28
asg29
S'iodobenzene'
p4396
sg12
I11575
sg13
F0.6
sg31
F-1.74
sg15
(lp4397
S'aryl iodide'
p4398
aS'aromatic'
p4399
asg36
g37
sg38
g39
ssS'mobley_3546460'
p4400
(dp4401
g3
S'CCCCCCO'
p4402
sg25
F-3.03
sg26
F0.02
sg7
(lp4403
g28
asg29
S'hexan-1-ol'
p4404
sg12
I8103
sg13
F0.6
sg31
F-4.4
sg15
(lp4405
S'primary alcohol'
p4406
asg36
g37
sg38
g39
ssS'mobley_7106722'
p4407
(dp4408
g3
S'CCCC(C)C'
p4409
sg25
F2.78
sg26
F0.02
sg7
(lp4410
g28
asg29
S'isohexane'
p4411
sg12
I7892
sg13
F0.6
sg31
F2.51
sg15
(lp4412
g63
asg36
g37
sg38
g39
ssS'mobley_2782339'
p4413
(dp4414
g3
S'c1ccc2c(c1)C(=O)NC2=O'
p4415
sg397
F-11.74
sg398
F0.05
sg7
(lp4416
g28
asg400
S'phthalimide'
p4417
sg12
I6809
sg402
F0.5
sg403
F-9.61
sg15
(lp4418
S'carboxylic acid imide, N-unsubstituted'
p4419
aS'aromatic'
p4420
aS'heterocyclic'
p4421
asg409
g410
sg411
g412
ssS'mobley_6727159'
p4422
(dp4423
g3
S'C(CO[N+](=O)[O-])O'
p4424
sg180
F-6.5
sg181
F0.03
sg7
(lp4425
g28
aS'Changed IUPAC name from ethyleneglycol mononitrate to 2-(nitrooxy)ethan-1-ol for better handling/standardization.'
p4426
asg183
S'2-(nitrooxy)ethan-1-ol'
p4427
sg12
I85254
sg185
F0.1
sg186
F-8.18
sg15
(lp4428
S'primary alcohol'
p4429
aS'nitrate'
p4430
asg189
g190
sg191
g192
ssS'mobley_4639255'
p4431
(dp4432
g3
S'C(CO)O'
p4433
sg25
F-7.62
sg26
F0.03
sg7
(lp4434
g28
asg29
S'ethylene glycol'
p4435
sg12
I174
sg13
F0.6
sg31
F-9.3
sg15
(lp4436
S'primary alcohol'
p4437
aS'1,2-diol'
p4438
asg36
g37
sg38
g39
ssS'mobley_3034976'
p4439
(dp4440
g3
S'CC(=O)O'
p4441
sg25
F-5.95
sg26
F0.02
sg7
(lp4442
g28
asg29
S'acetic acid'
p4443
sg12
I176
sg13
F0.6
sg31
F-6.69
sg15
(lp4444
S'carboxylic acid'
p4445
asg36
g37
sg38
g39
ssS'mobley_9565165'
p4446
(dp4447
g3
S'c1ccc-2c(c1)Cc3c2cccc3'
p4448
sg25
F-4.29
sg26
F0.02
sg7
(lp4449
g28
asg29
S'9H-fluorene'
p4450
sg12
I6853
sg13
F0.6
sg31
F-3.35
sg15
(lp4451
S'aromatic'
p4452
asg36
g37
sg38
g39
ssS'mobley_2609604'
p4453
(dp4454
g3
S'CCC(C)(C)CC'
p4455
sg25
F2.53
sg26
F0.03
sg7
(lp4456
g28
asg29
S'3,3-dimethylpentane'
p4457
sg12
I11229
sg13
F0.6
sg31
F2.56
sg15
(lp4458
g63
asg36
g37
sg38
g39
ssS'mobley_5747188'
p4459
(dp4460
g3
S'Cc1ccccc1[N+](=O)[O-]'
p4461
sg25
F-3.14
sg26
F0.02
sg7
(lp4462
g28
asg29
S'1-methyl-2-nitro-benzene'
p4463
sg12
I6944
sg13
F0.6
sg31
F-3.58
sg15
(lp4464
S'nitro'
p4465
aS'aromatic'
p4466
asg36
g37
sg38
g39
ssS'mobley_1967551'
p4467
(dp4468
g3
S'CC=O'
p4469
sg25
F-3.39
sg26
F0.02
sg7
(lp4470
g28
asg29
S'acetaldehyde'
p4471
sg12
I177
sg13
F0.6
sg31
F-3.5
sg15
(lp4472
S'aldehyde'
p4473
asg36
g37
sg38
g39
ssS'mobley_4587267'
p4474
(dp4475
g3
S'C([C@H]([C@H]([C@@H]([C@@H](CO)O)O)O)O)O'
p4476
sg480
F-18.64
sg481
F0.043
sg7
(lp4477
g28
asg484
S'(2R,3R,4R,5R)-Hexan-1,2,3,4,5,6-hexol'
p4478
sg12
I6251
sg486
g487
(g491
S'{\x14\xaeG\xe1z\xd4?'
p4479
tp4480
Rp4481
sg497
g487
(g491
S'\x1f\x85\xebQ\xb8\x9e7\xc0'
p4482
tp4483
Rp4484
sg15
(lp4485
S'primary alcohol'
p4486
aS'secondary alcohol'
p4487
aS'1,2-diol'
p4488
asg503
g504
sg505
g506
ssS'mobley_172879'
p4489
(dp4490
g3
S'c1ccc2c(c1)Oc3ccccc3O2'
p4491
sg212
F-4.8
sg213
F0.02
sg7
(lp4492
g28
asg215
S'dibenzo-p-dioxin'
p4493
sg12
I9216
sg217
F0.1
sg218
F-3.15
sg15
(lp4494
S'diaryl ether'
p4495
aS'aromatic'
p4496
aS'heterocyclic'
p4497
asg221
g222
sg223
g224
ssS'mobley_2457863'
p4498
(dp4499
g3
S'COc1cccc(c1)O'
p4500
sg25
F-7.03
sg26
F0.03
sg7
(lp4501
g28
asg29
S'3-methoxyphenol'
p4502
sg12
I9007
sg13
F0.6
sg31
F-7.66
sg15
(lp4503
S'phenol or hydroxyhetarene'
p4504
aS'alkyl aryl ether'
p4505
aS'aromatic'
p4506
asg36
g37
sg38
g39
ssS'mobley_2143011'
p4507
(dp4508
g3
S'CC(C)C=C'
p4509
sg25
F2.8
sg26
F0.02
sg7
(lp4510
g28
asg29
S'3-methylbut-1-ene'
p4511
sg12
I11239
sg13
F0.6
sg31
F1.83
sg15
(lp4512
S'alkene'
p4513
asg36
g4391
sg38
g39
ssS'mobley_2837389'
p4514
(dp4515
g3
S'c1cc[nH]c1'
p4516
sg25
F-3.87
sg26
F0.02
sg7
(lp4517
g28
asg29
S'pyrrole'
p4518
sg12
I8027
sg13
F0.6
sg31
F-4.78
sg15
(lp4519
S'aromatic'
p4520
aS'heterocyclic'
p4521
asg36
g37
sg38
g39
ssS'mobley_8789465'
p4522
(dp4523
g3
S'c1ccc(c(c1)O)I'
p4524
sg25
F-2.91
sg26
F0.03
sg7
(lp4525
g28
asg29
S'2-iodophenol'
p4526
sg12
I10784
sg13
F0.6
sg31
F-6.2
sg15
(lp4527
S'phenol or hydroxyhetarene'
p4528
aS'aryl iodide'
p4529
aS'aromatic'
p4530
asg36
g37
sg38
g39
ssS'mobley_2859600'
p4531
(dp4532
g3
S'C=Cc1ccccc1'
p4533
sg25
F-1.32
sg26
F0.02
sg7
(lp4534
g28
asg29
S'styrene'
p4535
sg12
I7501
sg13
F0.6
sg31
F-1.24
sg15
(lp4536
S'alkene'
p4537
aS'aromatic'
p4538
asg36
g37
sg38
g39
ssS'mobley_1855337'
p4539
(dp4540
g3
S'c1c(cc(c(c1Cl)Cl)Cl)Cl'
p4541
sg25
F-0.02
sg26
F0.02
sg7
(lp4542
g28
asg29
S'1,2,3,5-tetrachlorobenzene'
p4543
sg12
I12468
sg13
F0.6
sg31
F-1.62
sg15
(lp4544
S'aryl chloride'
p4545
aS'aromatic'
p4546
asg36
g37
sg38
g39
ssS'mobley_9740891'
p4547
(dp4548
g3
S'c1cc(c(c(c1)Cl)C#N)Cl'
p4549
sg180
F-2.57
sg181
F0.02
sg7
(lp4550
g28
asg183
S'dichlobenil'
p4551
sg12
I3031
sg185
F1.93
sg186
F-4.71
sg15
(lp4552
S'aryl chloride'
p4553
aS'carbonitrile'
p4554
aS'aromatic'
p4555
asg189
g190
sg191
g192
ssS'mobley_2771569'
p4556
(dp4557
g3
S'CN1CCNCC1'
p4558
sg25
F-8.3
sg26
F0.03
sg7
(lp4559
g28
asg29
S'1-methylpiperazine'
p4560
sg12
I53167
sg13
F0.6
sg31
F-7.77
sg15
(lp4561
S'secondary amine'
p4562
aS'secondary aliphatic amine (dialkylamine)'
p4563
aS'tertiary amine'
p4564
aS'tertiary aliphatic amine (trialkylamine)'
p4565
aS'heterocyclic'
p4566
asg36
g37
sg38
g39
ssS'mobley_8221999'
p4567
(dp4568
g3
S'CCCC#N'
p4569
sg25
F-2.23
sg26
F0.02
sg7
(lp4570
g28
asg29
S'butanenitrile'
p4571
sg12
I8008
sg13
F0.6
sg31
F-3.64
sg15
(lp4572
S'carbonitrile'
p4573
asg36
g37
sg38
g39
ssS'mobley_4762983'
p4574
(dp4575
g3
S'CCCCCC=C'
p4576
sg25
F2.97
sg26
F0.02
sg7
(lp4577
g28
asg29
S'hept-1-ene'
p4578
sg12
I11610
sg13
F0.6
sg31
F1.66
sg15
(lp4579
S'alkene'
p4580
asg36
g37
sg38
g39
ssS'mobley_2279874'
p4581
(dp4582
g3
S'COC(OC)OC'
p4583
sg25
F-4.06
sg26
F0.03
sg7
(lp4584
g28
asg29
S'trimethoxymethane'
p4585
sg12
I9005
sg13
F0.6
sg31
F-4.42
sg15
(lp4586
S'orthocarboxylic acid derivative'
p4587
aS'orthoester'
p4588
asg36
g1371
sg38
g39
ssS'mobley_8764620'
p4589
(dp4590
g3
S'c1cc(cnc1)C#N'
p4591
sg25
F-4.63
sg26
F0.02
sg7
(lp4592
g28
asg29
S'pyridine-3-carbonitrile'
p4593
sg12
I79
sg13
F0.6
sg31
F-6.75
sg15
(lp4594
S'carbonitrile'
p4595
aS'aromatic'
p4596
aS'heterocyclic'
p4597
asg36
g37
sg38
g39
ssS'mobley_4613090'
p4598
(dp4599
g3
S'c1ccc(cc1)Cn2ccnc2'
p4600
sg480
F-7.94
sg481
F0.022
sg7
(lp4601
g28
asg484
S'1-benzylimidazole'
p4602
sg12
I77918
sg486
g487
(g491
S'\xb8\x1e\x85\xebQ\xb8\xbe?'
p4603
tp4604
Rp4605
sg497
g487
(g491
S'\x85\xebQ\xb8\x1e\x85\x1e\xc0'
p4606
tp4607
Rp4608
sg15
(lp4609
S'aromatic'
p4610
aS'heterocyclic'
p4611
asg503
g504
sg505
g506
ssS'mobley_6978427'
p4612
(dp4613
g3
S'COC(=O)C1CCCCC1'
p4614
sg25
F-4.29
sg26
F0.02
sg7
(lp4615
g28
asg29
S'methyl cyclohexanecarboxylate'
p4616
sg12
I20748
sg13
F0.6
sg31
F-3.3
sg15
(lp4617
S'carboxylic acid ester'
p4618
asg36
g37
sg38
g39
ssS'mobley_6739648'
p4619
(dp4620
g3
S'C1COCCO1'
p4621
sg25
F-4.35
sg26
F0.02
sg7
(lp4622
g28
asg29
S'1,4-dioxane'
p4623
sg12
I31275
sg13
F0.6
sg31
F-5.06
sg15
(lp4624
S'dialkyl ether'
p4625
aS'heterocyclic'
p4626
asg36
g37
sg38
g39
ssS'mobley_1800170'
p4627
(dp4628
g3
S'CCS'
p4629
sg25
F-0.4
sg26
F0.02
sg7
(lp4630
g28
asg29
S'ethanethiol'
p4631
sg12
I6343
sg13
F0.6
sg31
F-1.14
sg15
(lp4632
S'thiol (sulfanyl)'
p4633
aS'alkylthiol'
p4634
asg36
g37
sg38
g39
ssS'mobley_1046331'
p4635
(dp4636
g3
S'c1ccc(cc1)OC=O'
p4637
sg25
F-4.83
sg26
F0.02
sg7
(lp4638
g28
asg29
S'phenyl formate'
p4639
sg12
I74626
sg13
F0.6
sg31
F-3.82
sg15
(lp4640
S'carboxylic acid ester'
p4641
aS'aromatic'
p4642
asg36
g746
sg38
g39
ssS'mobley_9821936'
p4643
(dp4644
g3
S'c12c(c(c(c(c1Cl)Cl)Cl)Cl)Oc3c(c(c(c(c3Cl)Cl)Cl)Cl)O2'
p4645
sg212
F-1.15
sg213
F0.04
sg7
(lp4646
g28
asg215
S'1,2,3,4,6,7,8,9-octachlorodibenzo-p-dioxin'
p4647
sg12
I18636
sg217
F1.0
sg218
F-4.53
sg15
(lp4648
S'diaryl ether'
p4649
aS'aryl chloride'
p4650
aS'aromatic'
p4651
aS'heterocyclic'
p4652
asg221
g222
sg223
g224
ssS'mobley_4983965'
p4653
(dp4654
g3
S'CCSCC'
p4655
sg25
F0.21
sg26
F0.02
sg7
(lp4656
g28
asg29
S'ethylsulfanylethane'
p4657
sg12
I9609
sg13
F0.6
sg31
F-1.46
sg15
(lp4658
S'thioether'
p4659
asg36
g37
sg38
g39
ssS'mobley_1781152'
p4660
(dp4661
g3
S'CC(C)(C)C(=O)OC'
p4662
sg25
F-2.99
sg26
F0.02
sg7
(lp4663
g28
asg29
S'methyl 2,2-dimethylpropanoate'
p4664
sg12
I69027
sg13
F0.6
sg31
F-2.4
sg15
(lp4665
S'carboxylic acid ester'
p4666
asg36
g37
sg38
g39
ssS'mobley_4483973'
p4667
(dp4668
g3
S'c1ccc(cc1)F'
p4669
sg25
F-0.07
sg26
F0.02
sg7
(lp4670
g28
asg29
S'fluorobenzene'
p4671
sg12
I10008
sg13
F0.6
sg31
F-0.8
sg15
(lp4672
S'aryl fluoride'
p4673
aS'aromatic'
p4674
asg36
g37
sg38
g39
ssS'mobley_4780078'
p4675
(dp4676
g3
S'Cc1ccc(c(c1)C)O'
p4677
sg25
F-4.55
sg26
F0.03
sg7
(lp4678
g28
asg29
S'2,4-dimethylphenol'
p4679
sg12
I7771
sg13
F0.6
sg31
F-6.01
sg15
(lp4680
S'phenol or hydroxyhetarene'
p4681
aS'aromatic'
p4682
asg36
g37
sg38
g39
ssS'mobley_2294995'
p4683
(dp4684
g3
S'CCOC=O'
p4685
sg25
F-2.99
sg26
F0.02
sg7
(lp4686
g28
asg29
S'ethyl formate'
p4687
sg12
I8025
sg13
F0.6
sg31
F-2.56
sg15
(lp4688
S'carboxylic acid ester'
p4689
asg36
g37
sg38
g39
ssS'mobley_303222'
p4690
(dp4691
g3
S'CC=C'
p4692
sg25
F2.44
sg26
F0.02
sg7
(lp4693
g28
asg29
S'prop-1-ene'
p4694
sg12
I8252
sg13
F0.6
sg31
F1.32
sg15
(lp4695
S'alkene'
p4696
asg36
g37
sg38
g39
ssS'mobley_1563176'
p4697
(dp4698
g3
S'CCCCS'
p4699
sg25
F-0.12
sg26
F0.02
sg7
(lp4700
g28
asg29
S'butane-1-thiol'
p4701
sg12
I8012
sg13
F0.6
sg31
F-0.99
sg15
(lp4702
S'thiol (sulfanyl)'
p4703
aS'alkylthiol'
p4704
asg36
g37
sg38
g39
ssS'mobley_4375719'
p4705
(dp4706
g3
S'CCCCCCCCC'
p4707
sg25
F3.32
sg26
F0.03
sg7
(lp4708
g28
asg29
S'nonane'
p4709
sg12
I8141
sg13
F0.6
sg31
F3.13
sg15
(lp4710
g63
asg36
g37
sg38
g39
ssS'mobley_8117218'
p4711
(dp4712
g3
S'C1[C@@H]2[C@H]3[C@@H]([C@H]1[C@H]4[C@@H]2O4)[C@@]5(C(=C([C@]3(C5(Cl)Cl)Cl)Cl)Cl)Cl'
p4713
sg180
F-4.77
sg181
F0.07
sg7
(lp4714
g28
asg183
S'endrin'
p4715
sg12
I3048
sg185
F0.1
sg186
F-4.82
sg15
(lp4716
S'dialkyl ether'
p4717
aS'alkyl chloride'
p4718
aS'alkene'
p4719
aS'heterocyclic'
p4720
asg189
g190
sg191
g192
ssS'mobley_8765203'
p4721
(dp4722
g3
S'CC(=C)C=C'
p4723
sg25
F1.81
sg26
F0.02
sg7
(lp4724
g28
asg29
S'isoprene'
p4725
sg12
I6557
sg13
F0.6
sg31
F0.68
sg15
(lp4726
S'alkene'
p4727
asg36
g37
sg38
g39
ssS'mobley_1278715'
p4728
(dp4729
g3
S'C(C(Cl)(Cl)Cl)(Cl)(Cl)Cl'
p4730
sg397
F1.0
sg398
F0.04
sg7
(lp4731
g28
asg400
S'hexachloroethane'
p4732
sg12
I6214
sg402
F0.1
sg403
F-0.64
sg15
(lp4733
S'halogen derivative'
p4734
asg409
g410
sg411
g412
ssS'mobley_2269032'
p4735
(dp4736
g3
S'C[C@@H](c1ccc2cc(ccc2c1)OC)C(=O)O'
p4737
sg397
F-10.8
sg398
F0.1
sg7
(lp4738
g28
asg400
S'naproxen'
p4739
sg12
I156391
sg402
F0.18
sg403
F-10.21
sg15
(lp4740
S'alkyl aryl ether'
p4741
aS'carboxylic acid'
p4742
aS'aromatic'
p4743
asg409
g410
sg411
g412
ssS'mobley_929676'
p4744
(dp4745
g3
S'CCCCCCBr'
p4746
sg25
F1.78
sg26
F0.02
sg7
(lp4747
g28
asg29
S'1-bromohexane'
p4748
sg12
I8101
sg13
F0.6
sg31
F0.18
sg15
(lp4749
S'alkyl bromide'
p4750
asg36
g37
sg38
g39
ssS'mobley_1328465'
p4751
(dp4752
g3
S'C(C(Cl)Cl)Cl'
p4753
sg25
F-0.5
sg26
F0.03
sg7
(lp4754
g28
asg29
S'1,1,2-trichloroethane'
p4755
sg12
I6574
sg13
F0.6
sg31
F-1.99
sg15
(lp4756
S'alkyl chloride'
p4757
asg36
g37
sg38
g39
ssS'mobley_296847'
p4758
(dp4759
g3
S'c1ccncc1'
p4760
sg25
F-3.45
sg26
F0.02
sg7
(lp4761
g28
asg29
S'pyridine'
p4762
sg12
I1049
sg13
F0.6
sg31
F-4.69
sg15
(lp4763
S'aromatic'
p4764
aS'heterocyclic'
p4765
asg36
g37
sg38
g39
ssS'mobley_3663158'
p4766
(dp4767
g3
S'c1ccc2cc(ccc2c1)O'
p4768
sg25
F-7.88
sg26
F0.03
sg7
(lp4769
g28
asg29
S'naphthalen-2-ol'
p4770
sg12
I8663
sg13
F0.6
sg31
F-8.11
sg15
(lp4771
S'phenol or hydroxyhetarene'
p4772
aS'aromatic'
p4773
asg36
g37
sg38
g39
ssS'mobley_9121449'
p4774
(dp4775
g3
S'CCC#C'
p4776
sg25
F0.51
sg26
F0.02
sg7
(lp4777
g28
asg29
S'but-1-yne'
p4778
sg12
I7846
sg13
F0.6
sg31
F-0.16
sg15
(lp4779
S'alkyne'
p4780
asg36
g37
sg38
g39
ssS'mobley_7295828'
p4781
(dp4782
g3
S'COc1ccccc1'
p4783
sg25
F-2.3
sg26
F0.02
sg7
(lp4784
g28
asg29
S'anisole'
p4785
sg12
I7519
sg13
F0.6
sg31
F-2.45
sg15
(lp4786
S'alkyl aryl ether'
p4787
aS'aromatic'
p4788
asg36
g37
sg38
g39
ssS'mobley_3425174'
p4789
(dp4790
g3
S'C(F)Cl'
p4791
sg25
F-0.22
sg26
F0.01
sg7
(lp4792
g28
asg29
S'chloro-fluoro-methane'
p4793
sg12
I11643
sg13
F0.6
sg31
F-0.77
sg15
(lp4794
S'alkyl fluoride'
p4795
aS'alkyl chloride'
p4796
asg36
g37
sg38
g39
ssS'mobley_2923700'
p4797
(dp4798
g3
S'CCc1ccc(cc1)O'
p4799
sg25
F-5.08
sg26
F0.03
sg7
(lp4800
g28
asg29
S'4-ethylphenol'
p4801
sg12
I31242
sg13
F0.6
sg31
F-6.13
sg15
(lp4802
S'phenol or hydroxyhetarene'
p4803
aS'aromatic'
p4804
asg36
g37
sg38
g39
ssS'mobley_2123854'
p4805
(dp4806
g3
S'c1cc(ccc1C#N)O'
p4807
sg25
F-7.24
sg26
F0.03
sg7
(lp4808
g28
asg29
S'4-hydroxybenzonitrile'
p4809
sg12
I13019
sg13
F0.6
sg31
F-10.17
sg15
(lp4810
S'phenol or hydroxyhetarene'
p4811
aS'carbonitrile'
p4812
aS'aromatic'
p4813
asg36
g37
sg38
g39
ssS'mobley_3589456'
p4814
(dp4815
g3
S'COC(CCl)(OC)OC'
p4816
sg25
F-3.3
sg26
F0.04
sg7
(lp4817
g28
asg29
S'2-chloro-1,1,1-trimethoxy-ethane'
p4818
sg12
I144702
sg13
F0.6
sg31
F-4.59
sg15
(lp4819
S'alkyl chloride'
p4820
aS'orthocarboxylic acid derivative'
p4821
aS'orthoester'
p4822
asg36
g48
sg38
g39
ssS'mobley_3269565'
p4823
(dp4824
g3
S'CC(C)OC'
p4825
sg25
F-0.75
sg26
F0.02
sg7
(lp4826
g28
asg29
S'2-methoxypropane'
p4827
sg12
I11721
sg13
F0.6
sg31
F-2.01
sg15
(lp4828
S'dialkyl ether'
p4829
asg36
g37
sg38
g39
ssS'mobley_3265457'
p4830
(dp4831
g3
S'COc1cc(c(c(c1O)OC)Cl)C=O'
p4832
sg480
F-9.23
sg481
F0.025
sg7
(lp4833
g28
asg484
S'2-chlorosyringaldehyde'
p4834
sg12
I53479
sg486
g487
(g491
S'\xa4p=\n\xd7\xa3\xe8?'
p4835
tp4836
Rp4837
sg497
g487
(g491
S'\x1f\x85\xebQ\xb8\x1e\x1f\xc0'
p4838
tp4839
Rp4840
sg15
(lp4841
S'aldehyde'
p4842
aS'phenol or hydroxyhetarene'
p4843
aS'alkyl aryl ether'
p4844
aS'aryl chloride'
p4845
aS'aromatic'
p4846
asg503
g504
sg505
g506
ssS'mobley_9028462'
p4847
(dp4848
g3
S'COC(=O)C(F)(F)F'
p4849
sg25
F-1.39
sg26
F0.02
sg7
(lp4850
g28
asg29
S'methyl 2,2,2-trifluoroacetate'
p4851
sg12
I9893
sg13
F0.6
sg31
F-1.1
sg15
(lp4852
S'halogen derivative'
p4853
aS'carboxylic acid ester'
p4854
asg36
S'10.1139/v76-032'
p4855
sg38
g39
ssS'mobley_1944394'
p4856
(dp4857
g3
S'CN(C)CCOC(c1ccccc1)c2ccccc2'
p4858
sg480
F-8.15
sg481
F0.031
sg7
(lp4859
g28
asg484
S'[2-benzhydryloxyethyl]-dimethyl-amine'
p4860
sg12
I3100
sg486
g487
(g491
S'\xd7\xa3p=\n\xd7\xe3?'
p4861
tp4862
Rp4863
sg497
g487
(g491
S'\xaeG\xe1z\x14\xae"\xc0'
p4864
tp4865
Rp4866
sg15
(lp4867
S'dialkyl ether'
p4868
aS'tertiary amine'
p4869
aS'tertiary aliphatic amine (trialkylamine)'
p4870
aS'aromatic'
p4871
asg503
g504
sg505
g506
ssS'mobley_7735340'
p4872
(dp4873
g3
S'c1cnc[nH]1'
p4874
sg25
F-7.85
sg26
F0.03
sg7
(lp4875
g28
asg29
S'imidazole'
p4876
sg12
I795
sg13
F0.6
sg31
F-9.63
sg15
(lp4877
S'aromatic'
p4878
aS'heterocyclic'
p4879
asg36
g37
sg38
g39
ssS'mobley_5948990'
p4880
(dp4881
g3
S'c1ccc(c(c1)N)[N+](=O)[O-]'
p4882
sg25
F-7.96
sg26
F0.03
sg7
(lp4883
g28
asg29
S'2-nitroaniline'
p4884
sg12
I6946
sg13
F0.6
sg31
F-7.37
sg15
(lp4885
S'primary amine'
p4886
aS'primary aromatic amine'
p4887
aS'nitro'
p4888
aS'aromatic'
p4889
asg36
g37
sg38
g39
ssS'mobley_3452749'
p4890
(dp4891
g3
S'Cc1cccc(c1C)C'
p4892
sg25
F-0.65
sg26
F0.02
sg7
(lp4893
g28
asg29
S'1,2,3-trimethylbenzene'
p4894
sg12
I10686
sg13
F0.6
sg31
F-1.21
sg15
(lp4895
S'aromatic'
p4896
asg36
g37
sg38
g39
ssS'mobley_9414831'
p4897
(dp4898
g3
S'Cc1cccc2c1cccc2'
p4899
sg25
F-3.24
sg26
F0.02
sg7
(lp4900
g28
asg29
S'1-methylnaphthalene'
p4901
sg12
I7002
sg13
F0.6
sg31
F-2.44
sg15
(lp4902
S'aromatic'
p4903
asg36
g37
sg38
g39
ssS'mobley_8207196'
p4904
(dp4905
g3
S'CCNc1nc(nc(n1)Cl)NCC'
p4906
sg180
F-8.63
sg181
F0.04
sg7
(lp4907
g28
asg183
S'simazine'
p4908
sg12
I5216
sg185
F0.1
sg186
F-10.22
sg15
(lp4909
S'secondary amine'
p4910
aS'secondary aliphatic/aromatic amine (alkylarylamine)'
p4911
aS'aryl chloride'
p4912
aS'aromatic'
p4913
aS'heterocyclic'
p4914
asg189
g190
sg191
g192
ssS'mobley_9557440'
p4915
(dp4916
g3
S'c1c(c(=O)[nH]c(=O)[nH]1)Cl'
p4917
sg397
F-16.7
sg398
F0.06
sg7
(lp4918
g28
asg400
S'5-chlorouracil'
p4919
sg12
I15758
sg402
F0.78
sg403
F-17.74
sg15
(lp4920
S'aryl chloride'
p4921
aS'oxo(het)arene'
p4922
aS'aromatic'
p4923
aS'heterocyclic'
p4924
asg409
g410
sg411
g412
ssS'mobley_6474572'
p4925
(dp4926
g3
S'C=CCl'
p4927
sg25
F1.22
sg26
F0.02
sg7
(lp4928
g28
asg29
S'chloroethylene'
p4929
sg12
I6338
sg13
F0.6
sg31
F-0.59
sg15
(lp4930
S'halogen derivative'
p4931
aS'alkene'
p4932
asg36
g37
sg38
g39
ssS'mobley_6988468'
p4933
(dp4934
g3
S'CCc1ccccn1'
p4935
sg25
F-3.21
sg26
F0.02
sg7
(lp4936
g28
asg29
S'2-ethylpyridine'
p4937
sg12
I7523
sg13
F0.6
sg31
F-4.33
sg15
(lp4938
S'aromatic'
p4939
aS'heterocyclic'
p4940
asg36
g37
sg38
g39
ssS'mobley_7150646'
p4941
(dp4942
g3
S'c1cc(ccc1Br)Br'
p4943
sg25
F-0.01
sg26
F0.02
sg7
(lp4944
g28
asg29
S'1,4-dibromobenzene'
p4945
sg12
I7804
sg13
F0.6
sg31
F-2.3
sg15
(lp4946
S'aryl bromide'
p4947
aS'aromatic'
p4948
asg36
g37
sg38
g39
ssS'mobley_5708811'
p4949
(dp4950
g3
S'COc1c(ccc(c1C(=O)O)Cl)Cl'
p4951
sg180
F-8.13
sg181
F0.04
sg7
(lp4952
g28
asg183
S'dicamba'
p4953
sg12
I3030
sg185
F1.93
sg186
F-9.86
sg15
(lp4954
S'alkyl aryl ether'
p4955
aS'aryl chloride'
p4956
aS'carboxylic acid'
p4957
aS'aromatic'
p4958
asg189
g190
sg191
g192
ssS'mobley_6688723'
p4959
(dp4960
g3
S'COc1c(cc(c(c1O)OC)Cl)Cl'
p4961
sg480
F-6.13
sg481
F0.023
sg7
(lp4962
g28
asg484
S'3,5-dichloro-2,6-dimethoxyphenol'
p4963
sg12
I93462
sg486
g487
(g491
S'R\xb8\x1e\x85\xebQ\xd8?'
p4964
tp4965
Rp4966
sg497
F-6.44
sg15
(lp4967
S'phenol or hydroxyhetarene'
p4968
aS'alkyl aryl ether'
p4969
aS'aryl chloride'
p4970
aS'aromatic'
p4971
asg503
g504
sg505
g506
ssS'mobley_4252724'
p4972
(dp4973
g3
S'CC(C)Cc1ccccc1'
p4974
sg25
F0.0
sg26
F0.02
sg7
(lp4975
g28
asg29
S'isobutylbenzene'
p4976
sg12
I10870
sg13
F0.6
sg31
F0.16
sg15
(lp4977
S'aromatic'
p4978
asg36
g37
sg38
g39
ssS'mobley_8983100'
p4979
(dp4980
g3
S'CBr'
p4981
sg25
F1.09
sg26
F0.01
sg7
(lp4982
g28
asg29
S'bromomethane'
p4983
sg12
I6323
sg13
F0.6
sg31
F-0.82
sg15
(lp4984
S'alkyl bromide'
p4985
asg36
g37
sg38
g39
ssS'mobley_1952272'
p4986
(dp4987
g3
S'C[N+](=O)[O-]'
p4988
sg25
F-2.03
sg26
F0.01
sg7
(lp4989
g28
asg29
S'nitromethane'
p4990
sg12
I6375
sg13
F0.6
sg31
F-4.02
sg15
(lp4991
S'nitro'
p4992
asg36
g37
sg38
g39
ssS'mobley_9007496'
p4993
(dp4994
g3
S'CNC(=O)Oc1cccc2c1cccc2'
p4995
sg180
F-10.92
sg181
F0.04
sg7
(lp4996
g28
aS'Changed IUPAC name from carbaryl to naphthalen-1-yl N-methylcarbamate for better handling/standardization.'
p4997
asg183
S'naphthalen-1-yl N-methylcarbamate'
p4998
sg12
I6129
sg185
F0.1
sg186
F-9.45
sg15
(lp4999
S'carbamic acid ester (urethane)'
p5000
aS'aromatic'
p5001
asg189
g190
sg191
g192
ssS'mobley_8124669'
p5002
(dp5003
g3
S'CCc1cccc(c1N(COC)C(=O)CCl)CC'
p5004
sg180
F-7.28
sg181
F0.05
sg7
(lp5005
g28
asg183
S'alachlor'
p5006
sg12
I2078
sg185
F0.29
sg186
F-8.21
sg15
(lp5007
S'hemiaminal'
p5008
aS'alkyl chloride'
p5009
aS'tertiary carboxylic acid amide'
p5010
aS'aromatic'
p5011
asg189
g190
sg191
g192
ssS'mobley_1728386'
p5012
(dp5013
g3
S'c1ccc(cc1)C(=O)N'
p5014
sg5
F-9.9
sg6
F0.1
sg7
(lp5015
g9
asg10
S'benzamide'
p5016
sg12
I2331
sg13
F0.2
sg14
F-11.0
sg15
(lp5017
S'primary carboxylic acid amide'
p5018
aS'aromatic'
p5019
asg18
g19
sg20
g21
ssS'mobley_5627459'
p5020
(dp5021
g3
S'CC(C)C=O'
p5022
sg25
F-2.93
sg26
F0.02
sg7
(lp5023
g28
asg29
S'2-methylpropanal'
p5024
sg12
I6561
sg13
F0.6
sg31
F-2.86
sg15
(lp5025
S'aldehyde'
p5026
asg36
g37
sg38
g39
ssS'mobley_7768165'
p5027
(dp5028
g3
S'C(CBr)Cl'
p5029
sg25
F0.02
sg26
F0.02
sg7
(lp5030
g28
asg29
S'1-bromo-2-chloro-ethane'
p5031
sg12
I7849
sg13
F0.6
sg31
F-1.95
sg15
(lp5032
S'alkyl chloride'
p5033
aS'alkyl bromide'
p5034
asg36
g37
sg38
g39
ssS'mobley_664966'
p5035
(dp5036
g3
S'C(I)I'
p5037
sg25
F-0.74
sg26
F0.02
sg7
(lp5038
g28
asg29
S'diiodomethane'
p5039
sg12
I6346
sg13
F0.6
sg31
F-2.49
sg15
(lp5040
S'alkyl iodide'
p5041
asg36
g37
sg38
g39
ssS'mobley_852937'
p5042
(dp5043
g3
S'c1cc(ccc1O)F'
p5044
sg25
F-4.99
sg26
F0.03
sg7
(lp5045
g28
asg29
S'4-fluorophenol'
p5046
sg12
I9732
sg13
F0.6
sg31
F-6.19
sg15
(lp5047
S'phenol or hydroxyhetarene'
p5048
aS'aryl fluoride'
p5049
aS'aromatic'
p5050
asg36
g37
sg38
g39
ssS'mobley_4687447'
p5051
(dp5052
g3
S'CCCOCCO'
p5053
sg25
F-4.21
sg26
F0.03
sg7
(lp5054
g28
asg29
S'2-propoxyethanol'
p5055
sg12
I17756
sg13
F0.6
sg31
F-6.4
sg15
(lp5056
S'primary alcohol'
p5057
aS'dialkyl ether'
p5058
asg36
g37
sg38
g39
ssS'mobley_7364468'
p5059
(dp5060
g3
S'CC1=CC(=O)CC(C1)(C)C'
p5061
sg180
F-3.82
sg181
F0.03
sg7
(lp5062
g28
aS'Changed IUPAC name from isophorone to 3,5,5-trimethylcyclohex-2-en-1-one for better handling/standardization.'
p5063
asg183
S'3,5,5-trimethylcyclohex-2-en-1-one'
p5064
sg12
I6544
sg185
F1.37
sg186
F-5.18
sg15
(lp5065
S'ketone'
p5066
aS'alkene'
p5067
asg189
g190
sg191
g192
ssS'mobley_3414356'
p5068
(dp5069
g3
S'CCCC(C)(C)O'
p5070
sg25
F-2.79
sg26
F0.02
sg7
(lp5071
g28
asg29
S'2-methylpentan-2-ol'
p5072
sg12
I11543
sg13
F0.6
sg31
F-3.92
sg15
(lp5073
S'tertiary alcohol'
p5074
asg36
g37
sg38
g39
ssS'mobley_778352'
p5075
(dp5076
g3
S'CC=C(C)C'
p5077
sg25
F2.28
sg26
F0.02
sg7
(lp5078
g28
asg29
S'2-methylbut-2-ene'
p5079
sg12
I10553
sg13
F0.6
sg31
F1.31
sg15
(lp5080
S'alkene'
p5081
asg36
g4391
sg38
g39
ssS'mobley_7708038'
p5082
(dp5083
g3
S'CCCBr'
p5084
sg25
F1.29
sg26
F0.02
sg7
(lp5085
g28
asg29
S'1-bromopropane'
p5086
sg12
I7840
sg13
F0.6
sg31
F-0.56
sg15
(lp5087
S'alkyl bromide'
p5088
asg36
g37
sg38
g39
ssS'mobley_6896128'
p5089
(dp5090
g3
S'CCCC[C@@H](C)CC'
p5091
sg25
F3.29
sg26
F0.03
sg7
(lp5092
S'Renamed mobley_6896128 from 3-methylheptane to (3S)-3-methylheptane (the name from the 3D structure) since the former did not completely specify stereochemistry.\n'
p5093
asg29
S'3-methylheptane'
p5094
sg12
I11519
sg13
F0.6
sg31
F2.97
sg15
(lp5095
g63
asg36
g37
sg38
g39
ssS'mobley_7610437'
p5096
(dp5097
g3
S'CC[C@H](C(C)C)O'
p5098
sg25
F-2.19
sg26
F0.03
sg7
(lp5099
S'Renamed mobley_7610437 from 2-methylpentan-3-ol to (3R)-2-methylpentan-3-ol (the name from the 3D structure) since the former did not completely specify stereochemistry.\n'
p5100
asg29
S'2-methylpentan-3-ol'
p5101
sg12
I11264
sg13
F0.6
sg31
F-3.88
sg15
(lp5102
S'secondary alcohol'
p5103
asg36
g37
sg38
g39
ssS'mobley_5123639'
p5104
(dp5105
g3
S'C[C@H](CC(C)C)O'
p5106
sg25
F-2.75
sg26
F0.02
sg7
(lp5107
g28
asg29
S'4-methylpentan-2-ol'
p5108
sg12
I7910
sg13
F0.6
sg31
F-3.73
sg15
(lp5109
S'secondary alcohol'
p5110
asg36
g37
sg38
g39
ssS'mobley_8713762'
p5111
(dp5112
g3
S'CCCN(CCC)C(=O)SCCC'
p5113
sg180
F-4.17
sg181
F0.04
sg7
(lp5114
g28
aS'Changed IUPAC name from vernolate to N,N-dipropyl(propylsulfanyl)formamide for better handling/standardization.'
p5115
asg183
S'N,N-dipropyl(propylsulfanyl)formamide'
p5116
sg12
I16003
sg185
F1.36
sg186
F-4.13
sg15
(lp5117
S'thiocarbamic acid ester'
p5118
asg189
g190
sg191
g192
ssS'mobley_2178600'
p5119
(dp5120
g3
S'CCCCCCl'
p5121
sg5
F1.1
sg6
F0.1
sg7
(lp5122
g9
asg10
S'1-chloro-pentane'
p5123
sg12
I10977
sg13
F0.2
sg14
F-0.1
sg15
(lp5124
S'alkyl chloride'
p5125
asg18
g19
sg20
g21
ssS'mobley_4936555'
p5126
(dp5127
g3
S'Cc1cccc(c1C)Nc2ccccc2C(=O)O'
p5128
sg480
F-7.69
sg481
F0.025
sg7
(lp5129
g28
asg484
S'2-(2,3-dimethylphenyl)aminobenzoic acid'
p5130
sg12
I4044
sg486
g487
(g491
S'\x9a\x99\x99\x99\x99\x99\xb9?'
p5131
tp5132
Rp5133
sg497
g487
(g491
S'\x1f\x85\xebQ\xb8\x1e\x1b\xc0'
p5134
tp5135
Rp5136
sg15
(lp5137
S'secondary amine'
p5138
aS'secondary aromatic amine (diarylamine)'
p5139
aS'carboxylic acid'
p5140
aS'aromatic'
p5141
asg503
g504
sg505
g506
ssS'mobley_590519'
p5142
(dp5143
g3
S'CCSSCC'
p5144
sg25
F-0.07
sg26
F0.02
sg7
(lp5145
g28
asg29
S'ethyldisulfanylethane'
p5146
sg12
I8077
sg13
F0.6
sg31
F-1.64
sg15
(lp5147
S'disulfide'
p5148
asg36
g37
sg38
g39
ssS'mobley_9883303'
p5149
(dp5150
g3
S'CCC[C@H](C)CC'
p5151
sg25
F2.76
sg26
F0.02
sg7
(lp5152
S'Renamed mobley_9883303 from 3-methylhexane to (3R)-3-methylhexane (the name from the 3D structure) since the former did not completely specify stereochemistry.\n'
p5153
asg29
S'3-methylhexane'
p5154
sg12
I11507
sg13
F0.6
sg31
F2.71
sg15
(lp5155
g63
asg36
g37
sg38
g39
ssS'mobley_9029594'
p5156
(dp5157
g3
S'CF'
p5158
sg25
F0.79
sg26
F0.01
sg7
(lp5159
g28
asg29
S'fluoromethane'
p5160
sg12
I11638
sg13
F0.6
sg31
F-0.22
sg15
(lp5161
S'alkyl fluoride'
p5162
asg36
g37
sg38
g39
ssS'mobley_1502181'
p5163
(dp5164
g3
S'CCCCCCCC(=O)C'
p5165
sg25
F-2.51
sg26
F0.03
sg7
(lp5166
g28
asg29
S'nonan-2-one'
p5167
sg12
I13187
sg13
F0.6
sg31
F-2.49
sg15
(lp5168
S'ketone'
p5169
asg36
g37
sg38
g39
ssS'mobley_9478823'
p5170
(dp5171
g3
S'Cc1ccccc1C'
p5172
sg25
F-0.52
sg26
F0.02
sg7
(lp5173
g28
asg29
S'o-xylene'
p5174
sg12
I7237
sg13
F0.6
sg31
F-0.9
sg15
(lp5175
S'aromatic'
p5176
asg36
g37
sg38
g39
ssS'mobley_9201263'
p5177
(dp5178
g3
S'COS(=O)(=O)C'
p5179
sg25
F-8.29
sg26
F0.03
sg7
(lp5180
g28
asg29
S'methyl methanesulfonate'
p5181
sg12
I4156
sg13
F0.6
sg31
F-4.87
sg15
(lp5182
S'sulfonic acid ester'
p5183
asg36
g1326
sg38
g39
ssS'mobley_2613240'
p5184
(dp5185
g3
S'COc1ccccc1OC'
p5186
sg480
F-3.52
sg481
F0.021
sg7
(lp5187
g28
asg484
S'1,2-dimethoxybenzene'
p5188
sg12
I7043
sg486
g487
(g491
S'\x9a\x99\x99\x99\x99\x99\xb9?'
p5189
tp5190
Rp5191
sg497
g487
(g491
S'R\xb8\x1e\x85\xebQ\x15\xc0'
p5192
tp5193
Rp5194
sg15
(lp5195
S'alkyl aryl ether'
p5196
aS'aromatic'
p5197
asg503
g504
sg505
g506
ssS'mobley_7769613'
p5198
(dp5199
g3
S'CC(C)(C)Br'
p5200
sg25
F0.89
sg26
F0.02
sg7
(lp5201
g28
asg29
S'2-bromo-2-methyl-propane'
p5202
sg12
I10485
sg13
F0.6
sg31
F0.84
sg15
(lp5203
S'alkyl bromide'
p5204
asg36
g37
sg38
g39
ssS'mobley_3040612'
p5205
(dp5206
g3
S'CCc1ccccc1C'
p5207
sg480
F-0.766
sg481
F0.021
sg7
(lp5208
g28
asg484
S'1-ethyl-2-methylbenzene'
p5209
sg12
I11903
sg486
g487
(g491
S'\x9a\x99\x99\x99\x99\x99\xb9?'
p5210
tp5211
Rp5212
sg497
g487
(g491
S'333333\xeb\xbf'
p5213
tp5214
Rp5215
sg15
(lp5216
S'aromatic'
p5217
asg503
g504
sg505
g506
ssS'mobley_2410897'
p5218
(dp5219
g3
S'CCN'
p5220
sg25
F-3.14
sg26
F0.02
sg7
(lp5221
g28
asg29
S'ethanamine'
p5222
sg12
I6341
sg13
F0.6
sg31
F-4.5
sg15
(lp5223
S'primary amine'
p5224
aS'primary aliphatic amine (alkylamine)'
p5225
asg36
g37
sg38
g39
ssS'mobley_5003962'
p5226
(dp5227
g3
S'c1ccc2c(c1)C(=O)c3ccc(cc3C2=O)N'
p5228
sg480
F-13.71
sg481
F0.026
sg7
(lp5229
g28
asg484
S'2-amino-9,10-anthraquinone'
p5230
sg12
I8341
sg486
g487
(g491
S'\x8f\xc2\xf5(\\\x8f\xd2?'
p5231
tp5232
Rp5233
sg497
g487
(g491
S"\x8f\xc2\xf5(\\\x0f'\xc0"
p5234
tp5235
Rp5236
sg15
(lp5237
S'ketone'
p5238
aS'primary amine'
p5239
aS'primary aromatic amine'
p5240
aS'aromatic'
p5241
asg503
g504
sg505
g506
ssS'mobley_1899443'
p5242
(dp5243
g3
S'CCCC(=C)C'
p5244
sg25
F2.75
sg26
F0.02
sg7
(lp5245
g28
asg29
S'2-methylpent-1-ene'
p5246
sg12
I12986
sg13
F0.6
sg31
F1.47
sg15
(lp5247
S'alkene'
p5248
asg36
g37
sg38
g39
ssS'mobley_4338603'
p5249
(dp5250
g3
S'c1c(=O)[nH]c(=O)[nH]c1Cl'
p5251
sg397
F-15.11
sg398
F0.06
sg7
(lp5252
g28
asg400
S'6-chlorouracil'
p5253
sg12
I73272
sg402
F1.22
sg403
F-15.83
sg15
(lp5254
S'aryl chloride'
p5255
aS'oxo(het)arene'
p5256
aS'aromatic'
p5257
aS'heterocyclic'
p5258
asg409
g410
sg411
g412
ssS'mobley_5935995'
p5259
(dp5260
g3
S'CCC(C)(C)C'
p5261
sg25
F2.53
sg26
F0.02
sg7
(lp5262
g28
asg29
S'2,2-dimethylbutane'
p5263
sg12
I6403
sg13
F0.6
sg31
F2.51
sg15
(lp5264
g63
asg36
g37
sg38
g39
ssS'mobley_8048190'
p5265
(dp5266
g3
S'CC(=O)N'
p5267
sg25
F-8.62
sg26
F0.03
sg7
(lp5268
g28
asg29
S'acetamide'
p5269
sg12
I178
sg13
F0.6
sg31
F-9.71
sg15
(lp5270
S'primary carboxylic acid amide'
p5271
asg36
g37
sg38
g39
ssS'mobley_5917842'
p5272
(dp5273
g3
S'Cc1ccc(c(c1)OC)O'
p5274
sg480
F-4.46
sg481
F0.021
sg7
(lp5275
g28
asg484
S'4-methyl-2-methoxyphenol'
p5276
sg12
I7144
sg486
g487
(g491
S'\x9a\x99\x99\x99\x99\x99\xb9?'
p5277
tp5278
Rp5279
sg497
g487
(g491
S'333333\x17\xc0'
p5280
tp5281
Rp5282
sg15
(lp5283
S'phenol or hydroxyhetarene'
p5284
aS'alkyl aryl ether'
p5285
aS'aromatic'
p5286
asg503
g504
sg505
g506
ssS'mobley_4013838'
p5287
(dp5288
g3
S'CC(C)C(=O)C(C)C'
p5289
sg25
F-2.47
sg26
F0.02
sg7
(lp5290
g28
asg29
S'2,4-dimethylpentan-3-one'
p5291
sg12
I11271
sg13
F0.6
sg31
F-2.74
sg15
(lp5292
S'ketone'
p5293
asg36
g37
sg38
g39
ssS'mobley_8883511'
p5294
(dp5295
g3
S'Cc1ccccc1C=O'
p5296
sg480
F-4.64
sg481
F0.019
sg7
(lp5297
g28
asg484
S'2-methylbenzaldehyde'
p5298
sg12
I10722
sg486
g487
(g491
S'\x9a\x99\x99\x99\x99\x99\xb9?'
p5299
tp5300
Rp5301
sg497
g487
(g491
S'q=\n\xd7\xa3p\x0f\xc0'
p5302
tp5303
Rp5304
sg15
(lp5305
S'aldehyde'
p5306
aS'aromatic'
p5307
asg503
g504
sg505
g506
ssS'mobley_7732703'
p5308
(dp5309
g3
S'C(F)(F)(F)Br'
p5310
sg25
F2.03
sg26
F0.02
sg7
(lp5311
g28
asg29
S'bromo-trifluoro-methane'
p5312
sg12
I6384
sg13
F0.6
sg31
F1.79
sg15
(lp5313
S'halogen derivative'
p5314
asg36
g37
sg38
g39
ssS'mobley_3639400'
p5315
(dp5316
g3
S'CCCCCl'
p5317
sg25
F0.99
sg26
F0.02
sg7
(lp5318
g28
asg29
S'1-chlorobutane'
p5319
sg12
I8005
sg13
F0.6
sg31
F-0.16
sg15
(lp5320
S'alkyl chloride'
p5321
asg36
g37
sg38
g39
ssS'mobley_9185328'
p5322
(dp5323
g3
S'CCCN'
p5324
sg25
F-3.05
sg26
F0.02
sg7
(lp5325
g28
asg29
S'propan-1-amine'
p5326
sg12
I7852
sg13
F0.6
sg31
F-4.39
sg15
(lp5327
S'primary amine'
p5328
aS'primary aliphatic amine (alkylamine)'
p5329
asg36
g37
sg38
g39
ssS'mobley_3105103'
p5330
(dp5331
g3
S'Cc1c(c(=O)n(c(=O)[nH]1)C(C)(C)C)Cl'
p5332
sg180
F-13.33
sg181
F0.04
sg7
(lp5333
g28
asg183
S'terbacil'
p5334
sg12
I22188
sg185
F1.93
sg186
F-11.14
sg15
(lp5335
S'aryl chloride'
p5336
aS'oxo(het)arene'
p5337
aS'aromatic'
p5338
aS'heterocyclic'
p5339
asg189
g190
sg191
g192
ssS'mobley_8337977'
p5340
(dp5341
g3
S'CC(C)CC(=O)C'
p5342
sg25
F-2.96
sg26
F0.02
sg7
(lp5343
g28
asg29
S'4-methylpentan-2-one'
p5344
sg12
I7909
sg13
F0.6
sg31
F-3.05
sg15
(lp5345
S'ketone'
p5346
asg36
g37
sg38
g39
ssS'mobley_5347550'
p5347
(dp5348
g3
S'COC(C(Cl)Cl)(F)F'
p5349
sg25
F-0.71
sg26
F0.02
sg7
(lp5350
g28
asg29
S'2,2-dichloro-1,1-difluoro-1-methoxy-ethane'
p5351
sg12
I4116
sg13
F0.6
sg31
F-1.12
sg15
(lp5352
S'alkyl chloride'
p5353
aS'orthocarboxylic acid derivative'
p5354
asg36
g37
sg38
g39
ssS'mobley_1733799'
p5355
(dp5356
g3
S'c1cc(ccc1O)Br'
p5357
sg25
F-5.47
sg26
F0.02
sg7
(lp5358
g28
aS'Experimental value updated 10/22/13 from J. Peter Guthrie (University of Western Ontario) taken as a weighted average of the values -7.13 from a Cabani review, and -5.24 from experimental data from Parsons, Rochester, and Wood (see reference). The weighting gives preference to the latter since it gives source data.\n'
p5359
asg29
S'4-bromophenol'
p5360
sg12
I7808
sg13
F0.83
sg31
F-5.85
sg15
(lp5361
S'phenol or hydroxyhetarene'
p5362
aS'aryl bromide'
p5363
aS'aromatic'
p5364
asg36
S'10.1039/J29710000533 and 10.1007/BF00646936'
p5365
sg38
g39
ssS'mobley_5494918'
p5366
(dp5367
g3
S'C(=C(F)F)(C(F)(F)F)F'
p5368
sg25
F2.29
sg26
F0.02
sS'notes'
p5369
(lp5370
S'Updated correcting an error in the Rizzo/Mobley sets that had arisen from confusing the abbreviation HFP with hexafluoropropan-2-ol versus hexafluoropropene. Reference: Wilhelm, E., Battino, R., Wilcock, R. J., Chem. Rev. 1977, 77, 223-262.\n'
p5371
ag28
asg29
S'1,1,2,3,3,3-hexafluoroprop-1-ene'
p5372
sg12
I83439
sg13
F0.6
sg31
F2.93
sg15
(lp5373
S'halogen derivative'
p5374
asg36
S'10.1021/cr60306a003'
p5375
sg38
g39
ssS'mobley_7010316'
p5376
(dp5377
g3
S'C1CCC(CC1)O'
p5378
sg25
F-4.26
sg26
F0.02
sg7
(lp5379
g28
asg29
S'cyclohexanol'
p5380
sg12
I7966
sg13
F0.6
sg31
F-5.46
sg15
(lp5381
S'secondary alcohol'
p5382
asg36
g37
sg38
g39
ssS'mobley_8320545'
p5383
(dp5384
g3
S'CC[N+](=O)[O-]'
p5385
sg25
F-1.73
sg26
F0.02
sg7
(lp5386
g28
asg29
S'1-nitroethane'
p5387
sg12
I6587
sg13
F0.6
sg31
F-3.71
sg15
(lp5388
S'nitro'
p5389
asg36
g37
sg38
g39
ssS'mobley_3775790'
p5390
(dp5391
g3
S'Cn1cccc1'
p5392
sg25
F-2.59
sg26
F0.02
sg7
(lp5393
g28
asg29
S'1-methylpyrrole'
p5394
sg12
I7304
sg13
F0.6
sg31
F-2.89
sg15
(lp5395
S'aromatic'
p5396
aS'heterocyclic'
p5397
asg36
g37
sg38
g39
ssS'mobley_7157427'
p5398
(dp5399
g3
S'CCCCCCCCl'
p5400
sg25
F1.53
sg26
F0.03
sg7
(lp5401
g28
asg29
S'1-chloroheptane'
p5402
sg12
I12371
sg13
F0.6
sg31
F0.29
sg15
(lp5403
S'alkyl chloride'
p5404
asg36
g37
sg38
g39
ssS'mobley_3746675'
p5405
(dp5406
g3
S'CC(=C)c1ccccc1'
p5407
sg25
F-1.26
sg26
F0.02
sg7
(lp5408
g28
asg29
S'isopropenylbenzene'
p5409
sg12
I7407
sg13
F0.6
sg31
F-1.24
sg15
(lp5410
S'alkene'
p5411
aS'aromatic'
p5412
asg36
g37
sg38
g39
ssS'mobley_3715043'
p5413
(dp5414
g3
S'Cc1ccc(c2c1cccc2)C'
p5415
sg25
F-3.29
sg26
F0.03
sg7
(lp5416
g28
asg29
S'1,4-dimethylnaphthalene'
p5417
sg12
I11304
sg13
F0.6
sg31
F-2.82
sg15
(lp5418
S'aromatic'
p5419
asg36
g37
sg38
g39
ssS'mobley_5263791'
p5420
(dp5421
g3
S'CCc1cccc2c1cccc2'
p5422
sg25
F-3.0
sg26
F0.03
sg7
(lp5423
g28
asg29
S'1-ethylnaphthalene'
p5424
sg12
I14315
sg13
F0.6
sg31
F-2.4
sg15
(lp5425
S'aromatic'
p5426
asg36
g37
sg38
g39
ss.