(dp0
S'mobley_1323538'
p1
(dp2
S'smiles'
p3
S'CCOP(=O)(OCC)OCC'
p4
sS'expt_reference'
p5
S'10.1039/P29900000291'
p6
sS'd_calc'
p7
F0.1
sS'nickname'
p8
S' triethylphosphate'
p9
sS'notes'
p10
(lp11
S'Experimental uncertainty as suggested by 10.1039/P29900000291 -- 0.2 kcal/mol.'
p12
asS'iupac'
p13
S'triethylphosphate'
p14
sS'PubChemID'
p15
I6535
sS'd_expt'
p16
F0.2
sS'expt'
p17
F-7.5
sS'groups'
p18
(lp19
S'phosphoric acid ester'
p20
asS'calc'
p21
F-10.8
sS'calc_reference'
p22
S'10.1021/jp0667442'
p23
ssS'mobley_2661134'
p24
(dp25
g3
S'c1cc(cc(c1)O)C#N'
p26
sS'expt_reference'
p27
S'10.1021/ct050097l'
p28
sS'd_calc'
p29
F0.03
sg8
S' 3-hydroxybenzonitrile'
p30
sg10
(lp31
S'Experimental uncertainty not presently available, so assigned a default value.'
p32
asS'iupac'
p33
S'3-hydroxybenzonitrile'
p34
sg15
I13394
sg16
F0.6
sS'expt'
p35
F-9.65
sg18
(lp36
S'phenol or hydroxyhetarene'
p37
aS'carbonitrile'
p38
aS'aromatic'
p39
asS'calc'
p40
F-6.99
sS'calc_reference'
p41
S'10.1021/ct800409d'
p42
ssS'mobley_6929123'
p43
(dp44
g3
S'COC(=O)CCl'
p45
sg27
S'10.1139/v80-201'
p46
sg29
F0.02
sg8
S' methyl 2-chloroacetate'
p47
sg10
(lp48
g32
asg33
S'methyl 2-chloroacetate'
p49
sg15
I7295
sg16
F0.6
sg35
F-4.0
sg18
(lp50
S'alkyl chloride'
p51
aS'carboxylic acid ester'
p52
asg40
F-3.92
sg41
g42
ssS'mobley_3395921'
p53
(dp54
g3
S'C1CCOCC1'
p55
sg27
g28
sg29
F0.02
sg8
S' tetrahydropyran'
p56
sg10
(lp57
g32
asg33
S'tetrahydropyran'
p58
sg15
I8894
sg16
F0.6
sg35
F-3.12
sg18
(lp59
S'dialkyl ether'
p60
aS'heterocyclic'
p61
asg40
F-1.78
sg41
g42
ssS'mobley_5449201'
p62
(dp63
g3
S'CCCCC'
p64
sg5
g6
sg7
F0.1
sg8
S' n-pentane'
p65
sg10
(lp66
g12
asg13
S'n-pentane'
p67
sg15
I8003
sg16
F0.2
sg17
F2.3
sg18
(lp68
S''
p69
asg21
F2.6
sg22
g23
ssS'mobley_5631798'
p70
(dp71
g3
S'N'
p72
sg27
g28
sg29
F0.01
sg8
S' ammonia'
p73
sg10
(lp74
g32
asg33
S'ammonia'
p75
sg15
I222
sg16
F0.6
sg35
F-4.29
sg18
(lp76
g69
asg40
F-4.04
sg41
g42
ssS'mobley_1674094'
p77
(dp78
g3
S'CCCCC#C'
p79
sg27
g28
sg29
F0.02
sg8
S' hex-1-yne'
p80
sg10
(lp81
g32
asg33
S'hex-1-yne'
p82
sg15
I12732
sg16
F0.6
sg35
F0.29
sg18
(lp83
S'alkyne'
p84
asg40
F0.79
sg41
g42
ssS'mobley_9838013'
p85
(dp86
g3
S'CCC(C)(C)O'
p87
sg27
g28
sg29
F0.03
sg8
S' 2-methylbutan-2-ol'
p88
sg10
(lp89
g32
asg33
S'2-methylbutan-2-ol'
p90
sg15
I6405
sg16
F0.6
sg35
F-4.43
sg18
(lp91
S'tertiary alcohol'
p92
asg40
F-2.96
sg41
g42
ssS'mobley_1735893'
p93
(dp94
g3
S'CCCCCC(=O)O'
p95
sg27
g28
sg29
F0.03
sg8
S' hexanoic acid'
p96
sg10
(lp97
g32
asg33
S'hexanoic acid'
p98
sg15
I8892
sg16
F0.6
sg35
F-6.21
sg18
(lp99
S'carboxylic acid'
p100
asg40
F-5.08
sg41
g42
ssS'mobley_2198613'
p101
(dp102
g3
S'CCCl'
p103
sg27
g28
sg29
F0.02
sg8
S' chloroethane'
p104
sg10
(lp105
g32
asg33
S'chloroethane'
p106
sg15
I6337
sg16
F0.6
sg35
F-0.63
sg18
(lp107
S'alkyl chloride'
p108
asg40
F0.78
sg41
g42
ssS'mobley_1449384'
p109
(dp110
g3
S'Cc1ccc(cc1)C(C)C'
p111
sg27
g28
sg29
F0.03
sg8
S' 1-isopropyl-4-methyl-benzene'
p112
sg10
(lp113
g32
asg33
S'1-isopropyl-4-methyl-benzene'
p114
sg15
I7463
sg16
F0.6
sg35
F-0.68
sg18
(lp115
S'aromatic'
p116
asg40
F0.2
sg41
g42
ssS'mobley_3682850'
p117
(dp118
g3
S'C1CCC(=O)CC1'
p119
sg27
g28
sg29
F0.02
sg8
S' cyclohexanone'
p120
sg10
(lp121
g32
asg33
S'cyclohexanone'
p122
sg15
I7967
sg16
F0.6
sg35
F-4.91
sg18
(lp123
S'ketone'
p124
asg40
F-3.84
sg41
g42
ssS'mobley_3264884'
p125
(dp126
g3
S'c1ccc2cc(ccc2c1)N'
p127
sg27
g28
sg29
F0.03
sg8
S' naphthalen-2-amine'
p128
sg10
(lp129
g32
asg33
S'naphthalen-2-amine'
p130
sg15
I7057
sg16
F0.6
sg35
F-7.47
sg18
(lp131
S'primary amine'
p132
aS'primary aromatic amine'
p133
aS'aromatic'
p134
asg40
F-7.87
sg41
g42
ssS'mobley_8614858'
p135
(dp136
g3
S'CCCCCCC'
p137
sg27
g28
sg29
F0.02
sg8
S' heptane'
p138
sg10
(lp139
g32
asg33
S'heptane'
p140
sg15
I8900
sg16
F0.6
sg35
F2.67
sg18
(lp141
g69
asg40
F3.2
sg41
g42
ssS'mobley_4043987'
p142
(dp143
g3
S'CCCCC(C)C'
p144
sg27
g28
sg29
F0.03
sg8
S' 2-methylhexane'
p145
sg10
(lp146
g32
asg33
S'2-methylhexane'
p147
sg15
I11582
sg16
F0.6
sg35
F2.93
sg18
(lp148
g69
asg40
F3.0
sg41
g42
ssS'mobley_2864987'
p149
(dp150
g3
S'CCC[C@@H](C)O'
p151
sg27
g28
sg29
F0.02
sg8
S' pentan-2-ol'
p152
sg10
(lp153
S'Renamed mobley_2864987 from pentan-2-ol to (2R)-pentan-2-ol (the name from the 3D structure) since the former did not completely specify stereochemistry.\n'
p154
asg33
S'pentan-2-ol'
p155
sg15
I22386
sg16
F0.6
sg35
F-4.39
sg18
(lp156
S'secondary alcohol'
p157
asg40
F-2.87
sg41
g42
ssS'mobley_859464'
p158
(dp159
g3
S'CC(C)COC(=O)C'
p160
sg27
g28
sg29
F0.02
sg8
S' isobutyl acetate'
p161
sg10
(lp162
g32
asg33
S'isobutyl acetate'
p163
sg15
I8038
sg16
F0.6
sg35
F-2.36
sg18
(lp164
S'carboxylic acid ester'
p165
asg40
F-2.8
sg41
g42
ssS'mobley_3053621'
p166
(dp167
g3
S'c1ccccc1'
p168
sg5
g6
sg7
F0.1
sg8
S' benzene'
p169
sg10
(lp170
g12
asg13
S'benzene'
p171
sg15
I241
sg16
F0.2
sg17
F-0.9
sg18
(lp172
S'aromatic'
p173
asg21
F-0.6
sg22
g23
ssS'mobley_4689084'
p174
(dp175
S'smiles'
p176
S'CC(=O)OCCOC(=O)C'
p177
sS'calc'
p178
F-8.41
sS'd_calc'
p179
F0.06
sg8
S' 2-acetoxyethyl acetate'
p180
sS'notes'
p181
(lp182
S'Called "ethylene glycol diacetate" in Nicholls et al., but renamed according to IUPAC "CC(=O)OCCOC(=O)C" for better automation. This was excluded from the set in v0.1 but re-added in v0.2 due to an error constructing v0.1.\n'
p183
aS'Topology and coordinate files re-generated Jan. 2014 for v0.2 from original .mol2 files.\n'
p184
aS'Experimental uncertainty not presently available; assigned a default value.'
p185
aS'Experimental uncertainty estimate updated to 0.2 as of v0.2 to match uncertainty estimate given in Nicholls et al. paper.\n'
p186
asS'iupac'
p187
S'2-acetoxyethyl acetate'
p188
sg15
I8121
sS'd_expt'
p189
F0.2
sS'expt'
p190
F-6.34
sS'groups'
p191
(lp192
S'carboxylic acid ester'
p193
asS'expt_reference'
p194
S'10.1021/jm070549+'
p195
sS'calc_reference'
p196
g195
ssS'mobley_1352110'
p197
(dp198
g3
S'CCCCN(CC)C(=O)SCCC'
p199
sS'expt_reference'
p200
S'10.1021/jp806724u'
p201
sS'd_calc'
p202
F0.04
sg8
S' pebulate'
p203
sg10
(lp204
g32
asS'iupac'
p205
S'pebulate'
p206
sg15
I14215
sS'd_expt'
p207
F1.93
sS'expt'
p208
F-3.64
sg18
(lp209
S'thiocarbamic acid ester'
p210
asS'calc'
p211
F-4.85
sS'calc_reference'
p212
S'10.1021/jp806838b'
p213
ssS'mobley_4291494'
p214
(dp215
g3
S'c1ccnc(c1)Cl'
p216
sg27
g28
sg29
F0.02
sg8
S' 2-chloropyridine'
p217
sg10
(lp218
g32
asg33
S'2-chloropyridine'
p219
sg15
I7977
sg16
F0.6
sg35
F-4.39
sg18
(lp220
S'aryl chloride'
p221
aS'aromatic'
p222
aS'heterocyclic'
p223
asg40
F-3.36
sg41
g42
ssS'mobley_2364370'
p224
(dp225
g3
S'CCCCOC(=O)C'
p226
sg27
g28
sg29
F0.02
sg8
S' butyl acetate'
p227
sg10
(lp228
g32
asg33
S'butyl acetate'
p229
sg15
I31272
sg16
F0.6
sg35
F-2.64
sg18
(lp230
S'carboxylic acid ester'
p231
asg40
F-3.17
sg41
g42
ssS'mobley_1893815'
p232
(dp233
g3
S'C(C(Cl)(Cl)Cl)Cl'
p234
sS'expt_reference'
p235
S'10.1007/s10822-012-9568-8'
p236
sS'd_calc'
p237
F0.02
sg8
S' 1,1,1,2-tetrachloroethane'
p238
sg10
(lp239
g32
asS'iupac'
p240
S'1,1,1,2-tetrachloroethane'
p241
sg15
I12418
sS'd_expt'
p242
F0.1
sS'expt'
p243
F-1.43
sg18
(lp244
S'alkyl chloride'
p245
asS'calc'
p246
F-0.11
sS'calc_reference'
p247
S'10.1007/s10822-011-9528-8'
p248
ssS'mobley_5200358'
p249
(dp250
g3
S'CC(C)(/C=N\\OC(=O)NC)SC'
p251
sg200
g201
sg202
F0.05
sg8
S' aldicarb'
p252
sg10
(lp253
S'Renamed mobley_5200358 from aldicarb to [(Z)-(2-methyl-2-methylsulfanyl-propylidene)amino] N-methylcarbamate (the name from the 3D structure) since the former did not completely specify stereochemistry.\n'
p254
asg205
S'aldicarb'
p255
sg15
I9570071
sg207
F0.1
sg208
F-9.84
sg18
(lp256
S'thioether'
p257
aS'carbamic acid'
p258
asg211
F-10.27
sg212
g213
ssS'mobley_9246215'
p259
(dp260
g3
S'C=CCC=C'
p261
sg27
g28
sg29
F0.02
sg8
S' penta-1,4-diene'
p262
sg10
(lp263
g32
asg33
S'penta-1,4-diene'
p264
sg15
I11587
sg16
F0.6
sg35
F0.93
sg18
(lp265
S'alkene'
p266
asg40
F2.18
sg41
g42
ssS'mobley_5110043'
p267
(dp268
g3
S'Cc1ccc2cc(ccc2c1)C'
p269
sg27
g28
sg29
F0.03
sg8
S' 2,6-dimethylnaphthalene'
p270
sg10
(lp271
g32
asg33
S'2,6-dimethylnaphthalene'
p272
sg15
I11387
sg16
F0.6
sg35
F-2.63
sg18
(lp273
S'aromatic'
p274
asg40
F-2.65
sg41
g42
ssS'mobley_6190089'
p275
(dp276
g3
S'C(C(Cl)Cl)(Cl)Cl'
p277
sg235
g236
sg237
F0.02
sg8
S' 1,1,2,2-tetrachloroethane'
p278
sg10
(lp279
g32
asg240
S'1,1,2,2-tetrachloroethane'
p280
sg15
I6591
sg242
F0.1
sg243
F-2.37
sg18
(lp281
S'alkyl chloride'
p282
asg246
F-0.53
sg247
g248
ssS'mobley_6266306'
p283
(dp284
g3
S'C1CNC1'
p285
sg27
g28
sg29
F0.02
sg8
S' azetidine'
p286
sg10
(lp287
g32
asg33
S'azetidine'
p288
sg15
I10422
sg16
F0.6
sg35
F-5.56
sg18
(lp289
S'secondary amine'
p290
aS'secondary aliphatic amine (dialkylamine)'
p291
aS'heterocyclic'
p292
asg40
F-3.41
sg41
g42
ssS'mobley_2850833'
p293
(dp294
g3
S'c1ccc(c(c1)C=O)O'
p295
sS'expt_reference'
p296
S'SAMPL4_Guthrie'
p297
sS'd_calc'
p298
F0.018
sg8
S' 2-hydroxybenzaldehyde'
p299
sg10
(lp300
g32
asS'iupac'
p301
S'2-hydroxybenzaldehyde'
p302
sg15
I6998
sS'd_expt'
p303
cnumpy.core.multiarray
scalar
p304
(cnumpy
dtype
p305
(S'f8'
p306
I0
I1
tp307
Rp308
(I3
S'<'
p309
NNNI-1
I-1
I0
tp310
bS'\x9a\x99\x99\x99\x99\x99\xb9?'
p311
tp312
Rp313
sS'expt'
p314
g304
(g308
S'\xb8\x1e\x85\xebQ\xb8\x12\xc0'
p315
tp316
Rp317
sg18
(lp318
S'aldehyde'
p319
aS'phenol or hydroxyhetarene'
p320
aS'aromatic'
p321
asS'calc'
p322
F-4.89
sS'calc_reference'
p323
S'SAMPL4_Mobley'
p324
ssS'mobley_9246351'
p325
(dp326
g3
S'C(Br)Br'
p327
sg27
g28
sg29
F0.02
sg8
S' dibromomethane'
p328
sg10
(lp329
g32
asg33
S'dibromomethane'
p330
sg15
I3024
sg16
F0.6
sg35
F-1.96
sg18
(lp331
S'alkyl bromide'
p332
asg40
F0.87
sg41
g42
ssS'mobley_8011706'
p333
(dp334
g3
S'CN(C)C=O'
p335
sg27
g28
sg29
F0.03
sg8
S' N,N-dimethylformamide'
p336
sg10
(lp337
g32
asg33
S'N,N-dimethylformamide'
p338
sg15
I6228
sg16
F0.6
sg35
F-7.81
sg18
(lp339
S'tertiary carboxylic acid amide'
p340
asg40
F-6.86
sg41
g42
ssS'mobley_4924862'
p341
(dp342
g3
S'CC(C)CCOC=O'
p343
sg27
g28
sg29
F0.02
sg8
S' isopentyl formate'
p344
sg10
(lp345
g32
asg33
S'isopentyl formate'
p346
sg15
I8052
sg16
F0.6
sg35
F-2.13
sg18
(lp347
S'carboxylic acid ester'
p348
asg40
F-3.39
sg41
g42
ssS'mobley_9942801'
p349
(dp350
g3
S'CCc1ccc(cc1)C'
p351
sg27
g28
sg29
F0.02
sg8
S' 1-ethyl-4-methyl-benzene'
p352
sg10
(lp353
g32
asg33
S'1-ethyl-4-methyl-benzene'
p354
sg15
I12160
sg16
F0.6
sg35
F-0.95
sg18
(lp355
S'aromatic'
p356
asg40
F-0.05
sg41
g42
ssS'mobley_7578802'
p357
(dp358
g3
S'C(Br)(Br)Br'
p359
sg27
g28
sg29
F0.02
sg8
S' bromoform'
p360
sg10
(lp361
g32
asg33
S'bromoform'
p362
sg15
I5558
sg16
F0.6
sg35
F-2.13
sg18
(lp363
S'halogen derivative'
p364
asg40
F0.88
sg41
g42
ssS'mobley_8861672'
p365
(dp366
g3
S'Cc1ccnc(c1)C'
p367
sg27
g28
sg29
F0.02
sg8
S' 2,4-dimethylpyridine'
p368
sg10
(lp369
g32
asg33
S'2,4-dimethylpyridine'
p370
sg15
I7936
sg16
F0.6
sg35
F-4.86
sg18
(lp371
S'aromatic'
p372
aS'heterocyclic'
p373
asg40
F-3.18
sg41
g42
ssS'mobley_194273'
p374
(dp375
g3
S'CC[C@H](C)n1c(=O)c(c([nH]c1=O)C)Br'
p376
sg200
g201
sg202
F0.04
sg8
S' bromacil'
p377
sg10
(lp378
S'Renamed mobley_194273 from bromacil to 5-bromo-6-methyl-3-[(1S)-1-methylpropyl]-1H-pyrimidine-2,4-dione (the name from the 3D structure) since the former did not completely specify stereochemistry.\n'
p379
asg205
S'bromacil'
p380
sg15
I9411
sg207
F1.93
sg208
F-9.73
sg18
(lp381
S'aryl bromide'
p382
aS'oxo(het)arene'
p383
aS'aromatic'
p384
aS'heterocyclic'
p385
asg211
F-13.74
sg212
g213
ssS'mobley_1244778'
p386
(dp387
g3
S'C1CCCC(CC1)O'
p388
sg27
g28
sg29
F0.05
sg8
S' cycloheptanol'
p389
sg10
(lp390
g32
asg33
S'cycloheptanol'
p391
sg15
I10399
sg16
F0.6
sg35
F-5.48
sg18
(lp392
S'secondary alcohol'
p393
asg40
F-4.15
sg41
g42
ssS'mobley_468867'
p394
(dp395
g3
S'C1=C[C@@H]([C@@H]2[C@H]1[C@@]3(C(=C([C@]2(C3(Cl)Cl)Cl)Cl)Cl)Cl)Cl'
p396
sg200
g201
sg202
F0.03
sg8
S' heptachlor'
p397
sg10
(lp398
g32
asg205
S'heptachlor'
p399
sg15
I3589
sg207
F0.1
sg208
F-2.55
sg18
(lp400
S'alkyl chloride'
p401
aS'alkene'
p402
asg211
F-0.98
sg212
g213
ssS'mobley_8827942'
p403
(dp404
g3
S'c1ccc2c(c1)Oc3c(cc(c(c3O2)Cl)Cl)Cl'
p405
sg235
g236
sg237
F0.03
sg8
S' 1,2,4-trichlorodibenzo-p-dioxin'
p406
sg10
(lp407
g32
asg240
S'1,2,4-trichlorodibenzo-p-dioxin'
p408
sg15
I38253
sg242
F0.1
sg243
F-4.05
sg18
(lp409
S'diaryl ether'
p410
aS'aryl chloride'
p411
aS'aromatic'
p412
aS'heterocyclic'
p413
asg246
F-3.29
sg247
g248
ssS'mobley_3738859'
p414
(dp415
g3
S'CCCCCBr'
p416
sg5
g6
sg7
F0.1
sg8
S' 1-bromo-pentane'
p417
sg10
(lp418
g12
asg13
S'1-bromo-pentane'
p419
sg15
I8057
sg16
F0.2
sg17
F-0.1
sg18
(lp420
S'alkyl bromide'
p421
asg21
F1.5
sg22
g23
ssS'mobley_5708811'
p422
(dp423
g3
S'COc1c(ccc(c1C(=O)O)Cl)Cl'
p424
sg200
g201
sg202
F0.04
sg8
S' dicamba'
p425
sg10
(lp426
g32
asg205
S'dicamba'
p427
sg15
I3030
sg207
F1.93
sg208
F-9.86
sg18
(lp428
S'alkyl aryl ether'
p429
aS'aryl chloride'
p430
aS'carboxylic acid'
p431
aS'aromatic'
p432
asg211
F-8.13
sg212
g213
ssS'mobley_8427539'
p433
(dp434
g3
S'CCC(=O)N'
p435
sg5
g6
sg7
F0.1
sg8
S' propionamide'
p436
sg10
(lp437
g12
asg13
S'propionamide'
p438
sg15
I6578
sg16
F0.2
sg17
F-9.4
sg18
(lp439
S'primary carboxylic acid amide'
p440
asg21
F-9.3
sg22
g23
ssS'mobley_1107178'
p441
(dp442
g3
S'CCI'
p443
sg27
g28
sg29
F0.02
sg8
S' iodoethane'
p444
sg10
(lp445
g32
asg33
S'iodoethane'
p446
sg15
I6340
sg16
F0.6
sg35
F-0.74
sg18
(lp447
S'alkyl iodide'
p448
asg40
F-0.1
sg41
g42
ssS'mobley_2789243'
p449
(dp450
g3
S'c1cc(cnc1)Cl'
p451
sg27
g28
sg29
F0.02
sg8
S' 3-chloropyridine'
p452
sg10
(lp453
g32
asg33
S'3-chloropyridine'
p454
sg15
I12287
sg16
F0.6
sg35
F-4.01
sg18
(lp455
S'aryl chloride'
p456
aS'aromatic'
p457
aS'heterocyclic'
p458
asg40
F-2.5
sg41
g42
ssS'mobley_2008055'
p459
(dp460
g3
S'CC'
p461
sg27
g28
sg29
F0.01
sg8
S' ethane'
p462
sg10
(lp463
g32
asg33
S'ethane'
p464
sg15
I6324
sg16
F0.6
sg35
F1.83
sg18
(lp465
g69
asg40
F2.58
sg41
g42
ssS'mobley_1873346'
p466
(dp467
g3
S'Cc1ccccc1'
p468
sg5
g6
sg7
F0.1
sg8
S' toluene'
p469
sg10
(lp470
g12
asg13
S'toluene'
p471
sg15
I1140
sg16
F0.2
sg17
F-0.9
sg18
(lp472
S'aromatic'
p473
asg21
F-0.7
sg22
g23
ssS'mobley_7794077'
p474
(dp475
g3
S'c1c(c(=O)[nH]c(=O)[nH]1)C(F)(F)F'
p476
sS'expt_reference'
p477
S'10.1007/s10822-010-9350-8'
p478
sS'd_calc'
p479
F0.07
sg8
S' 5-trifluoromethyluracil'
p480
sg10
(lp481
g32
asS'iupac'
p482
S'5-trifluoromethyluracil'
p483
sg15
I5899
sS'd_expt'
p484
F0.16
sS'expt'
p485
F-15.46
sg18
(lp486
S'halogen derivative'
p487
aS'oxo(het)arene'
p488
aS'aromatic'
p489
aS'heterocyclic'
p490
asS'calc'
p491
F-17.17
sS'calc_reference'
p492
S'10.1007/s10822-010-9343-7'
p493
ssS'mobley_1849020'
p494
(dp495
g3
S'CCOP(=S)(OCC)SCSc1ccc(cc1)Cl'
p496
sg200
g201
sg202
F0.05
sg8
S' carbophenothion'
p497
sg10
(lp498
g32
aS'Changed IUPAC name from carbophenothion to 4-chlorophenyl)sulfanylmethylsulfanyl-diethoxy-thioxo-$l^{5}-phosphane for better handling/standardization.'
p499
asg205
S'4-chlorophenyl)sulfanylmethylsulfanyl-diethoxy-thioxo-$l^{5}-phosphane'
p500
sg15
I13081
sg207
F0.83
sg208
F-6.5
sg18
(lp501
S'aryl chloride'
p502
aS'thiophosphoric acid ester'
p503
aS'aromatic'
p504
asg211
F-8.34
sg212
g213
ssS'mobley_8798016'
p505
(dp506
g3
S'c1cnccc1C=O'
p507
sg27
g28
sg29
F0.03
sg8
S' pyridine-4-carbaldehyde'
p508
sg10
(lp509
g32
asg33
S'pyridine-4-carbaldehyde'
p510
sg15
I13389
sg16
F0.6
sg35
F-7.0
sg18
(lp511
S'aldehyde'
p512
aS'aromatic'
p513
aS'heterocyclic'
p514
asg40
F-7.31
sg41
g42
ssS'mobley_5157661'
p515
(dp516
g3
S'CC(C)C'
p517
sg5
g6
sg7
F0.1
sg8
S' isobutane'
p518
sg10
(lp519
g12
asg13
S'isobutane'
p520
sg15
I6360
sg16
F0.2
sg17
F2.3
sg18
(lp521
g69
asg21
F2.7
sg22
g23
ssS'mobley_6201330'
p522
(dp523
g3
S'CCCOC(=O)c1ccc(cc1)O'
p524
sg477
g478
sg479
F0.06
sg8
S' propyl paraben'
p525
sg10
(lp526
g32
asg482
S'propyl paraben'
p527
sg15
I7175
sg484
F0.22
sg485
F-9.37
sg18
(lp528
S'phenol or hydroxyhetarene'
p529
aS'carboxylic acid ester'
p530
aS'aromatic'
p531
asg491
F-9.34
sg492
g493
ssS'mobley_4620651'
p532
(dp533
g3
S'COC(=O)C1CC1'
p534
sg27
g28
sg29
F0.04
sg8
S' methyl cyclopropanecarboxylate'
p535
sg10
(lp536
g32
asg33
S'methyl cyclopropanecarboxylate'
p537
sg15
I76122
sg16
F0.6
sg35
F-4.1
sg18
(lp538
S'carboxylic acid ester'
p539
asg40
F-4.49
sg41
g42
ssS'mobley_9717937'
p540
(dp541
g3
S'c1ccc(cc1)c2ccccc2Cl'
p542
sg235
g236
sg237
F0.03
sg8
S' 1-chloro-2-phenyl-benzene'
p543
sg10
(lp544
g32
asg240
S'1-chloro-2-phenyl-benzene'
p545
sg15
I249266
sg242
F0.1
sg243
F-2.69
sg18
(lp546
S'aryl chloride'
p547
aS'aromatic'
p548
asg246
F-2.42
sg247
g248
ssS'mobley_6861308'
p549
(dp550
g3
S'CN(C)C(=O)Nc1ccccc1'
p551
sg200
g201
sg202
F0.04
sg8
S' fenuron'
p552
sg10
(lp553
g32
asg205
S'fenuron'
p554
sg15
I7560
sg207
F1.93
sg208
F-9.13
sg18
(lp555
S'urea'
p556
aS'aromatic'
p557
asg211
F-12.08
sg212
g213
ssS'mobley_4630641'
p558
(dp559
g3
S'COCCOC'
p560
sg27
g28
sg29
F0.02
sg8
S' 1,2-dimethoxyethane'
p561
sg10
(lp562
g32
asg33
S'1,2-dimethoxyethane'
p563
sg15
I8071
sg16
F0.6
sg35
F-4.84
sg18
(lp564
S'dialkyl ether'
p565
asg40
F-3.36
sg41
g42
ssS'mobley_2636578'
p566
(dp567
g3
S'C(CO[N+](=O)[O-])CO[N+](=O)[O-]'
p568
sg296
g297
sg298
F0.02
sg8
S' 3-nitrooxypropyl nitrate'
p569
sg10
(lp570
g32
aS'IUPAC name and SMILES standardized in v0.2 to match PubChem.\n'
p571
asg301
S'3-nitrooxypropyl nitrate'
p572
sg15
I96257
sg303
g304
(g308
S'\xf6(\\\x8f\xc2\xf5\xd8?'
p573
tp574
Rp575
sg314
g304
(g308
S'333333\x13\xc0'
p576
tp577
Rp578
sg18
(lp579
S'anion'
p580
asg322
F-5.53
sg323
g324
ssS'mobley_5571660'
p581
(dp582
g3
S'Cc1cccc(c1N)C'
p583
sg27
g28
sg29
F0.03
sg8
S' 2,6-dimethylaniline'
p584
sg10
(lp585
g32
asg33
S'2,6-dimethylaniline'
p586
sg15
I6896
sg16
F0.6
sg35
F-5.21
sg18
(lp587
S'primary amine'
p588
aS'primary aromatic amine'
p589
aS'aromatic'
p590
asg40
F-4.87
sg41
g42
ssS'mobley_7690440'
p591
(dp592
g3
S'CSSC'
p593
sg27
g28
sg29
F0.02
sg8
S' methyldisulfanylmethane'
p594
sg10
(lp595
g32
asg33
S'methyldisulfanylmethane'
p596
sg15
I12232
sg16
F0.6
sg35
F-1.83
sg18
(lp597
S'disulfide'
p598
asg40
F1.48
sg41
g42
ssS'mobley_2523689'
p599
(dp600
g3
S'c1ccc(cc1)n2c(=O)c(c(cn2)N)Cl'
p601
sg200
g201
sg202
F0.04
sg8
S' pyrazon'
p602
sg10
(lp603
g32
aS'Changed IUPAC name from pyrazon to 5-Amino-4-chloro-2-phenylpyridazin-3(2H)-one for better handling/standardization.'
p604
asg205
S'5-Amino-4-chloro-2-phenylpyridazin-3(2H)-one'
p605
sg15
I15546
sg207
F1.93
sg208
F-16.43
sg18
(lp606
S'primary amine'
p607
aS'primary aromatic amine'
p608
aS'aryl chloride'
p609
aS'oxo(het)arene'
p610
aS'aromatic'
p611
aS'heterocyclic'
p612
asg211
F-16.62
sg212
g213
ssS'mobley_4479135'
p613
(dp614
g3
S'C=C(c1ccccc1)c2ccccc2'
p615
sg296
g297
sg298
F0.023
sg8
S' 1,1-diphenylethene'
p616
sg10
(lp617
g32
asg301
S'1,1-diphenylethene'
p618
sg15
I10740
sg303
g304
(g308
S'\x9a\x99\x99\x99\x99\x99\xb9?'
p619
tp620
Rp621
sg314
g304
(g308
S'=\n\xd7\xa3p=\x06\xc0'
p622
tp623
Rp624
sg18
(lp625
S'alkene'
p626
aS'aromatic'
p627
asg322
F-3.92
sg323
g324
ssS'mobley_7176248'
p628
(dp629
g3
S'CCCN(CCC)c1c(cc(cc1[N+](=O)[O-])C(F)(F)F)[N+](=O)[O-]'
p630
sg200
g201
sg202
F0.04
sg8
S' trifluralin'
p631
sg10
(lp632
g32
aS'Changed IUPAC name from trifluralin to 2,6-Dinitro-N,N-dipropyl-4-(trifluoromethyl)aniline for better handling/standardization.'
p633
asg205
S'trifluralin'
p634
sg15
I5569
sg207
F0.1
sg208
F-3.25
sg18
(lp635
S'tertiary amine'
p636
aS'tertiary aliphatic/aromatic amine (alkylarylamine)'
p637
aS'halogen derivative'
p638
aS'nitro'
p639
aS'aromatic'
p640
asg211
F-2.58
sg212
g213
ssS'mobley_2295058'
p641
(dp642
g3
S'COC(=O)c1ccc(cc1)O'
p643
sg477
g478
sg479
F0.05
sg8
S' methyl paraben'
p644
sg10
(lp645
g32
asg482
S'methyl paraben'
p646
sg15
I7456
sg484
F0.26
sg485
F-9.51
sg18
(lp647
S'phenol or hydroxyhetarene'
p648
aS'carboxylic acid ester'
p649
aS'aromatic'
p650
asg491
F-9.94
sg492
g493
ssS'mobley_819018'
p651
(dp652
g3
S'CC(=CCC/C(=C/CO)/C)C'
p653
sg296
g297
sg298
F0.021
sg8
S' (2E)-3,7-dimethylocta-2,6-dien-1-ol'
p654
sg10
(lp655
g32
aS'IUPAC name standardized in v0.2 to match PubChem.\n'
p656
asg301
S'(2E)-3,7-dimethylocta-2,6-dien-1-ol'
p657
sg15
I637566
sg303
g304
(g308
S'\xb8\x1e\x85\xebQ\xb8\xce?'
p658
tp659
Rp660
sg314
g304
(g308
S'\xcd\xcc\xcc\xcc\xcc\xcc\x11\xc0'
p661
tp662
Rp663
sg18
(lp664
S'primary alcohol'
p665
aS'alkene'
p666
asg322
F-2.54
sg323
g324
ssS'mobley_1976156'
p667
(dp668
g3
S'CCCCCCCCC=O'
p669
sg27
g28
sg29
F0.03
sg8
S' nonanal'
p670
sg10
(lp671
g32
asg33
S'nonanal'
p672
sg15
I31289
sg16
F0.6
sg35
F-2.07
sg18
(lp673
S'aldehyde'
p674
asg40
F-2.51
sg41
g42
ssS'mobley_2197088'
p675
(dp676
g3
S'CCCCCCCCCC'
p677
sg27
g28
sg29
F0.03
sg8
S' decane'
p678
sg10
(lp679
g32
asg33
S'decane'
p680
sg15
I15600
sg16
F0.6
sg35
F3.16
sg18
(lp681
g69
asg40
F3.43
sg41
g42
ssS'mobley_627267'
p682
(dp683
g3
S'CC(C)CBr'
p684
sg27
g28
sg29
F0.02
sg8
S' 1-bromo-2-methyl-propane'
p685
sg10
(lp686
g32
asg33
S'1-bromo-2-methyl-propane'
p687
sg15
I6555
sg16
F0.6
sg35
F-0.03
sg18
(lp688
S'alkyl bromide'
p689
asg40
F1.24
sg41
g42
ssS'mobley_7415647'
p690
(dp691
g3
S'CN(C)C(=O)c1ccc(cc1)[N+](=O)[O-]'
p692
sg27
S'10.1139/v92-210'
p693
sg29
F0.04
sg8
S' N,N-dimethyl-4-nitro-benzamide'
p694
sg10
(lp695
g32
asg33
S'N,N-dimethyl-4-nitro-benzamide'
p696
sg15
I138975
sg16
F0.6
sg35
F-11.95
sg18
(lp697
S'tertiary carboxylic acid amide'
p698
aS'nitro'
p699
aS'aromatic'
p700
asg40
F-9.92
sg41
g42
ssS'mobley_6812653'
p701
(dp702
g3
S'CCCCCC'
p703
sg27
g28
sg29
F0.02
sg8
S' hexane'
p704
sg10
(lp705
g32
asg33
S'hexane'
p706
sg15
I8058
sg16
F0.6
sg35
F2.48
sg18
(lp707
g69
asg40
F3.05
sg41
g42
ssS'mobley_5052949'
p708
(dp709
g3
S'CCCSCCC'
p710
sg27
g28
sg29
F0.02
sg8
S' 1-propylsulfanylpropane'
p711
sg10
(lp712
g32
asg33
S'1-propylsulfanylpropane'
p713
sg15
I8118
sg16
F0.6
sg35
F-1.28
sg18
(lp714
S'thioether'
p715
asg40
F0.49
sg41
g42
ssS'mobley_3151666'
p716
(dp717
g3
S'CCCCCCCCCCO'
p718
sg27
g28
sg29
F0.03
sg8
S' decan-1-ol'
p719
sg10
(lp720
g32
asg33
S'decan-1-ol'
p721
sg15
I8174
sg16
F0.6
sg35
F-3.64
sg18
(lp722
S'primary alcohol'
p723
asg40
F-2.49
sg41
g42
ssS'mobley_1659169'
p724
(dp725
g3
S'C1COCCN1'
p726
sg27
g28
sg29
F0.02
sg8
S' morpholine'
p727
sg10
(lp728
g32
asg33
S'morpholine'
p729
sg15
I8083
sg16
F0.6
sg35
F-7.17
sg18
(lp730
S'dialkyl ether'
p731
aS'secondary amine'
p732
aS'secondary aliphatic amine (dialkylamine)'
p733
aS'heterocyclic'
p734
asg40
F-6.28
sg41
g42
ssS'mobley_9534740'
p735
(dp736
g3
S'C([C@@H]1[C@H]([C@@H]([C@H]([C@@H](O1)O)O)O)O)O'
p737
sg477
g478
sg479
F0.09
sg8
S' d-glucose'
p738
sg10
(lp739
g32
aS'Changed IUPAC name from d-glucose to (2R,3R,4S,5S,6R)-6-(hydroxymethyl)tetrahydropyran-2,3,4,5-tetrol for better handling/standardization.'
p740
asg482
S'(2R,3R,4S,5S,6R)-6-(hydroxymethyl)tetrahydropyran-2,3,4,5-tetrol'
p741
sg15
I64689
sg484
F0.22
sg485
F-25.47
sg18
(lp742
S'hemiacetal'
p743
aS'primary alcohol'
p744
aS'secondary alcohol'
p745
aS'1,2-diol'
p746
aS'heterocyclic'
p747
asg491
F-17.01
sg492
g493
ssS'mobley_994483'
p748
(dp749
g3
S'CCBr'
p750
sg27
g28
sg29
F0.02
sg8
S' bromoethane'
p751
sg10
(lp752
g32
asg33
S'bromoethane'
p753
sg15
I6332
sg16
F0.6
sg35
F-0.74
sg18
(lp754
S'alkyl bromide'
p755
asg40
F0.93
sg41
g42
ssS'mobley_1189457'
p756
(dp757
g3
S'CSc1ccccc1'
p758
sg27
g28
sg29
F0.02
sg8
S' methylsulfanylbenzene'
p759
sg10
(lp760
g32
asg33
S'methylsulfanylbenzene'
p761
sg15
I7520
sg16
F0.6
sg35
F-2.73
sg18
(lp762
S'thioether'
p763
aS'aromatic'
p764
asg40
F-1.21
sg41
g42
ssS'mobley_8260524'
p765
(dp766
g3
S'CC#C'
p767
sg27
g28
sg29
F0.01
sg8
S' prop-1-yne'
p768
sg10
(lp769
g32
asg33
S'prop-1-yne'
p770
sg15
I6335
sg16
F0.6
sg35
F-0.48
sg18
(lp771
S'alkyne'
p772
asg40
F0.2
sg41
g42
ssS'mobley_646007'
p773
(dp774
g3
S'C1CCNC1'
p775
sg27
g28
sg29
F0.02
sg8
S' pyrrolidine'
p776
sg10
(lp777
g32
asg33
S'pyrrolidine'
p778
sg15
I31268
sg16
F0.6
sg35
F-5.48
sg18
(lp779
S'secondary amine'
p780
aS'secondary aliphatic amine (dialkylamine)'
p781
aS'heterocyclic'
p782
asg40
F-3.91
sg41
g42
ssS'mobley_8436428'
p783
(dp784
g3
S'CC(C)CC(C)C'
p785
sg27
g28
sg29
F0.03
sg8
S' 2,4-dimethylpentane'
p786
sg10
(lp787
g32
asg33
S'2,4-dimethylpentane'
p788
sg15
I7907
sg16
F0.6
sg35
F2.83
sg18
(lp789
g69
asg40
F2.89
sg41
g42
ssS'mobley_6804509'
p790
(dp791
g3
S'c1c(c(cc(c1Cl)Cl)Cl)Cl'
p792
sg27
g28
sg29
F0.02
sg8
S' 1,2,4,5-tetrachlorobenzene'
p793
sg10
(lp794
g32
asg33
S'1,2,4,5-tetrachlorobenzene'
p795
sg15
I7270
sg16
F0.6
sg35
F-1.34
sg18
(lp796
S'aryl chloride'
p797
aS'aromatic'
p798
asg40
F0.25
sg41
g42
ssS'mobley_6843802'
p799
(dp800
g3
S'c1ccc(cc1)O[C@@H](C(F)F)F'
p801
sg27
S'J. Lu, 1994, Ph.D. Thesis, University of Western Ontario'
p802
sg29
F0.02
sg8
S' 1,2,2-trifluoroethoxybenzene'
p803
sg10
(lp804
S'Renamed mobley_6843802 from 1,2,2-trifluoroethoxybenzene to [(1R)-1,2,2-trifluoroethoxy]benzene (the name from the 3D structure) since the former did not completely specify stereochemistry.\n'
p805
asg33
S'1,2,2-trifluoroethoxybenzene'
p806
sg15
I21269179
sg16
F0.6
sg35
F-1.29
sg18
(lp807
S'alkyl fluoride'
p808
aS'aromatic'
p809
asg40
F-2.93
sg41
g42
ssS'mobley_1922649'
p810
(dp811
g3
S'COP(=S)(OC)Oc1ccc(cc1)[N+](=O)[O-]'
p812
sg200
g201
sg202
F0.04
sg8
S' methylparathion'
p813
sg10
(lp814
g32
aS'Changed IUPAC name from methyparathion to methylparathion for better handling/standardization.'
p815
asg205
S'methylparathion'
p816
sg15
I4130
sg207
F0.1
sg208
F-7.19
sg18
(lp817
S'nitro'
p818
aS'thiophosphoric acid ester'
p819
aS'aromatic'
p820
asg211
F-9.87
sg212
g213
ssS'mobley_632905'
p821
(dp822
g3
S'CC(=O)c1ccc(cc1)OC'
p823
sg27
g28
sg29
F0.03
sg8
S' 4-acetylanisole'
p824
sg10
(lp825
g32
asg33
S'1-(4-methoxyphenyl)ethanone'
p826
sg15
I7476
sg16
F0.6
sg35
F-4.4
sg18
(lp827
S'ketone'
p828
aS'alkyl aryl ether'
p829
aS'aromatic'
p830
asg40
F-6.29
sg41
g42
ssS'mobley_4039055'
p831
(dp832
g3
S'c1c(c(=O)[nH]c(=O)[nH]1)Br'
p833
sg477
g478
sg479
F0.06
sg8
S' 5-bromouracil'
p834
sg10
(lp835
g32
asg482
S'5-bromouracil'
p836
sg15
I5802
sg484
F0.55
sg485
F-18.17
sg18
(lp837
S'aryl bromide'
p838
aS'oxo(het)arene'
p839
aS'aromatic'
p840
aS'heterocyclic'
p841
asg491
F-16.61
sg492
g493
ssS'mobley_5346580'
p842
(dp843
g3
S'CC(=O)C(C)(C)C'
p844
sg27
g28
sg29
F0.02
sg8
S' 3,3-dimethylbutan-2-one'
p845
sg10
(lp846
g32
asg33
S'3,3-dimethylbutan-2-one'
p847
sg15
I6416
sg16
F0.6
sg35
F-3.11
sg18
(lp848
S'ketone'
p849
asg40
F-2.91
sg41
g42
ssS'mobley_4683624'
p850
(dp851
g3
S'CCCc1ccc(cc1)O'
p852
sg27
S'10.1021/je00018a020 and Terres, E., Gebert, F., Hulsemann, H., Petereit, H., Toepsch, H., Ruppert, W., Brennstoff-Chemie 1955, 36, 272-274'
p853
sg29
F0.02
sg8
S' 4-propylphenol'
p854
sg10
(lp855
g32
aS'Experimental value updated 10/22/13 as the average of -5.90 and -4.52, which are measured experimental values from Varhanickova, D., Shiu, W., Mackay, D., J. Chem. Eng. Data 1995, 40, 448-451 and Terres, E., Gebert, F., Hulsemann, H., Petereit, H., Toepsch, H., Ruppert, W., Brennstoff-Chemie 1955, 36, 272-274., respectively. The uncertainty was taken as the standard deviation across these two measurements.\n'
p856
asg33
S'4-propylphenol'
p857
sg15
I12580
sg16
F0.69
sg35
g304
(g308
S'\xd7\xa3p=\n\xd7\x14\xc0'
p858
tp859
Rp860
sg18
(lp861
S'phenol or hydroxyhetarene'
p862
aS'aromatic'
p863
asg40
F-5.5
sg41
g42
ssS'mobley_6619554'
p864
(dp865
g3
S'CCCCC(=O)OCC'
p866
sg27
g28
sg29
F0.03
sg8
S' ethyl pentanoate'
p867
sg10
(lp868
g32
asg33
S'ethyl pentanoate'
p869
sg15
I10882
sg16
F0.6
sg35
F-2.49
sg18
(lp870
S'carboxylic acid ester'
p871
asg40
F-3.09
sg41
g42
ssS'mobley_486214'
p872
(dp873
g3
S'COc1cccc(c1O)OC'
p874
sg296
g297
sg298
F0.022
sg8
S' 2,6-dimethoxyphenol'
p875
sg10
(lp876
g32
asg301
S'2,6-dimethoxyphenol'
p877
sg15
I7041
sg303
g304
(g308
S'\x9a\x99\x99\x99\x99\x99\xb9?'
p878
tp879
Rp880
sg314
g304
(g308
S'\xd7\xa3p=\n\xd7\x1b\xc0'
p881
tp882
Rp883
sg18
(lp884
S'phenol or hydroxyhetarene'
p885
aS'alkyl aryl ether'
p886
aS'aromatic'
p887
asg322
F-7.05
sg323
g324
ssS'mobley_8426916'
p888
(dp889
g3
S'CCNCC'
p890
sg27
g28
sg29
F0.02
sg8
S' N-ethylethanamine'
p891
sg10
(lp892
g32
asg33
S'N-ethylethanamine'
p893
sg15
I8021
sg16
F0.6
sg35
F-4.07
sg18
(lp894
S'secondary amine'
p895
aS'secondary aliphatic amine (dialkylamine)'
p896
asg40
F-2.72
sg41
g42
ssS'mobley_550662'
p897
(dp898
g3
S'CC(OC)(OC)OC'
p899
sg27
S'10.1021/ja00802a021'
p900
sg29
F0.02
sg8
S' 1,1,1-trimethoxyethane'
p901
sg10
(lp902
g32
asg33
S'1,1,1-trimethoxyethane'
p903
sg15
I15050
sg16
F0.6
sg35
F-4.42
sg18
(lp904
S'orthocarboxylic acid derivative'
p905
aS'orthoester'
p906
asg40
F-3.89
sg41
g42
ssS'mobley_755351'
p907
(dp908
g3
S'COc1cccc(c1)N'
p909
sg27
g28
sg29
F0.03
sg8
S' 3-methoxyaniline'
p910
sg10
(lp911
g32
asg33
S'3-methoxyaniline'
p912
sg15
I10824
sg16
F0.6
sg35
F-7.29
sg18
(lp913
S'alkyl aryl ether'
p914
aS'primary amine'
p915
aS'primary aromatic amine'
p916
aS'aromatic'
p917
asg40
F-7.45
sg41
g42
ssS'mobley_2751110'
p918
(dp919
g3
S'c1cc(ccc1[N+](=O)[O-])O'
p920
sg27
g28
sg29
F0.02
sg8
S' 4-nitrophenol'
p921
sg10
(lp922
g32
asg33
S'4-nitrophenol'
p923
sg15
I980
sg16
F0.6
sg35
F-10.64
sg18
(lp924
S'phenol or hydroxyhetarene'
p925
aS'nitro'
p926
aS'aromatic'
p927
asg40
F-8.22
sg41
g42
ssS'mobley_5977084'
p928
(dp929
g3
S'Cc1cccnc1'
p930
sg27
g28
sg29
F0.02
sg8
S' 3-methylpyridine'
p931
sg10
(lp932
g32
asg33
S'3-methylpyridine'
p933
sg15
I7970
sg16
F0.6
sg35
F-4.77
sg18
(lp934
S'aromatic'
p935
aS'heterocyclic'
p936
asg40
F-3.19
sg41
g42
ssS'mobley_5816127'
p937
(dp938
g3
S'COCCO'
p939
sg27
S'10.1007/BF00646936 and 10.1136/oem.45.8.561'
p940
sg29
F0.03
sg8
S' 2-methoxyethanol'
p941
sg10
(lp942
g32
aS'Updated 10/22/13 using the mean of experimental data from two sources listed as experimental references.\n'
p943
asg33
S'2-methoxyethanol'
p944
sg15
I8019
sg16
F0.4
sg35
g304
(g308
S'z\x14\xaeG\xe1z\x1a\xc0'
p945
tp946
Rp947
sg18
(lp948
S'primary alcohol'
p949
aS'dialkyl ether'
p950
asg40
F-5.37
sg41
g42
ssS'mobley_6257907'
p951
(dp952
g3
S'c1cc(cc(c1)Cl)N'
p953
sg27
g28
sg29
F0.02
sg8
S' 3-chloroaniline'
p954
sg10
(lp955
g32
asg33
S'3-chloroaniline'
p956
sg15
I7932
sg16
F0.6
sg35
F-5.82
sg18
(lp957
S'primary amine'
p958
aS'primary aromatic amine'
p959
aS'aryl chloride'
p960
aS'aromatic'
p961
asg40
F-5.37
sg41
g42
ssS'mobley_1963873'
p962
(dp963
g3
S'CC(=O)NC'
p964
sg27
g28
sg29
F0.03
sg8
S' N-methylacetamide'
p965
sg10
(lp966
g32
asg33
S'N-methylacetamide'
p967
sg15
I6582
sg16
F0.6
sg35
F-10.0
sg18
(lp968
S'secondary carboxylic acid amide'
p969
asg40
F-8.39
sg41
g42
ssS'mobley_7015518'
p970
(dp971
g3
S'COC'
p972
sg27
g28
sg29
F0.02
sg8
S' methoxymethane'
p973
sg10
(lp974
g32
asg33
S'methoxymethane'
p975
sg15
I8254
sg16
F0.6
sg35
F-1.91
sg18
(lp976
S'dialkyl ether'
p977
asg40
F-0.85
sg41
g42
ssS'mobley_6195751'
p978
(dp979
g3
S'COc1c(c(c(c(c1Cl)C=O)Cl)OC)O'
p980
sg296
g297
sg298
F0.024
sg8
S' 2,6-dichlorosyringaldehyde'
p981
sg10
(lp982
g32
asg301
S'2,6-dichlorosyringaldehyde'
p983
sg15
I53476
sg303
g304
(g308
S'R\xb8\x1e\x85\xebQ\xe8?'
p984
tp985
Rp986
sg314
F-8.68
sg18
(lp987
S'aldehyde'
p988
aS'phenol or hydroxyhetarene'
p989
aS'alkyl aryl ether'
p990
aS'aryl chloride'
p991
aS'aromatic'
p992
asg322
F-9.94
sg323
g324
ssS'mobley_5390332'
p993
(dp994
g3
S'CCCC(=O)OC'
p995
sg27
g28
sg29
F0.02
sg8
S' methyl butanoate'
p996
sg10
(lp997
g32
asg33
S'methyl butanoate'
p998
sg15
I12180
sg16
F0.6
sg35
F-2.83
sg18
(lp999
S'carboxylic acid ester'
p1000
asg40
F-3.32
sg41
g42
ssS'mobley_1017962'
p1001
(dp1002
g3
S'CCCCCC(=O)OC'
p1003
sg27
g28
sg29
F0.03
sg8
S' methyl hexanoate'
p1004
sg10
(lp1005
g32
asg33
S'methyl hexanoate'
p1006
sg15
I7824
sg16
F0.6
sg35
F-2.49
sg18
(lp1007
S'carboxylic acid ester'
p1008
asg40
F-3.02
sg41
g42
ssS'mobley_5538249'
p1009
(dp1010
g3
S'c1ccc(cc1)c2c(cc(cc2Cl)Cl)Cl'
p1011
sg235
g236
sg237
F0.03
sg8
S' 1,3,5-trichloro-2-phenyl-benzene'
p1012
sg10
(lp1013
g32
asg240
S'1,3,5-trichloro-2-phenyl-benzene'
p1014
sg15
I37247
sg242
F0.1
sg243
F-2.16
sg18
(lp1015
S'aryl chloride'
p1016
aS'aromatic'
p1017
asg246
F-1.14
sg247
g248
ssS'mobley_9741965'
p1018
(dp1019
g3
S'C[C@@H](CCON([O-])[O-])ON([O-])[O-]'
p1020
sg296
g297
sg298
F0.021
sg8
S' 1,3-bis-(nitrooxy)butane'
p1021
sg10
(lp1022
g32
asg301
S'1,3-bis-(nitrooxy)butane'
p1023
sg15
I138747
sg303
g304
(g308
S'\xf6(\\\x8f\xc2\xf5\xd8?'
p1024
tp1025
Rp1026
sg314
g304
(g308
S')\\\x8f\xc2\xf5(\x11\xc0'
p1027
tp1028
Rp1029
sg18
(lp1030
S'anion'
p1031
asg322
F-5.35
sg323
g324
ssS'mobley_5616693'
p1032
(dp1033
g3
S'C[C@@H]1CC[C@H](C(=O)C1)C(C)C'
p1034
sg296
g297
sg298
F0.021
sg8
S' i-menthone'
p1035
sg10
(lp1036
g32
asg301
S'(2S,5R)-2-isopropyl-5-methylcyclohexanone'
p1037
sg15
I26447
sg303
F0.25
sg314
F-2.53
sg18
(lp1038
S'ketone'
p1039
asg322
F-3.42
sg323
g324
ssS'mobley_9114381'
p1040
(dp1041
g3
S'COC(=O)CC#N'
p1042
sg27
g46
sg29
F0.02
sg8
S' methyl 2-cyanoacetate'
p1043
sg10
(lp1044
g32
asg33
S'methyl 2-cyanoacetate'
p1045
sg15
I7747
sg16
F0.6
sg35
F-6.72
sg18
(lp1046
S'carboxylic acid ester'
p1047
aS'carbonitrile'
p1048
asg40
F-6.34
sg41
g42
ssS'mobley_9209581'
p1049
(dp1050
g3
S'CN(C)C'
p1051
sg27
g28
sg29
F0.02
sg8
S' N,N-dimethylmethanamine'
p1052
sg10
(lp1053
g32
asg33
S'N,N-dimethylmethanamine'
p1054
sg15
I1146
sg16
F0.6
sg35
F-3.2
sg18
(lp1055
S'tertiary amine'
p1056
aS'tertiary aliphatic amine (trialkylamine)'
p1057
asg40
F-2.32
sg41
g42
ssS'mobley_1160109'
p1058
(dp1059
g3
S'C[C@@H]1CC[C@H](CC1=O)C(=C)C'
p1060
sg296
g297
sg298
F0.021
sg8
S' (E)-dihydrocarvone'
p1061
sg10
(lp1062
g32
asg301
S'(2R,5R)-2-methyl-5-(1-methylethenyl)-cyclohexanone'
p1063
sg15
I22227
sg303
F0.21
sg314
F-3.75
sg18
(lp1064
S'ketone'
p1065
aS'alkene'
p1066
asg322
F-3.31
sg323
g324
ssS'mobley_3515580'
p1067
(dp1068
g3
S'COc1ccccc1O'
p1069
sg296
g297
sg298
F0.018
sg8
S' 2-methoxyphenol'
p1070
sg10
(lp1071
g32
asg301
S'2-methoxyphenol'
p1072
sg15
I460
sg303
g304
(g308
S'\x9a\x99\x99\x99\x99\x99\xb9?'
p1073
tp1074
Rp1075
sg314
g304
(g308
S'\xc3\xf5(\\\x8f\xc2\x17\xc0'
p1076
tp1077
Rp1078
sg18
(lp1079
S'phenol or hydroxyhetarene'
p1080
aS'alkyl aryl ether'
p1081
aS'aromatic'
p1082
asg322
F-4.62
sg323
g324
ssS'mobley_1571523'
p1083
(dp1084
g3
S'Cc1cccc(c1C)O'
p1085
sg27
g28
sg29
F0.03
sg8
S' 2,3-dimethylphenol'
p1086
sg10
(lp1087
g32
asg33
S'2,3-dimethylphenol'
p1088
sg15
I10687
sg16
F0.6
sg35
F-6.16
sg18
(lp1089
S'phenol or hydroxyhetarene'
p1090
aS'aromatic'
p1091
asg40
F-4.67
sg41
g42
ssS'mobley_2023925'
p1092
(dp1093
g3
S'[C@@H](C(F)(F)F)(OC(F)F)Cl'
p1094
sg27
g28
sg29
F0.02
sg8
S' isoflurane'
p1095
sg10
(lp1096
S'Renamed mobley_2023925 from 2-chloro-2-(difluoromethoxy)-1,1,1-trifluoro-ethane to (2R)-2-chloro-2-(difluoromethoxy)-1,1,1-trifluoro-ethane (the name from the 3D structure) since the former did not completely specify stereochemistry.\n'
p1097
asg33
S'2-chloro-2-(difluoromethoxy)-1,1,1-trifluoro-ethane'
p1098
sg15
I11095291
sg16
F0.6
sg35
F0.1
sg18
(lp1099
S'alkyl chloride'
p1100
aS'orthocarboxylic acid derivative'
p1101
asg40
F-1.38
sg41
g42
ssS'mobley_2771569'
p1102
(dp1103
g3
S'CN1CCNCC1'
p1104
sg27
g28
sg29
F0.03
sg8
S' 1-methylpiperazine'
p1105
sg10
(lp1106
g32
asg33
S'1-methylpiperazine'
p1107
sg15
I53167
sg16
F0.6
sg35
F-7.77
sg18
(lp1108
S'secondary amine'
p1109
aS'secondary aliphatic amine (dialkylamine)'
p1110
aS'tertiary amine'
p1111
aS'tertiary aliphatic amine (trialkylamine)'
p1112
aS'heterocyclic'
p1113
asg40
F-8.3
sg41
g42
ssS'mobley_8785107'
p1114
(dp1115
g3
S'C[C@H]1CC[C@@H](O1)C'
p1116
sg27
g28
sg29
F0.02
sg8
S' 2,5-dimethyltetrahydrofuran'
p1117
sg10
(lp1118
S'Renamed mobley_8785107 from 2,5-dimethyltetrahydrofuran to (2S,5S)-2,5-dimethyltetrahydrofuran (the name from the 3D structure) since the former did not completely specify stereochemistry.\n'
p1119
asg33
S'2,5-dimethyltetrahydrofuran'
p1120
sg15
I13855
sg16
F0.6
sg35
F-2.92
sg18
(lp1121
S'dialkyl ether'
p1122
aS'heterocyclic'
p1123
asg40
F-1.89
sg41
g42
ssS'mobley_2881590'
p1124
(dp1125
g3
S'CC(C)CO[N+](=O)[O-]'
p1126
sg200
g201
sg202
F0.03
sg8
S' isobutyl nitrate'
p1127
sg10
(lp1128
g32
asg205
S'isobutyl nitrate'
p1129
sg15
I10974
sg207
F0.1
sg208
F-1.88
sg18
(lp1130
S'nitrate'
p1131
asg211
F-1.72
sg212
g213
ssS'mobley_313406'
p1132
(dp1133
g3
S'CCCO'
p1134
sg27
g28
sg29
F0.02
sg8
S' propan-1-ol'
p1135
sg10
(lp1136
g32
asg33
S'propan-1-ol'
p1137
sg15
I1031
sg16
F0.6
sg35
F-4.85
sg18
(lp1138
S'primary alcohol'
p1139
asg40
F-3.12
sg41
g42
ssS'mobley_3274817'
p1140
(dp1141
g3
S'CC[C@@H](C)c1cc(cc(c1O)[N+](=O)[O-])[N+](=O)[O-]'
p1142
sg200
g201
sg202
F0.04
sg8
S' dinoseb'
p1143
sg10
(lp1144
g32
aS'Changed IUPAC name from dinoseb to 2-[(1R)-1-methylpropyl]-4,6-dinitro-phenolate for better handling/standardization.'
p1145
asg205
S'2-[(1R)-1-methylpropyl]-4,6-dinitro-phenolate'
p1146
sg15
I688400
sg207
F1.93
sg208
F-6.23
sg18
(lp1147
S'phenol or hydroxyhetarene'
p1148
aS'nitro'
p1149
aS'aromatic'
p1150
asg211
F-5.76
sg212
g213
ssS'mobley_9979854'
p1151
(dp1152
g3
S'C[C@H](C(F)(F)F)O'
p1153
sg5
g6
sg7
F0.1
sg8
S' 111-trifluoropropan-2-ol'
p1154
sg10
(lp1155
S'Renamed mobley_9979854 from 1,1,1-trifluoropropan-2-ol to (2R)-1,1,1-trifluoropropan-2-ol (the name from the 3D structure) since the former did not completely specify stereochemistry.\n'
p1156
asg13
S'111-trifluoropropan-2-ol'
p1157
sg15
I6993809
sg16
F0.2
sg17
F-4.2
sg18
(lp1158
S'secondary alcohol'
p1159
aS'halogen derivative'
p1160
asg21
F-3.8
sg22
g23
ssS'mobley_2126135'
p1161
(dp1162
g3
S'CCc1ccccc1O'
p1163
sg296
g297
sg298
F0.019
sg8
S' 2-ethylphenol'
p1164
sg10
(lp1165
g32
asg301
S'2-ethylphenol'
p1166
sg15
I6997
sg303
g304
(g308
S'\x9a\x99\x99\x99\x99\x99\xb9?'
p1167
tp1168
Rp1169
sg314
g304
(g308
S'\xa4p=\n\xd7\xa3\x16\xc0'
p1170
tp1171
Rp1172
sg18
(lp1173
S'phenol or hydroxyhetarene'
p1174
aS'aromatic'
p1175
asg322
F-4.7
sg323
g324
ssS'mobley_6743808'
p1176
(dp1177
g3
S'Cc1ccc(cc1C)O'
p1178
sg27
g28
sg29
F0.03
sg8
S' 3,4-dimethylphenol'
p1179
sg10
(lp1180
g32
asg33
S'3,4-dimethylphenol'
p1181
sg15
I7249
sg16
F0.6
sg35
F-6.5
sg18
(lp1182
S'phenol or hydroxyhetarene'
p1183
aS'aromatic'
p1184
asg40
F-5.33
sg41
g42
ssS'mobley_2493732'
p1185
(dp1186
g3
S'C=C(Cl)Cl'
p1187
sg27
g28
sg29
F0.02
sg8
S' 1,1-dichloroethylene'
p1188
sg10
(lp1189
g32
asg33
S'1,1-dichloroethylene'
p1190
sg15
I6366
sg16
F0.6
sg35
F0.25
sg18
(lp1191
S'ketene acetal or derivative'
p1192
aS'halogen derivative'
p1193
asg40
F1.24
sg41
g42
ssS'mobley_9407874'
p1194
(dp1195
g3
S'CCCCCCC(=O)C'
p1196
sg27
g28
sg29
F0.03
sg8
S' octan-2-one'
p1197
sg10
(lp1198
g32
asg33
S'octan-2-one'
p1199
sg15
I8093
sg16
F0.6
sg35
F-2.88
sg18
(lp1200
S'ketone'
p1201
asg40
F-2.3
sg41
g42
ssS'mobley_7142697'
p1202
(dp1203
g3
S'CCCCCN'
p1204
sg27
g28
sg29
F0.02
sg8
S' pentan-1-amine'
p1205
sg10
(lp1206
g32
asg33
S'pentan-1-amine'
p1207
sg15
I8060
sg16
F0.6
sg35
F-4.09
sg18
(lp1208
S'primary amine'
p1209
aS'primary aliphatic amine (alkylamine)'
p1210
asg40
F-2.99
sg41
g42
ssS'mobley_1896013'
p1211
(dp1212
g3
S'C1[C@H]([C@@H]([C@H]([C@H](O1)O)O)O)O'
p1213
sg477
g478
sg479
F0.1
sg8
S' xylose'
p1214
sg10
(lp1215
g32
aS'Changed IUPAC name from d-xylose to (2S,3R,4S,5R)-oxane-2,3,4,5-tetrol for better handling/standardization.'
p1216
asg482
S'(2S,3R,4S,5R)-oxane-2,3,4,5-tetrol'
p1217
sg15
I6027
sg484
F0.27
sg485
F-20.52
sg18
(lp1218
S'hemiacetal'
p1219
aS'secondary alcohol'
p1220
aS'1,2-diol'
p1221
aS'heterocyclic'
p1222
asg491
F-13.7
sg492
g493
ssS'mobley_49274'
p1223
(dp1224
g3
S'CCCCCC#C'
p1225
sg27
g28
sg29
F0.02
sg8
S' hept-1-yne'
p1226
sg10
(lp1227
g32
asg33
S'hept-1-yne'
p1228
sg15
I12350
sg16
F0.6
sg35
F0.6
sg18
(lp1229
S'alkyne'
p1230
asg40
F0.84
sg41
g42
ssS'mobley_4694328'
p1231
(dp1232
g3
S'CCCCCCCC=O'
p1233
sg27
g28
sg29
F0.03
sg8
S' octanal'
p1234
sg10
(lp1235
g32
asg33
S'octanal'
p1236
sg15
I454
sg16
F0.6
sg35
F-2.29
sg18
(lp1237
S'aldehyde'
p1238
asg40
F-2.57
sg41
g42
ssS'mobley_7913234'
p1239
(dp1240
g3
S'CCCCOC[C@H](C)O'
p1241
sg296
g297
sg298
F0.023
sg8
S' 1-butoxy-2-propanol'
p1242
sg10
(lp1243
S'Renamed mobley_7913234 from 1-butoxy-2-propanol to (2S)-1-butoxypropan-2-ol (the name from the 3D structure) since the former did not completely specify stereochemistry.\n'
p1244
asg301
S'1-butoxy-2-propanol'
p1245
sg15
I21210
sg303
g304
(g308
S'333333\xc3?'
p1246
tp1247
Rp1248
sg314
g304
(g308
S'\xecQ\xb8\x1e\x85\xeb\x16\xc0'
p1249
tp1250
Rp1251
sg18
(lp1252
S'secondary alcohol'
p1253
aS'dialkyl ether'
p1254
asg322
F-3.78
sg323
g324
ssS'mobley_1178614'
p1255
(dp1256
g3
S'c1ccc(c(c1)O)Cl'
p1257
sg27
g28
sg29
F0.03
sg8
S' 2-chlorophenol'
p1258
sg10
(lp1259
g32
asg33
S'2-chlorophenol'
p1260
sg15
I7245
sg16
F0.6
sg35
F-4.55
sg18
(lp1261
S'phenol or hydroxyhetarene'
p1262
aS'aryl chloride'
p1263
aS'aromatic'
p1264
asg40
F-3.23
sg41
g42
ssS'mobley_951560'
p1265
(dp1266
g3
S'C1CNCCN1'
p1267
sg27
g28
sg29
F0.03
sg8
S' piperazine'
p1268
sg10
(lp1269
g32
asg33
S'piperazine'
p1270
sg15
I4837
sg16
F0.6
sg35
F-7.4
sg18
(lp1271
S'secondary amine'
p1272
aS'secondary aliphatic amine (dialkylamine)'
p1273
aS'heterocyclic'
p1274
asg40
F-8.34
sg41
g42
ssS'mobley_3211679'
p1275
(dp1276
g3
S'C1CCC=CC1'
p1277
sg296
g297
sg298
F0.017
sg8
S' cyclohexene'
p1278
sg10
(lp1279
g32
asg301
S'cyclohexene'
p1280
sg15
I8079
sg303
g304
(g308
S'\x9a\x99\x99\x99\x99\x99\xb9?'
p1281
tp1282
Rp1283
sg314
g304
(g308
S'\xecQ\xb8\x1e\x85\xeb\xc1?'
p1284
tp1285
Rp1286
sg18
(lp1287
S'alkene'
p1288
asg322
F1.14
sg323
g324
ssS'mobley_6359156'
p1289
(dp1290
g3
S'c1ccc(cc1)c2cc(ccc2Cl)Cl'
p1291
sg235
g236
sg237
F0.03
sg8
S' 1,4-dichloro-2-phenyl-benzene'
p1292
sg10
(lp1293
g32
asg240
S'1,4-dichloro-2-phenyl-benzene'
p1294
sg15
I36980
sg242
F0.1
sg243
F-2.46
sg18
(lp1295
S'aryl chloride'
p1296
aS'aromatic'
p1297
asg246
F-1.77
sg247
g248
ssS'mobley_3234716'
p1298
(dp1299
g3
S'Cc1ccc(cc1)C'
p1300
sg27
g28
sg29
F0.02
sg8
S' p-xylene'
p1301
sg10
(lp1302
g32
asg33
S'p-xylene'
p1303
sg15
I7809
sg16
F0.6
sg35
F-0.8
sg18
(lp1304
S'aromatic'
p1305
asg40
F-0.67
sg41
g42
ssS'mobley_5286200'
p1306
(dp1307
g3
S'C(CCCl)CCl'
p1308
sg27
g28
sg29
F0.02
sg8
S' 1,4-dichlorobutane'
p1309
sg10
(lp1310
g32
asg33
S'1,4-dichlorobutane'
p1311
sg15
I8059
sg16
F0.6
sg35
F-2.32
sg18
(lp1312
S'alkyl chloride'
p1313
asg40
F-0.27
sg41
g42
ssS'mobley_7988076'
p1314
(dp1315
g3
S'c1cc(ccc1C=O)O'
p1316
sg27
g28
sg29
F0.03
sg8
S' 4-hydroxybenzaldehyde'
p1317
sg10
(lp1318
g32
asg33
S'4-hydroxybenzaldehyde'
p1319
sg15
I126
sg16
F0.6
sg35
F-8.83
sg18
(lp1320
S'aldehyde'
p1321
aS'phenol or hydroxyhetarene'
p1322
aS'aromatic'
p1323
asg40
F-10.0
sg41
g42
ssS'mobley_6854178'
p1324
(dp1325
g3
S'CC(C)OC=O'
p1326
sg27
g28
sg29
F0.02
sg8
S' isopropyl formate'
p1327
sg10
(lp1328
g32
asg33
S'isopropyl formate'
p1329
sg15
I12257
sg16
F0.6
sg35
F-2.02
sg18
(lp1330
S'carboxylic acid ester'
p1331
asg40
F-2.64
sg41
g42
ssS'mobley_9617923'
p1332
(dp1333
g3
S'CCCCCCCCC(=O)C'
p1334
sg27
g28
sg29
F0.03
sg8
S' decan-2-one'
p1335
sg10
(lp1336
g32
asg33
S'decan-2-one'
p1337
sg15
I12741
sg16
F0.6
sg35
F-2.34
sg18
(lp1338
S'ketone'
p1339
asg40
F-1.98
sg41
g42
ssS'mobley_2402487'
p1340
(dp1341
g3
S'CCOC(=O)CC(=O)OCC'
p1342
sg27
S'10.1139/v91-2'
p1343
sg29
F0.04
sg8
S' diethyl propanedioate'
p1344
sg10
(lp1345
g32
asg33
S'diethyl propanedioate'
p1346
sg15
I7761
sg16
F0.6
sg35
F-6.0
sg18
(lp1347
S'carboxylic acid ester'
p1348
asg40
F-6.45
sg41
g42
ssS'mobley_1235151'
p1349
(dp1350
g3
S'CCCCC[N+](=O)[O-]'
p1351
sg27
g28
sg29
F0.02
sg8
S' 1-nitropentane'
p1352
sg10
(lp1353
g32
asg33
S'1-nitropentane'
p1354
sg15
I220639
sg16
F0.6
sg35
F-2.82
sg18
(lp1355
S'nitro'
p1356
asg40
F-1.29
sg41
g42
ssS'mobley_2689721'
p1357
(dp1358
g3
S'C1CCCCC1'
p1359
sg27
g28
sg29
F0.02
sg8
S' cyclohexane'
p1360
sg10
(lp1361
g32
asg33
S'cyclohexane'
p1362
sg15
I8078
sg16
F0.6
sg35
F1.23
sg18
(lp1363
g69
asg40
F1.67
sg41
g42
ssS'mobley_4613090'
p1364
(dp1365
g3
S'c1ccc(cc1)Cn2ccnc2'
p1366
sg296
g297
sg298
F0.022
sg8
S' 1-benzylimidazole'
p1367
sg10
(lp1368
g32
asg301
S'1-benzylimidazole'
p1369
sg15
I77918
sg303
g304
(g308
S'\xb8\x1e\x85\xebQ\xb8\xbe?'
p1370
tp1371
Rp1372
sg314
g304
(g308
S'\x85\xebQ\xb8\x1e\x85\x1e\xc0'
p1373
tp1374
Rp1375
sg18
(lp1376
S'aromatic'
p1377
aS'heterocyclic'
p1378
asg322
F-7.94
sg323
g324
ssS'mobley_1838110'
p1379
(dp1380
g3
S'C(C(F)(Cl)Cl)(F)(F)Cl'
p1381
sg27
g28
sg29
F0.02
sg8
S' 1,1,2-Trichlorotrifluoroethane'
p1382
sg10
(lp1383
g32
asg33
S'1,1,2-trichloro-1,2,2-trifluoro-ethane'
p1384
sg15
I6428
sg16
F0.6
sg35
F1.77
sg18
(lp1385
S'halogen derivative'
p1386
asg40
F1.53
sg41
g42
ssS'mobley_3083321'
p1387
(dp1388
g3
S'COCOC'
p1389
sS'expt_reference'
p1390
S'10.1021/jm070549+'
p1391
sS'd_calc'
p1392
F0.1
sg8
S' dimethoxymethane'
p1393
sS'notes'
p1394
(lp1395
S'Topology and coordinate files re-generated 10/9/13 from original .mol2 files.'
p1396
ag32
ag186
asS'iupac'
p1397
S'dimethoxymethane'
p1398
sg15
I8020
sg16
F0.2
sS'expt'
p1399
F-2.93
sg18
(lp1400
S'acetal'
p1401
asS'calc'
p1402
F-3.2
sS'calc_reference'
p1403
g1391
ssS'mobley_3572203'
p1404
(dp1405
g3
S'CCCCCOC(=O)CC'
p1406
sg27
g28
sg29
F0.03
sg8
S' pentyl propanoate'
p1407
sg10
(lp1408
g32
asg33
S'pentyl propanoate'
p1409
sg15
I12217
sg16
F0.6
sg35
F-2.11
sg18
(lp1410
S'carboxylic acid ester'
p1411
asg40
F-3.36
sg41
g42
ssS'mobley_3843583'
p1412
(dp1413
g3
S'c1ccc2c(c1)cccc2N'
p1414
sg27
g28
sg29
F0.03
sg8
S' naphthalen-1-amine'
p1415
sg10
(lp1416
g32
asg33
S'naphthalen-1-amine'
p1417
sg15
I8640
sg16
F0.6
sg35
F-7.28
sg18
(lp1418
S'primary amine'
p1419
aS'primary aromatic amine'
p1420
aS'aromatic'
p1421
asg40
F-7.76
sg41
g42
ssS'mobley_8127829'
p1422
(dp1423
g3
S'CCc1ccccc1'
p1424
sg27
g28
sg29
F0.02
sg8
S' ethylbenzene'
p1425
sg10
(lp1426
g32
asg33
S'ethylbenzene'
p1427
sg15
I7500
sg16
F0.6
sg35
F-0.79
sg18
(lp1428
S'aromatic'
p1429
asg40
F-0.59
sg41
g42
ssS'mobley_7983227'
p1430
(dp1431
g3
S'CC[C@@H](C)CO'
p1432
sg27
g28
sg29
F0.02
sg8
S' 2-methylbutan-1-ol'
p1433
sg10
(lp1434
S'Renamed mobley_7983227 from 2-methylbutan-1-ol to (2R)-2-methylbutan-1-ol (the name from the 3D structure) since the former did not completely specify stereochemistry.\n'
p1435
asg33
S'2-methylbutan-1-ol'
p1436
sg15
I8723
sg16
F0.6
sg35
F-4.42
sg18
(lp1437
S'primary alcohol'
p1438
asg40
F-2.78
sg41
g42
ssS'mobley_2390199'
p1439
(dp1440
g3
S'CCCC(=O)CCC'
p1441
sg27
g28
sg29
F0.02
sg8
S' heptan-4-one'
p1442
sg10
(lp1443
g32
asg33
S'heptan-4-one'
p1444
sg15
I31246
sg16
F0.6
sg35
F-2.92
sg18
(lp1445
S'ketone'
p1446
asg40
F-2.68
sg41
g42
ssS'mobley_2960202'
p1447
(dp1448
g3
S'c1c2c(cc(c1Cl)Cl)Oc3c(c(c(c(c3Cl)Cl)Cl)Cl)O2'
p1449
sg235
g236
sg237
F0.03
sg8
S' 1,2,3,4,7,8-hexachlorodibenzo-p-dioxin'
p1450
sg10
(lp1451
g32
asg240
S'1,2,3,4,7,8-hexachlorodibenzo-p-dioxin'
p1452
sg15
I38251
sg242
F1.0
sg243
F-3.71
sg18
(lp1453
S'diaryl ether'
p1454
aS'aryl chloride'
p1455
aS'aromatic'
p1456
aS'heterocyclic'
p1457
asg246
F-1.9
sg247
g248
ssS'mobley_5326154'
p1458
(dp1459
g3
S'CN(C)c1ccccc1'
p1460
sg27
g28
sg29
F0.02
sg8
S' N,N-dimethylaniline'
p1461
sg10
(lp1462
g32
asg33
S'N,N-dimethylaniline'
p1463
sg15
I949
sg16
F0.6
sg35
F-3.45
sg18
(lp1464
S'tertiary amine'
p1465
aS'tertiary aliphatic/aromatic amine (alkylarylamine)'
p1466
aS'aromatic'
p1467
asg40
F-4.7
sg41
g42
ssS'mobley_7176290'
p1468
(dp1469
g3
S'c1cc(cc(c1)O)[N+](=O)[O-]'
p1470
sg27
g28
sg29
F0.03
sg8
S' 3-nitrophenol'
p1471
sg10
(lp1472
g32
asg33
S'3-nitrophenol'
p1473
sg15
I11137
sg16
F0.6
sg35
F-9.62
sg18
(lp1474
S'phenol or hydroxyhetarene'
p1475
aS'nitro'
p1476
aS'aromatic'
p1477
asg40
F-7.66
sg41
g42
ssS'mobley_6334915'
p1478
(dp1479
g3
S'COP(=O)([C@H](C(Cl)(Cl)Cl)O)OC'
p1480
sg200
g201
sg202
F0.04
sg8
S' trichlorfon'
p1481
sg10
(lp1482
g32
aS'Changed IUPAC name from trichlorfon to (1R)-2,2,2-trichloro-1-dimethoxyphosphoryl-ethanol for better handling/standardization.'
p1483
asg205
S'(1R)-2,2,2-trichloro-1-dimethoxyphosphoryl-ethanol'
p1484
sg15
I6604183
sg207
F1.93
sg208
F-12.74
sg18
(lp1485
S'halogen derivative'
p1486
aS'phosphonic acid derivative'
p1487
aS'phosphonic acid ester'
p1488
asg211
F-14.03
sg212
g213
ssS'mobley_6497672'
p1489
(dp1490
g3
S'C/C=C/C=O'
p1491
sg27
g28
sg29
F0.02
sg8
S' but-2-enal'
p1492
sg10
(lp1493
S'Renamed mobley_6497672 from but-2-enal to (E)-but-2-enal (the name from the 3D structure) since the former did not completely specify stereochemistry.\n'
p1494
asg33
S'but-2-enal'
p1495
sg15
I447466
sg16
F0.6
sg35
F-4.22
sg18
(lp1496
S'aldehyde'
p1497
aS'alkene'
p1498
asg40
F-3.66
sg41
g42
ssS'mobley_5665561'
p1499
(dp1500
g3
S'Cc1cc(c2ccccc2c1)C'
p1501
sg27
g28
sg29
F0.03
sg8
S' 1,3-dimethylnaphthalene'
p1502
sg10
(lp1503
g32
asg33
S'1,3-dimethylnaphthalene'
p1504
sg15
I11327
sg16
F0.6
sg35
F-2.47
sg18
(lp1505
S'aromatic'
p1506
asg40
F-2.79
sg41
g42
ssS'mobley_4850657'
p1507
(dp1508
g3
S'CS(=O)(=O)Cl'
p1509
sg27
S'10.1139/v98-084'
p1510
sg29
F0.02
sg8
S' methanesulfonyl chloride'
p1511
sg10
(lp1512
g32
asg33
S'methanesulfonyl chloride'
p1513
sg15
I31297
sg16
F0.6
sg35
F-4.87
sg18
(lp1514
S'sulfonyl halide'
p1515
asg40
F-6.33
sg41
g42
ssS'mobley_8809190'
p1516
(dp1517
g3
S'CCCCc1ccccc1'
p1518
sg27
g28
sg29
F0.02
sg8
S' butylbenzene'
p1519
sg10
(lp1520
g32
asg33
S'butylbenzene'
p1521
sg15
I7705
sg16
F0.6
sg35
F-0.4
sg18
(lp1522
S'aromatic'
p1523
asg40
F-0.3
sg41
g42
ssS'mobley_1743409'
p1524
(dp1525
g3
S'CCOC(=O)CCC(=O)OCC'
p1526
sg27
g1343
sg29
F0.04
sg8
S' diethyl butanedioate'
p1527
sg10
(lp1528
g32
asg33
S'diethyl butanedioate'
p1529
sg15
I31249
sg16
F0.6
sg35
F-5.71
sg18
(lp1530
S'carboxylic acid ester'
p1531
asg40
F-8.47
sg41
g42
ssS'mobley_900088'
p1532
(dp1533
g3
S'CC(=C)C(=C)C'
p1534
sg27
g28
sg29
F0.02
sg8
S' 2,3-dimethylbuta-1,3-diene'
p1535
sg10
(lp1536
g32
asg33
S'2,3-dimethylbuta-1,3-diene'
p1537
sg15
I10566
sg16
F0.6
sg35
F0.4
sg18
(lp1538
S'alkene'
p1539
asg40
F1.69
sg41
g42
ssS'mobley_5759258'
p1540
(dp1541
g3
S'CCCCCO'
p1542
sg27
g28
sg29
F0.02
sg8
S' pentan-1-ol'
p1543
sg10
(lp1544
g32
asg33
S'pentan-1-ol'
p1545
sg15
I6276
sg16
F0.6
sg35
F-4.57
sg18
(lp1546
S'primary alcohol'
p1547
asg40
F-3.14
sg41
g42
ssS'mobley_7608435'
p1548
(dp1549
g3
S'CCCCCCCC(=O)OC'
p1550
sg27
g28
sg29
F0.03
sg8
S' methyl octanoate'
p1551
sg10
(lp1552
g32
asg33
S'methyl octanoate'
p1553
sg15
I8091
sg16
F0.6
sg35
F-2.04
sg18
(lp1554
S'carboxylic acid ester'
p1555
asg40
F-2.94
sg41
g42
ssS'mobley_3006808'
p1556
(dp1557
g3
S'C(C(F)(F)F)O'
p1558
sg27
S'10.1039/F19736901577'
p1559
sg29
F0.03
sg8
S' 2,2,2-trifluoroethanol'
p1560
sg10
(lp1561
g32
asg33
S'2,2,2-trifluoroethanol'
p1562
sg15
I6409
sg16
F0.6
sg35
F-4.31
sg18
(lp1563
S'primary alcohol'
p1564
aS'halogen derivative'
p1565
asg40
F-3.95
sg41
g42
ssS'mobley_6303022'
p1566
(dp1567
g3
S'CCc1ccncc1'
p1568
sg27
g28
sg29
F0.02
sg8
S' 4-ethylpyridine'
p1569
sg10
(lp1570
g32
asg33
S'4-ethylpyridine'
p1571
sg15
I10822
sg16
F0.6
sg35
F-4.73
sg18
(lp1572
S'aromatic'
p1573
aS'heterocyclic'
p1574
asg40
F-2.87
sg41
g42
ssS'mobley_7047032'
p1575
(dp1576
g3
S'CC(C)(C)Cl'
p1577
sg27
g28
sg29
F0.02
sg8
S' 2-chloro-2-methyl-propane'
p1578
sg10
(lp1579
g32
asg33
S'2-chloro-2-methyl-propane'
p1580
sg15
I10486
sg16
F0.6
sg35
F1.09
sg18
(lp1581
S'alkyl chloride'
p1582
asg40
F0.82
sg41
g42
ssS'mobley_1708457'
p1583
(dp1584
g3
S'CS(=O)(=O)C'
p1585
sg27
S'J. Peter Guthrie, unpublished data, as provided to D. Mobley 2007/2008, and as cited in 10.1021/jp0764384'
p1586
sg29
F0.03
sg8
S' methylsulfonylmethane'
p1587
sg10
(lp1588
g32
asg33
S'methylsulfonylmethane'
p1589
sg15
I6213
sg16
F0.6
sg35
F-10.08
sg18
(lp1590
S'sulfone'
p1591
asg40
F-10.36
sg41
g42
ssS'mobley_1079207'
p1592
(dp1593
g3
S'c1cc(cc(c1)Cl)Cl'
p1594
sg27
g28
sg29
F0.02
sg8
S' 1,3-dichlorobenzene'
p1595
sg10
(lp1596
g32
asg33
S'1,3-dichlorobenzene'
p1597
sg15
I10943
sg16
F0.6
sg35
F-0.98
sg18
(lp1598
S'aryl chloride'
p1599
aS'aromatic'
p1600
asg40
F0.01
sg41
g42
ssS'mobley_8573194'
p1601
(dp1602
g3
S'CCCC=O'
p1603
sg27
g28
sg29
F0.02
sg8
S' butanal'
p1604
sg10
(lp1605
g32
asg33
S'butanal'
p1606
sg15
I261
sg16
F0.6
sg35
F-3.18
sg18
(lp1607
S'aldehyde'
p1608
asg40
F-3.01
sg41
g42
ssS'mobley_7375018'
p1609
(dp1610
g3
S'CCCCCCCCCC(=O)C'
p1611
sg27
g28
sg29
F0.03
sg8
S' undecan-2-one'
p1612
sg10
(lp1613
g32
asg33
S'undecan-2-one'
p1614
sg15
I8163
sg16
F0.6
sg35
F-2.15
sg18
(lp1615
S'ketone'
p1616
asg40
F-2.12
sg41
g42
ssS'mobley_4792268'
p1617
(dp1618
g3
S'CCCCC(=O)O'
p1619
sg27
g28
sg29
F0.06
sg8
S' pentanoic acid'
p1620
sg10
(lp1621
g32
asg33
S'pentanoic acid'
p1622
sg15
I7991
sg16
F0.6
sg35
F-6.16
sg18
(lp1623
S'carboxylic acid'
p1624
asg40
F-5.37
sg41
g42
ssS'mobley_1520842'
p1625
(dp1626
g3
S'Cc1ccncc1'
p1627
sg27
g28
sg29
F0.02
sg8
S' 4-methylpyridine'
p1628
sg10
(lp1629
g32
asg33
S'4-methylpyridine'
p1630
sg15
I7963
sg16
F0.6
sg35
F-4.93
sg18
(lp1631
S'aromatic'
p1632
aS'heterocyclic'
p1633
asg40
F-3.41
sg41
g42
ssS'mobley_5520946'
p1634
(dp1635
g3
S'c1ccc(cc1)S'
p1636
sg27
g28
sg29
F0.02
sg8
S' benzenethiol'
p1637
sg10
(lp1638
g32
asg33
S'benzenethiol'
p1639
sg15
I7969
sg16
F0.6
sg35
F-2.55
sg18
(lp1640
S'thiol (sulfanyl)'
p1641
aS'arylthiol (thiophenol)'
p1642
aS'aromatic'
p1643
asg40
F-1.43
sg41
g42
ssS'mobley_2005792'
p1644
(dp1645
g3
S'c1ccc(cc1)c2ccccc2'
p1646
sg5
g6
sg7
F0.1
sg8
S' biphenyl'
p1647
sg10
(lp1648
g12
aS'Changed IUPAC name from biphenyle to biphenyl for better handling/standardization.'
p1649
asg13
S'biphenyl'
p1650
sg15
I7095
sg16
F0.2
sg17
F-2.7
sg18
(lp1651
S'aromatic'
p1652
asg21
F-3.5
sg22
g23
ssS'mobley_7688753'
p1653
(dp1654
g3
S'c1cc(cc(c1)O)C=O'
p1655
sg27
g28
sg29
F0.03
sg8
S' 3-hydroxybenzaldehyde'
p1656
sg10
(lp1657
g32
aS"Experimental value updated 10/22/13 from J. Peter Guthrie's examination of published data. A range of values -7.48 to -9.52 seem possible, but the original experimental data has not yet been located. More work is needed.\n"
p1658
asg33
S'3-hydroxybenzaldehyde'
p1659
sg15
I101
sg16
F1.9
sg35
F-9.52
sg18
(lp1660
S'aldehyde'
p1661
aS'phenol or hydroxyhetarene'
p1662
aS'aromatic'
p1663
asg40
F-9.24
sg41
g42
ssS'mobley_7860938'
p1664
(dp1665
g3
S'CCCCNCCCC'
p1666
sg27
g28
sg29
F0.03
sg8
S' N-butylbutan-1-amine'
p1667
sg10
(lp1668
g32
asg33
S'N-butylbutan-1-amine'
p1669
sg15
I8148
sg16
F0.6
sg35
F-3.24
sg18
(lp1670
S'secondary amine'
p1671
aS'secondary aliphatic amine (dialkylamine)'
p1672
asg40
F-1.63
sg41
g42
ssS'mobley_4780078'
p1673
(dp1674
g3
S'Cc1ccc(c(c1)C)O'
p1675
sg27
g28
sg29
F0.03
sg8
S' 2,4-dimethylphenol'
p1676
sg10
(lp1677
g32
asg33
S'2,4-dimethylphenol'
p1678
sg15
I7771
sg16
F0.6
sg35
F-6.01
sg18
(lp1679
S'phenol or hydroxyhetarene'
p1680
aS'aromatic'
p1681
asg40
F-4.55
sg41
g42
ssS'mobley_3709920'
p1682
(dp1683
g3
S'CCCCCCCC=C'
p1684
sg27
g28
sg29
F0.03
sg8
S' non-1-ene'
p1685
sg10
(lp1686
g32
asg33
S'non-1-ene'
p1687
sg15
I31285
sg16
F0.6
sg35
F2.06
sg18
(lp1688
S'alkene'
p1689
asg40
F2.91
sg41
g42
ssS'mobley_7542832'
p1690
(dp1691
g3
S'CCCOCCC'
p1692
sg27
g28
sg29
F0.02
sg8
S' 1-propoxypropane'
p1693
sg10
(lp1694
g32
asg33
S'1-propoxypropane'
p1695
sg15
I8114
sg16
F0.6
sg35
F-1.16
sg18
(lp1696
S'dialkyl ether'
p1697
asg40
F0.21
sg41
g42
ssS'mobley_2492140'
p1698
(dp1699
g3
S'C(C(Cl)(Cl)Cl)(Cl)Cl'
p1700
sg235
g236
sg237
F0.02
sg8
S' 1,1,1,2,2-pentachloroethane'
p1701
sg10
(lp1702
g32
asg240
S'1,1,1,2,2-pentachloroethane'
p1703
sg15
I6419
sg242
F0.1
sg243
F-1.23
sg18
(lp1704
S'alkyl chloride'
p1705
asg246
F0.13
sg247
g248
ssS'mobley_8899867'
p1706
(dp1707
g3
S'C1CCC(C1)O'
p1708
sg27
g28
sg29
F0.02
sg8
S' cyclopentanol'
p1709
sg10
(lp1710
g32
asg33
S'cyclopentanol'
p1711
sg15
I7298
sg16
F0.6
sg35
F-5.49
sg18
(lp1712
S'secondary alcohol'
p1713
asg40
F-4.15
sg41
g42
ssS'mobley_5371840'
p1714
(dp1715
g3
S'c1ccc2c(c1)Oc3ccc(cc3O2)Cl'
p1716
sg235
g236
sg237
F0.02
sg8
S' 2-chlorodibenzo-p-dioxin'
p1717
sg10
(lp1718
g32
asg240
S'2-chlorodibenzo-p-dioxin'
p1719
sg15
I38252
sg242
F0.1
sg243
F-3.1
sg18
(lp1720
S'diaryl ether'
p1721
aS'aryl chloride'
p1722
aS'aromatic'
p1723
aS'heterocyclic'
p1724
asg246
F-3.99
sg247
g248
ssS'mobley_2929847'
p1725
(dp1726
g3
S'CC(C)CC(=O)O'
p1727
sg27
g28
sg29
F0.03
sg8
S' 3-methylbutanoic acid'
p1728
sg10
(lp1729
g32
asg33
S'3-methylbutanoic acid'
p1730
sg15
I10430
sg16
F0.6
sg35
F-6.09
sg18
(lp1731
S'carboxylic acid'
p1732
asg40
F-5.51
sg41
g42
ssS'mobley_8006582'
p1733
(dp1734
g3
S'C1CCCC1'
p1735
sg27
g28
sg29
F0.02
sg8
S' cyclopentane'
p1736
sg10
(lp1737
g32
asg33
S'cyclopentane'
p1738
sg15
I9253
sg16
F0.6
sg35
F1.2
sg18
(lp1739
g69
asg40
F1.53
sg41
g42
ssS'mobley_2146331'
p1740
(dp1741
g3
S'C=O'
p1742
sg27
g28
sg29
F0.01
sg8
S' formaldehyde'
p1743
sg10
(lp1744
g32
aS'Formaldehyde is covalently hydrated in water. Our value here is the true free energy of hydration (based on the concentration of formaldehyde in gas vs in water) as opposed to the apparent one. See Guthrie, J. P., J. Am. Chem. Soc. 2000, 122, 5529-5538.\n'
p1745
asg33
S'formaldehyde'
p1746
sg15
I712
sg16
F0.6
sg35
F-2.75
sg18
(lp1747
S'aldehyde'
p1748
asg40
F-3.22
sg41
g42
ssS'mobley_2099370'
p1749
(dp1750
g3
S'C[C@@H](c1cccc(c1)C(=O)c2ccccc2)C(=O)O'
p1751
sg477
g478
sg479
F0.1
sg8
S' ketoprofen'
p1752
sg10
(lp1753
S'Renamed mobley_2099370 from ketoprofen to (2S)-2-(3-benzoylphenyl)propanoic acid (the name from the 3D structure) since the former did not completely specify stereochemistry.\n'
p1754
asg482
S'ketoprofen'
p1755
sg15
I3825
sg484
F0.18
sg485
F-10.78
sg18
(lp1756
S'ketone'
p1757
aS'carboxylic acid'
p1758
aS'aromatic'
p1759
asg491
F-11.9
sg492
g493
ssS'mobley_1781152'
p1760
(dp1761
g3
S'CC(C)(C)C(=O)OC'
p1762
sg27
g28
sg29
F0.02
sg8
S' methyl 2,2-dimethylpropanoate'
p1763
sg10
(lp1764
g32
asg33
S'methyl 2,2-dimethylpropanoate'
p1765
sg15
I69027
sg16
F0.6
sg35
F-2.4
sg18
(lp1766
S'carboxylic acid ester'
p1767
asg40
F-2.99
sg41
g42
ssS'mobley_3968043'
p1768
(dp1769
g3
S'C1CCC(=O)C1'
p1770
sg27
g28
sg29
F0.02
sg8
S' cyclopentanone'
p1771
sg10
(lp1772
g32
asg33
S'cyclopentanone'
p1773
sg15
I8452
sg16
F0.6
sg35
F-4.7
sg18
(lp1774
S'ketone'
p1775
asg40
F-3.71
sg41
g42
ssS'mobley_3323117'
p1776
(dp1777
g3
S'C1CC[S+2](C1)([O-])[O-]'
p1778
sg477
g478
sg479
F0.05
sg8
S' sulfolane'
p1779
sg10
(lp1780
g32
asg482
S'sulfolane'
p1781
sg15
I31347
sg484
F0.31
sg485
F-8.61
sg18
(lp1782
S'cation'
p1783
aS'heterocyclic'
p1784
asg491
F-9.45
sg492
g493
ssS'mobley_4043951'
p1785
(dp1786
g3
S'CCCC=C'
p1787
sg27
g28
sg29
F0.02
sg8
S' pent-1-ene'
p1788
sg10
(lp1789
g32
asg33
S'pent-1-ene'
p1790
sg15
I8004
sg16
F0.6
sg35
F1.68
sg18
(lp1791
S'alkene'
p1792
asg40
F2.44
sg41
g42
ssS'mobley_8705848'
p1793
(dp1794
g3
S'CC(C)NC(C)C'
p1795
sg27
g28
sg29
F0.02
sg8
S' 2-Propanamine'
p1796
sg10
(lp1797
g32
asg33
S'N-isopropylpropan-2-amine'
p1798
sg15
I7912
sg16
F0.6
sg35
F-3.22
sg18
(lp1799
S'secondary amine'
p1800
aS'secondary aliphatic amine (dialkylamine)'
p1801
asg40
F-1.97
sg41
g42
ssS'mobley_2484519'
p1802
(dp1803
g3
S'c1ccc(cc1)CCl'
p1804
sg1390
g1391
sg1392
F0.08
sg8
S' benzyl chloride'
p1805
sg1394
(lp1806
g1396
ag32
ag186
asg1397
S'benzyl chloride'
p1807
sg15
I7503
sg16
F0.2
sg1399
F-1.93
sg18
(lp1808
S'alkyl chloride'
p1809
aS'aromatic'
p1810
asg1402
F-1.5
sg1403
g1391
ssS'mobley_547634'
p1811
(dp1812
g3
S'Cc1cc2ccccc2cc1C'
p1813
sg27
g28
sg29
F0.02
sg8
S' 2,3-dimethylnaphthalene'
p1814
sg10
(lp1815
g32
asg33
S'2,3-dimethylnaphthalene'
p1816
sg15
I11386
sg16
F0.6
sg35
F-2.78
sg18
(lp1817
S'aromatic'
p1818
asg40
F-2.59
sg41
g42
ssS'mobley_8311321'
p1819
(dp1820
g3
S'C(F)(F)Cl'
p1821
sg27
g28
sg29
F0.02
sg8
S' chloro-difluoro-methane'
p1822
sg10
(lp1823
g32
asg33
S'chloro-difluoro-methane'
p1824
sg15
I6372
sg16
F0.6
sg35
F-0.5
sg18
(lp1825
S'halogen derivative'
p1826
asg40
F-0.04
sg41
g42
ssS'mobley_3318135'
p1827
(dp1828
g3
S'CCCCC(=O)CCCC'
p1829
sg27
g28
sg29
F0.03
sg8
S' nonan-5-one'
p1830
sg10
(lp1831
g32
asg33
S'nonan-5-one'
p1832
sg15
I10405
sg16
F0.6
sg35
F-2.64
sg18
(lp1833
S'ketone'
p1834
asg40
F-2.34
sg41
g42
ssS'mobley_3761215'
p1835
(dp1836
g3
S'CC(Cl)(Cl)Cl'
p1837
sg27
g28
sg29
F0.02
sg8
S' 1,1,1-trichloroethane'
p1838
sg10
(lp1839
g32
asg33
S'1,1,1-trichloroethane'
p1840
sg15
I6278
sg16
F0.6
sg35
F-0.19
sg18
(lp1841
S'halogen derivative'
p1842
asg40
F0.75
sg41
g42
ssS'mobley_3047364'
p1843
(dp1844
g3
S'CCNc1nc(nc(n1)SC)NC(C)C'
p1845
sg200
g201
sg202
F0.04
sg8
S' ametryne'
p1846
sg10
(lp1847
g32
aS'Changed IUPAC name from ametryn to 2-N-ethyl-6-(methylsulfanyl)-4-N-(propan-2-yl)-1,3,5-triazine-2,4-diamine for better handling/standardization.'
p1848
asg205
S'2-N-ethyl-6-(methylsulfanyl)-4-N-(propan-2-yl)-1,3,5-triazine-2,4-diamine'
p1849
sg15
I13263
sg207
F0.45
sg208
F-7.65
sg18
(lp1850
S'thioether'
p1851
aS'secondary amine'
p1852
aS'secondary aliphatic/aromatic amine (alkylarylamine)'
p1853
aS'aromatic'
p1854
aS'heterocyclic'
p1855
asg211
F-9.24
sg212
g213
ssS'mobley_3183805'
p1856
(dp1857
g3
S'Cc1ccc(c(c1)C)C'
p1858
sg27
g28
sg29
F0.02
sg8
S' 1,2,4-trimethylbenzene'
p1859
sg10
(lp1860
g32
asg33
S'1,2,4-trimethylbenzene'
p1861
sg15
I7247
sg16
F0.6
sg35
F-0.86
sg18
(lp1862
S'aromatic'
p1863
asg40
F-0.36
sg41
g42
ssS'mobley_1717215'
p1864
(dp1865
g3
S'COC=O'
p1866
sg27
g28
sg29
F0.02
sg8
S' methyl formate'
p1867
sg10
(lp1868
g32
asg33
S'methyl formate'
p1869
sg15
I7865
sg16
F0.6
sg35
F-2.78
sg18
(lp1870
S'carboxylic acid ester'
p1871
asg40
F-3.17
sg41
g42
ssS'mobley_5600967'
p1872
(dp1873
g3
S'CN(C)C(=O)c1ccc(cc1)OC'
p1874
sg27
g693
sg29
F0.04
sg8
S' 4-methoxy-N,N-dimethyl-benzamide'
p1875
sg10
(lp1876
g32
asg33
S'4-methoxy-N,N-dimethyl-benzamide'
p1877
sg15
I81713
sg16
F0.6
sg35
F-11.01
sg18
(lp1878
S'alkyl aryl ether'
p1879
aS'tertiary carboxylic acid amide'
p1880
aS'aromatic'
p1881
asg40
F-9.29
sg41
g42
ssS'mobley_6794076'
p1882
(dp1883
g3
S'CC(=O)c1ccncc1'
p1884
sg27
g28
sg29
F0.03
sg8
S' 1-(4-pyridyl)ethanone'
p1885
sg10
(lp1886
g32
asg33
S'1-(4-pyridyl)ethanone'
p1887
sg15
I14282
sg16
F0.6
sg35
F-7.62
sg18
(lp1888
S'ketone'
p1889
aS'aromatic'
p1890
aS'heterocyclic'
p1891
asg40
F-7.63
sg41
g42
ssS'mobley_6055410'
p1892
(dp1893
g3
S'c1cc(c(cc1c2ccc(cc2F)F)C(=O)O)O'
p1894
sg477
g478
sg479
F0.1
sg8
S' diflunisal'
p1895
sg10
(lp1896
g32
asg482
S'diflunisal'
p1897
sg15
I3059
sg484
F0.2
sg485
F-9.4
sg18
(lp1898
S'phenol or hydroxyhetarene'
p1899
aS'aryl fluoride'
p1900
aS'carboxylic acid'
p1901
aS'aromatic'
p1902
asg491
F-6.5
sg492
g493
ssS'mobley_7393673'
p1903
(dp1904
g3
S'COc1ccc(cc1)C(=O)OC'
p1905
sg27
g693
sg29
F0.03
sg8
S' methyl 4-methoxybenzoate'
p1906
sg10
(lp1907
g32
asg33
S'methyl 4-methoxybenzoate'
p1908
sg15
I8499
sg16
F0.6
sg35
F-5.33
sg18
(lp1909
S'alkyl aryl ether'
p1910
aS'carboxylic acid ester'
p1911
aS'aromatic'
p1912
asg40
F-6.32
sg41
g42
ssS'mobley_7676709'
p1913
(dp1914
g3
S'CC1=CC(=O)[C@@H](CC1)C(C)C'
p1915
sg296
g297
sg298
F0.022
sg8
S' d-piperitone'
p1916
sg10
(lp1917
S'Renamed mobley_7676709 from 6-isopropyl-3-methyl-1-cyclohex-2-enone to (6S)-6-isopropyl-3-methyl-cyclohex-2-en-1-one (the name from the 3D structure) since the former did not completely specify stereochemistry.\n'
p1918
asg301
S'6-isopropyl-3-methyl-1-cyclohex-2-enone'
p1919
sg15
I61362
sg303
F0.1
sg314
F-4.51
sg18
(lp1920
S'ketone'
p1921
aS'alkene'
p1922
asg322
F-3.81
sg323
g324
ssS'mobley_2845466'
p1923
(dp1924
g3
S'c1c2c(cc(c1Cl)Cl)Oc3cc(c(cc3O2)Cl)Cl'
p1925
sg235
g236
sg237
F0.03
sg8
S' 2,3,7,8-tetrachlorodibenzo-p-dioxin'
p1926
sg10
(lp1927
g32
asg240
S'2,3,7,8-tetrachlorodibenzo-p-dioxin'
p1928
sg15
I15625
sg242
F1.0
sg243
F-3.37
sg18
(lp1929
S'diaryl ether'
p1930
aS'aryl chloride'
p1931
aS'aromatic'
p1932
aS'heterocyclic'
p1933
asg246
F-2.49
sg247
g248
ssS'mobley_9197172'
p1934
(dp1935
g3
S'CCCCCCC=C'
p1936
sg27
g28
sg29
F0.03
sg8
S' oct-1-ene'
p1937
sg10
(lp1938
g32
asg33
S'oct-1-ene'
p1939
sg15
I8125
sg16
F0.6
sg35
F1.92
sg18
(lp1940
S'alkene'
p1941
asg40
F2.77
sg41
g42
ssS'mobley_9055303'
p1942
(dp1943
g3
S'C'
p1944
sg5
g6
sg7
F0.1
sg8
S' methane'
p1945
sg10
(lp1946
g12
asg13
S'methane'
p1947
sg15
I297
sg16
F0.2
sg17
F2.0
sg18
(lp1948
g69
asg21
F2.6
sg22
g23
ssS'mobley_6935906'
p1949
(dp1950
g3
S'CC(=CCC[C@](C)(C=C)OC(=O)C)C'
p1951
sg296
g297
sg298
F0.024
sg8
S' AC1L9CWH'
p1952
sg10
(lp1953
g32
asg301
S'(3R)-3,7-Dimethylocta-1,6-dien-3-yl acetate'
p1954
sg15
I442474
sg303
g304
(g308
S'333333\xeb?'
p1955
tp1956
Rp1957
sg314
g304
(g308
S'\xecQ\xb8\x1e\x85\xeb\x03\xc0'
p1958
tp1959
Rp1960
sg18
(lp1961
S'carboxylic acid ester'
p1962
aS'alkene'
p1963
asg322
F-2.58
sg323
g324
ssS'mobley_7239499'
p1964
(dp1965
g3
S'c1ccc2c(c1)Oc3cccc(c3O2)Cl'
p1966
sg235
g236
sg237
F0.02
sg8
S' 1-chlorodibenzo-p-dioxin'
p1967
sg10
(lp1968
g32
asg240
S'1-chlorodibenzo-p-dioxin'
p1969
sg15
I37207
sg242
F0.1
sg243
F-3.52
sg18
(lp1970
S'diaryl ether'
p1971
aS'aryl chloride'
p1972
aS'aromatic'
p1973
aS'heterocyclic'
p1974
asg246
F-4.38
sg247
g248
ssS'mobley_4193752'
p1975
(dp1976
g3
S'c1ccc(cc1)[N+](=O)[O-]'
p1977
sg27
g28
sg29
F0.02
sg8
S' nitrobenzene'
p1978
sg10
(lp1979
g32
asg33
S'nitrobenzene'
p1980
sg15
I7416
sg16
F0.6
sg35
F-4.12
sg18
(lp1981
S'nitro'
p1982
aS'aromatic'
p1983
asg40
F-3.4
sg41
g42
ssS'mobley_2844990'
p1984
(dp1985
g3
S'c1cc2c(cc1Cl)Oc3cc(c(c(c3O2)Cl)Cl)Cl'
p1986
sg235
g236
sg237
F0.03
sg8
S' 1,2,3,7-tetrachlorodibenzo-p-dioxin'
p1987
sg10
(lp1988
g32
asg240
S'1,2,3,7-tetrachlorodibenzo-p-dioxin'
p1989
sg15
I48889
sg242
F1.0
sg243
F-3.84
sg18
(lp1990
S'diaryl ether'
p1991
aS'aryl chloride'
p1992
aS'aromatic'
p1993
aS'heterocyclic'
p1994
asg246
F-2.58
sg247
g248
ssS'mobley_2925352'
p1995
(dp1996
g3
S'Cc1ccc(cc1)O'
p1997
sg27
g28
sg29
F0.02
sg8
S' p-cresol'
p1998
sg10
(lp1999
g32
asg33
S'p-cresol'
p2000
sg15
I2879
sg16
F0.6
sg35
F-6.13
sg18
(lp2001
S'phenol or hydroxyhetarene'
p2002
aS'aromatic'
p2003
asg40
F-5.36
sg41
g42
ssS'mobley_4934872'
p2004
(dp2005
g3
S'CCOC(OCC)Oc1ccccc1'
p2006
sg27
g1586
sg29
F0.04
sg8
S' diethoxymethoxybenzene'
p2007
sg10
(lp2008
g32
asg33
S'diethoxymethoxybenzene'
p2009
sg15
I84440
sg16
F0.6
sg35
F-5.23
sg18
(lp2010
S'orthocarboxylic acid derivative'
p2011
aS'orthoester'
p2012
aS'aromatic'
p2013
asg40
F-4.44
sg41
g42
ssS'mobley_1923244'
p2014
(dp2015
g3
S'CCCC'
p2016
sg5
g6
sg7
F0.1
sg8
S' n-butane'
p2017
sg10
(lp2018
g12
asg13
S'n-butane'
p2019
sg15
I7843
sg16
F0.2
sg17
F2.1
sg18
(lp2020
g69
asg21
F3.1
sg22
g23
ssS'mobley_3690931'
p2021
(dp2022
g3
S'CCCC(=O)OCCC'
p2023
sg27
g28
sg29
F0.03
sg8
S' propyl butanoate'
p2024
sg10
(lp2025
g32
asg33
S'propyl butanoate'
p2026
sg15
I7770
sg16
F0.6
sg35
F-2.28
sg18
(lp2027
S'carboxylic acid ester'
p2028
asg40
F-2.88
sg41
g42
ssS'mobley_6359135'
p2029
(dp2030
g3
S'C(Cl)(Cl)(Cl)Cl'
p2031
sg27
g28
sg29
F0.02
sg8
S' carbon tetrachloride'
p2032
sg10
(lp2033
g32
asg33
S'carbon tetrachloride'
p2034
sg15
I5943
sg16
F0.6
sg35
F0.08
sg18
(lp2035
S'halogen derivative'
p2036
asg40
F1.41
sg41
g42
ssS'mobley_1857976'
p2037
(dp2038
g3
S'C(CCl)Cl'
p2039
sg27
g28
sg29
F0.02
sg8
S' 1,2-dichloroethane'
p2040
sg10
(lp2041
g32
asg33
S'1,2-dichloroethane'
p2042
sg15
I11
sg16
F0.6
sg35
F-1.79
sg18
(lp2043
S'alkyl chloride'
p2044
asg40
F-0.52
sg41
g42
ssS'mobley_2068538'
p2045
(dp2046
g3
S'CCC'
p2047
sg5
g6
sg7
F0.1
sg8
S' propane'
p2048
sg10
(lp2049
g12
asg13
S'propane'
p2050
sg15
I6334
sg16
F0.2
sg17
F2.0
sg18
(lp2051
g69
asg21
F2.4
sg22
g23
ssS'mobley_52782'
p2052
(dp2053
g3
S'C(CO[N+](=O)[O-])O[N+](=O)[O-]'
p2054
sg200
g201
sg202
F0.02
sg8
S' 1,2-dinitroxyethane'
p2055
sg10
(lp2056
g32
aS'Changed IUPAC name from nitroglycol to 1,2-dinitroxyethane for better handling/standardization.'
p2057
asg205
S'1,2-dinitroxyethane'
p2058
sg15
I40818
sg207
F0.1
sg208
F-5.73
sg18
(lp2059
S'nitrate'
p2060
asg211
F-5.97
sg212
g213
ssS'mobley_4584540'
p2061
(dp2062
g3
S'Cc1cccc(n1)C'
p2063
sg27
g28
sg29
F0.02
sg8
S' 2,6-dimethylpyridine'
p2064
sg10
(lp2065
g32
asg33
S'2,6-dimethylpyridine'
p2066
sg15
I7937
sg16
F0.6
sg35
F-4.59
sg18
(lp2067
S'aromatic'
p2068
aS'heterocyclic'
p2069
asg40
F-3.36
sg41
g42
ssS'mobley_7573149'
p2070
(dp2071
g3
S'CCCOC(=O)C'
p2072
sg27
g28
sg29
F0.02
sg8
S' propyl acetate'
p2073
sg10
(lp2074
g32
asg33
S'propyl acetate'
p2075
sg15
I7997
sg16
F0.6
sg35
F-2.79
sg18
(lp2076
S'carboxylic acid ester'
p2077
asg40
F-3.33
sg41
g42
ssS'mobley_7758918'
p2078
(dp2079
g3
S'CCC(=O)O'
p2080
sg27
g28
sg29
F0.03
sg8
S' propionic acid'
p2081
sg10
(lp2082
g32
asg33
S'propionic acid'
p2083
sg15
I1032
sg16
F0.6
sg35
F-6.46
sg18
(lp2084
S'carboxylic acid'
p2085
asg40
F-6.41
sg41
g42
ssS'mobley_2763835'
p2086
(dp2087
g3
S'CCOc1ccccc1'
p2088
sg27
g28
sg29
F0.02
sg8
S' ethoxybenzene'
p2089
sg10
(lp2090
g32
asg33
S'ethoxybenzene'
p2091
sg15
I7674
sg16
F0.6
sg35
F-2.22
sg18
(lp2092
S'alkyl aryl ether'
p2093
aS'aromatic'
p2094
asg40
F-2.01
sg41
g42
ssS'mobley_4218209'
p2095
(dp2096
g3
S'COc1ccc(cc1)N'
p2097
sg27
g28
sg29
F0.03
sg8
S' 4-methoxyaniline'
p2098
sg10
(lp2099
g32
asg33
S'4-methoxyaniline'
p2100
sg15
I7732
sg16
F0.6
sg35
F-7.48
sg18
(lp2101
S'alkyl aryl ether'
p2102
aS'primary amine'
p2103
aS'primary aromatic amine'
p2104
aS'aromatic'
p2105
asg40
F-6.92
sg41
g42
ssS'mobley_2727678'
p2106
(dp2107
g3
S'c1c(c(=O)[nH]c(=O)[nH]1)I'
p2108
sg477
g478
sg479
F0.06
sg8
S' 5-iodouracil'
p2109
sg10
(lp2110
g32
asg482
S'5-iodouracil'
p2111
sg15
I69672
sg484
F0.64
sg485
F-18.72
sg18
(lp2112
S'aryl iodide'
p2113
aS'oxo(het)arene'
p2114
aS'aromatic'
p2115
aS'heterocyclic'
p2116
asg491
F-17.14
sg492
g493
ssS'mobley_6973347'
p2117
(dp2118
g3
S'CCOC(=O)C'
p2119
sg27
g28
sg29
F0.02
sg8
S' ethyl acetate'
p2120
sg10
(lp2121
g32
asg33
S'ethyl acetate'
p2122
sg15
I8857
sg16
F0.6
sg35
F-2.94
sg18
(lp2123
S'carboxylic acid ester'
p2124
asg40
F-3.23
sg41
g42
ssS'mobley_6175884'
p2125
(dp2126
g3
S'Cc1ccc(cc1)C=O'
p2127
sg27
g28
sg29
F0.03
sg8
S' 4-methylbenzaldehyde'
p2128
sg10
(lp2129
g32
asg33
S'4-methylbenzaldehyde'
p2130
sg15
I7725
sg16
F0.6
sg35
F-4.27
sg18
(lp2131
S'aldehyde'
p2132
aS'aromatic'
p2133
asg40
F-4.9
sg41
g42
ssS'mobley_6235784'
p2134
(dp2135
g3
S'CC[C@H](C)Cl'
p2136
sg27
g28
sg29
F0.02
sg8
S' 2-chlorobutane'
p2137
sg10
(lp2138
S'Renamed mobley_6235784 from 2-chlorobutane to (2S)-2-chlorobutane (the name from the 3D structure) since the former did not completely specify stereochemistry.\n'
p2139
asg33
S'2-chlorobutane'
p2140
sg15
I6563
sg16
F0.6
sg35
F0.0
sg18
(lp2141
S'alkyl chloride'
p2142
asg40
F1.21
sg41
g42
ssS'mobley_5026370'
p2143
(dp2144
g3
S'c1cnccc1C#N'
p2145
sg27
g28
sg29
F0.02
sg8
S' pyridine-4-carbonitrile'
p2146
sg10
(lp2147
g32
asg33
S'pyridine-4-carbonitrile'
p2148
sg15
I7506
sg16
F0.6
sg35
F-6.02
sg18
(lp2149
S'carbonitrile'
p2150
aS'aromatic'
p2151
aS'heterocyclic'
p2152
asg40
F-5.01
sg41
g42
ssS'mobley_3762186'
p2153
(dp2154
g3
S'C(Cl)Cl'
p2155
sg27
g28
sg29
F0.01
sg8
S' dichloromethane'
p2156
sg10
(lp2157
g32
asg33
S'dichloromethane'
p2158
sg15
I6344
sg16
F0.6
sg35
F-1.31
sg18
(lp2159
S'alkyl chloride'
p2160
asg40
F0.23
sg41
g42
ssS'mobley_1977493'
p2161
(dp2162
g3
S'CCCCl'
p2163
sg27
g28
sg29
F0.02
sg8
S' 1-chloropropane'
p2164
sg10
(lp2165
g32
asg33
S'1-chloropropane'
p2166
sg15
I10899
sg16
F0.6
sg35
F-0.33
sg18
(lp2167
S'alkyl chloride'
p2168
asg40
F0.92
sg41
g42
ssS'mobley_1396156'
p2169
(dp2170
g3
S'c1(c(c(c(c(c1Cl)Cl)Cl)Cl)Cl)N(=O)=O'
p2171
sg477
g478
sg479
F0.05
sg8
S' pentachloronitrobenzene'
p2172
sg10
(lp2173
g32
asg482
S'pentachloronitrobenzene'
p2174
sg15
I6720
sg484
F0.25
sg485
F-5.22
sg18
(lp2175
S'aryl chloride'
p2176
aS'nitro'
p2177
aS'aromatic'
p2178
asg491
F-2.26
sg492
g493
ssS'mobley_9507933'
p2179
(dp2180
g3
S'Cc1ccc(nc1)C'
p2181
sg27
g28
sg29
F0.02
sg8
S' 2,5-dimethylpyridine'
p2182
sg10
(lp2183
g32
asg33
S'2,5-dimethylpyridine'
p2184
sg15
I11526
sg16
F0.6
sg35
F-4.72
sg18
(lp2185
S'aromatic'
p2186
aS'heterocyclic'
p2187
asg40
F-2.83
sg41
g42
ssS'mobley_9913368'
p2188
(dp2189
g3
S'C(=C/Cl)\\Cl'
p2190
sg27
g28
sg29
F0.02
sg8
S' (E)-1,2-dichloroethylene'
p2191
sg10
(lp2192
S'Renamed mobley_9913368 from (E)-1,2-dichloroethylene to (E)-1,2-dichloroethylene (the name from the 3D structure) since the former did not completely specify stereochemistry.\n'
p2193
asg33
S'(E)-1,2-dichloroethylene'
p2194
sg15
I638186
sg16
F0.6
sg35
F-0.78
sg18
(lp2195
S'halogen derivative'
p2196
aS'alkene'
p2197
asg40
F1.2
sg41
g42
ssS'mobley_3167746'
p2198
(dp2199
g3
S'CCCCCCCC'
p2200
sg27
g28
sg29
F0.03
sg8
S' octane'
p2201
sg10
(lp2202
g32
asg33
S'octane'
p2203
sg15
I356
sg16
F0.6
sg35
F2.88
sg18
(lp2204
g69
asg40
F3.13
sg41
g42
ssS'mobley_2725802'
p2205
(dp2206
g3
S'CC(=O)N1CCCC1'
p2207
sg27
g28
sg29
F0.02
sg8
S' 1-pyrrolidin-1-ylethanone'
p2208
sg10
(lp2209
g32
asg33
S'1-pyrrolidin-1-ylethanone'
p2210
sg15
I77650
sg16
F0.6
sg35
F-9.8
sg18
(lp2211
S'tertiary carboxylic acid amide'
p2212
aS'heterocyclic'
p2213
asg40
F-7.97
sg41
g42
ssS'mobley_7912193'
p2214
(dp2215
g3
S'CCCCOC(=O)c1ccc(cc1)O'
p2216
sg477
g478
sg479
F0.06
sg8
S' butyl paraben'
p2217
sg10
(lp2218
g32
asg482
S'butyl paraben'
p2219
sg15
I7184
sg484
F0.27
sg485
F-8.72
sg18
(lp2220
S'phenol or hydroxyhetarene'
p2221
aS'carboxylic acid ester'
p2222
aS'aromatic'
p2223
asg491
F-9.19
sg492
g493
ssS'mobley_242480'
p2224
(dp2225
g3
S'c1ccc2c(c1)C(=O)c3c(ccc(c3C2=O)N)N'
p2226
sg296
g297
sg298
F0.024
sg8
S' disperse violet'
p2227
sg10
(lp2228
g32
asg301
S'1,4-diamino-9,10-anthracenedione'
p2229
sg15
I31420
sg303
g304
(g308
S'ffffff\xd6?'
p2230
tp2231
Rp2232
sg314
g304
(g308
S"33333\xb3'\xc0"
p2233
tp2234
Rp2235
sg18
(lp2236
S'ketone'
p2237
aS'primary amine'
p2238
aS'primary aromatic amine'
p2239
aS'aromatic'
p2240
asg322
F-14.2
sg323
g324
ssS'mobley_5445548'
p2241
(dp2242
g3
S'CC(C)c1ccccc1'
p2243
sg27
g28
sg29
F0.02
sg8
S' cumene'
p2244
sg10
(lp2245
g32
asg33
S'cumene'
p2246
sg15
I7406
sg16
F0.6
sg35
F-0.3
sg18
(lp2247
S'aromatic'
p2248
asg40
F-0.31
sg41
g42
ssS'mobley_8823527'
p2249
(dp2250
g3
S'c1cc(c(cc1Cl)c2cc(c(c(c2)Cl)Cl)Cl)Cl'
p2251
sg235
g236
sg237
F0.03
sg8
S" 2,3',4',5,5'-pentachloro-biphenyl"
p2252
sg10
(lp2253
g32
asg240
S'1,2,3-trichloro-5-(2,5-dichlorophenyl)benzene'
p2254
sg15
I63088
sg242
F0.13
sg243
F-3.61
sg18
(lp2255
S'aryl chloride'
p2256
aS'aromatic'
p2257
asg246
F-0.86
sg247
g248
ssS'mobley_1019269'
p2258
(dp2259
g3
S'CCCCO'
p2260
sg27
g28
sg29
F0.02
sg8
S' butan-1-ol'
p2261
sg10
(lp2262
g32
asg33
S'butan-1-ol'
p2263
sg15
I263
sg16
F0.6
sg35
F-4.72
sg18
(lp2264
S'primary alcohol'
p2265
asg40
F-3.14
sg41
g42
ssS'mobley_1755375'
p2266
(dp2267
g3
S'Cc1cccc(c1O)C'
p2268
sg27
g28
sg29
F0.03
sg8
S' 2,6-dimethylphenol'
p2269
sg10
(lp2270
g32
asg33
S'2,6-dimethylphenol'
p2271
sg15
I11335
sg16
F0.6
sg35
F-5.26
sg18
(lp2272
S'phenol or hydroxyhetarene'
p2273
aS'aromatic'
p2274
asg40
F-4.09
sg41
g42
ssS'mobley_4371692'
p2275
(dp2276
g3
S'c1ccc2c(c1)C(=O)c3c(ccc(c3C2=O)O)N'
p2277
sg296
g297
sg298
F0.022
sg8
S' 1-amino-4-hydroxyanthraquinone'
p2278
sg10
(lp2279
g32
asg301
S'1-amino-4-hydroxy-9,10-anthracenedione'
p2280
sg15
I8323
sg303
g304
(g308
S'\xecQ\xb8\x1e\x85\xeb\xd1?'
p2281
tp2282
Rp2283
sg314
g304
(g308
S'\x8f\xc2\xf5(\\\x0f#\xc0'
p2284
tp2285
Rp2286
sg18
(lp2287
S'ketone'
p2288
aS'phenol or hydroxyhetarene'
p2289
aS'primary amine'
p2290
aS'primary aromatic amine'
p2291
aS'aromatic'
p2292
asg322
F-11.22
sg323
g324
ssS'mobley_1139153'
p2293
(dp2294
g3
S'CC(C)CC(C)(C)C'
p2295
sg27
g28
sg29
F0.03
sg8
S' 2,2,4-trimethylpentane'
p2296
sg10
(lp2297
g32
asg33
S'2,2,4-trimethylpentane'
p2298
sg15
I10907
sg16
F0.6
sg35
F2.89
sg18
(lp2299
g69
asg40
F2.93
sg41
g42
ssS'mobley_5471704'
p2300
(dp2301
g3
S'CC(C)CCOC(=O)C'
p2302
sg27
g28
sg29
F0.03
sg8
S' isopentyl acetate'
p2303
sg10
(lp2304
g32
asg33
S'isopentyl acetate'
p2305
sg15
I31276
sg16
F0.6
sg35
F-2.21
sg18
(lp2306
S'carboxylic acid ester'
p2307
asg40
F-3.05
sg41
g42
ssS'mobley_6060301'
p2308
(dp2309
g3
S'CCCCCCN'
p2310
sg27
g28
sg29
F0.02
sg8
S' hexan-1-amine'
p2311
sg10
(lp2312
g32
asg33
S'hexan-1-amine'
p2313
sg15
I8102
sg16
F0.6
sg35
F-3.95
sg18
(lp2314
S'primary amine'
p2315
aS'primary aliphatic amine (alkylamine)'
p2316
asg40
F-2.54
sg41
g42
ssS'mobley_588781'
p2317
(dp2318
g3
S'CCCCCCc1ccccc1'
p2319
sg27
g28
sg29
F0.03
sg8
S' hexylbenzene'
p2320
sg10
(lp2321
g32
asg33
S'hexylbenzene'
p2322
sg15
I14109
sg16
F0.6
sg35
F-0.04
sg18
(lp2323
S'aromatic'
p2324
asg40
F0.24
sg41
g42
ssS'mobley_2354112'
p2325
(dp2326
g3
S'CCc1cccc(c1)O'
p2327
sg27
g28
sg29
F0.03
sg8
S' 3-ethylphenol'
p2328
sg10
(lp2329
g32
asg33
S'3-ethylphenol'
p2330
sg15
I12101
sg16
F0.6
sg35
F-6.25
sg18
(lp2331
S'phenol or hydroxyhetarene'
p2332
aS'aromatic'
p2333
asg40
F-5.02
sg41
g42
ssS'mobley_5747188'
p2334
(dp2335
g3
S'Cc1ccccc1[N+](=O)[O-]'
p2336
sg27
g28
sg29
F0.02
sg8
S' 1-methyl-2-nitro-benzene'
p2337
sg10
(lp2338
g32
asg33
S'1-methyl-2-nitro-benzene'
p2339
sg15
I6944
sg16
F0.6
sg35
F-3.58
sg18
(lp2340
S'nitro'
p2341
aS'aromatic'
p2342
asg40
F-3.14
sg41
g42
ssS'mobley_6896128'
p2343
(dp2344
g3
S'CCCC[C@@H](C)CC'
p2345
sg27
g28
sg29
F0.03
sg8
S' 3-methylheptane'
p2346
sg10
(lp2347
S'Renamed mobley_6896128 from 3-methylheptane to (3S)-3-methylheptane (the name from the 3D structure) since the former did not completely specify stereochemistry.\n'
p2348
asg33
S'3-methylheptane'
p2349
sg15
I11519
sg16
F0.6
sg35
F2.97
sg18
(lp2350
g69
asg40
F3.29
sg41
g42
ssS'mobley_8772587'
p2351
(dp2352
g3
S'CCCCI'
p2353
sg27
g28
sg29
F0.02
sg8
S' 1-iodobutane'
p2354
sg10
(lp2355
g32
asg33
S'1-iodobutane'
p2356
sg15
I10962
sg16
F0.6
sg35
F-0.25
sg18
(lp2357
S'alkyl iodide'
p2358
asg40
F0.58
sg41
g42
ssS'mobley_5456566'
p2359
(dp2360
g3
S'c1(c(c(c(c(c1Cl)Cl)Cl)Cl)Cl)c2c(c(c(c(c2Cl)Cl)Cl)Cl)Cl'
p2361
sg235
g236
sg237
F0.06
sg8
S' decachlorobiphenyl'
p2362
sg10
(lp2363
g32
asg240
S'1,2,3,4,5-pentachloro-6-(2,3,4,5,6-pentachlorophenyl)benzene'
p2364
sg15
I16318
sg242
F1.0
sg243
F-2.98
sg18
(lp2365
S'aryl chloride'
p2366
aS'aromatic'
p2367
asg246
F0.87
sg247
g248
ssS'mobley_2371092'
p2368
(dp2369
g3
S'Cc1ccncc1C'
p2370
sg27
g28
sg29
F0.02
sg8
S' 3,4-dimethylpyridine'
p2371
sg10
(lp2372
g32
asg33
S'3,4-dimethylpyridine'
p2373
sg15
I11417
sg16
F0.6
sg35
F-5.22
sg18
(lp2374
S'aromatic'
p2375
aS'heterocyclic'
p2376
asg40
F-3.18
sg41
g42
ssS'mobley_1328936'
p2377
(dp2378
g3
S'COC(=O)c1ccc(cc1)[N+](=O)[O-]'
p2379
sg27
g693
sg29
F0.03
sg8
S' methyl 4-nitrobenzoate'
p2380
sg10
(lp2381
g32
asg33
S'methyl 4-nitrobenzoate'
p2382
sg15
I12083
sg16
F0.6
sg35
F-6.88
sg18
(lp2383
S'carboxylic acid ester'
p2384
aS'nitro'
p2385
aS'aromatic'
p2386
asg40
F-6.39
sg41
g42
ssS'mobley_5499659'
p2387
(dp2388
g3
S'Cn1ccnc1'
p2389
sg27
g28
sg29
F0.03
sg8
S' 1-methylimidazole'
p2390
sg10
(lp2391
g32
asg33
S'1-methylimidazole'
p2392
sg15
I1390
sg16
F0.6
sg35
F-8.41
sg18
(lp2393
S'aromatic'
p2394
aS'heterocyclic'
p2395
asg40
F-6.33
sg41
g42
ssS'mobley_2792521'
p2396
(dp2397
g3
S'CCC/C=C/C=O'
p2398
sg27
S'10.1021/jf60178a004 and 10.1016/S1387-3806(02)00927-2'
p2399
sg29
F0.02
sg8
S' (2E)-hex-2-enal'
p2400
sg10
(lp2401
S'Renamed mobley_2792521 from hex-2-enal to (E)-hex-2-enal (the name from the 3D structure) since the former did not completely specify stereochemistry.\n'
p2402
aS'Experimental value provided by J. Peter Guthrie, University of Western Ontario, 10/23/2013, as a weighted average of the Buttery et al. and Karl et al. values noted in the experimental reference field.'
p2403
asg33
S'(2E)-hex-2-enal'
p2404
sg15
I5281168
sg16
F0.6
sg35
F-3.68
sg18
(lp2405
S'aldehyde'
p2406
aS'alkene'
p2407
asg40
F-3.22
sg41
g42
ssS'mobley_9974966'
p2408
(dp2409
g3
S'CC(C)SC(C)C'
p2410
sg27
g28
sg29
F0.02
sg8
S' 2-isopropylsulfanylpropane'
p2411
sg10
(lp2412
g32
asg33
S'2-isopropylsulfanylpropane'
p2413
sg15
I12264
sg16
F0.6
sg35
F-1.21
sg18
(lp2414
S'thioether'
p2415
asg40
F0.1
sg41
g42
ssS'mobley_6733657'
p2416
(dp2417
g3
S'C1[C@H]([C@@H]2[C@H]([C@H]1Cl)[C@]3(C(=C([C@@]2(C3(Cl)Cl)Cl)Cl)Cl)Cl)Cl'
p2418
sg200
g201
sg202
F0.03
sg8
S' chlordane'
p2419
sg10
(lp2420
g32
asg205
S'chlordane'
p2421
sg15
I5993
sg207
F0.1
sg208
F-3.44
sg18
(lp2422
S'alkyl chloride'
p2423
aS'alkene'
p2424
asg211
F-3.25
sg212
g213
ssS'mobley_9121449'
p2425
(dp2426
g3
S'CCC#C'
p2427
sg27
g28
sg29
F0.02
sg8
S' but-1-yne'
p2428
sg10
(lp2429
g32
asg33
S'but-1-yne'
p2430
sg15
I7846
sg16
F0.6
sg35
F-0.16
sg18
(lp2431
S'alkyne'
p2432
asg40
F0.51
sg41
g42
ssS'mobley_2310185'
p2433
(dp2434
g3
S'CCO'
p2435
sg27
g28
sg29
F0.03
sg8
S' ethanol'
p2436
sg10
(lp2437
g32
asg33
S'ethanol'
p2438
sg15
I702
sg16
F0.6
sg35
F-5.0
sg18
(lp2439
S'primary alcohol'
p2440
asg40
F-3.45
sg41
g42
ssS'mobley_7099614'
p2441
(dp2442
g3
S'C=CCCl'
p2443
sg27
g28
sg29
F0.02
sg8
S' 3-chloroprop-1-ene'
p2444
sg10
(lp2445
g32
asg33
S'3-chloroprop-1-ene'
p2446
sg15
I7850
sg16
F0.6
sg35
F-0.57
sg18
(lp2447
S'alkyl chloride'
p2448
aS'alkene'
p2449
asg40
F0.88
sg41
g42
ssS'mobley_7295828'
p2450
(dp2451
g3
S'COc1ccccc1'
p2452
sg27
g28
sg29
F0.02
sg8
S' anisole'
p2453
sg10
(lp2454
g32
asg33
S'anisole'
p2455
sg15
I7519
sg16
F0.6
sg35
F-2.45
sg18
(lp2456
S'alkyl aryl ether'
p2457
aS'aromatic'
p2458
asg40
F-2.3
sg41
g42
ssS'mobley_63712'
p2459
(dp2460
g3
S'CN1CCCCC1'
p2461
sg27
g28
sg29
F0.02
sg8
S' 1-methylpiperidine'
p2462
sg10
(lp2463
g32
asg33
S'1-methylpiperidine'
p2464
sg15
I12291
sg16
F0.6
sg35
F-3.88
sg18
(lp2465
S'tertiary amine'
p2466
aS'tertiary aliphatic amine (trialkylamine)'
p2467
aS'heterocyclic'
p2468
asg40
F-3.21
sg41
g42
ssS'mobley_3060426'
p2469
(dp2470
g3
S'CC(C)CCC(C)(C)C'
p2471
sg27
g28
sg29
F0.03
sg8
S' 2,2,5-trimethylhexane'
p2472
sg10
(lp2473
g32
asg33
S'2,2,5-trimethylhexane'
p2474
sg15
I19041
sg16
F0.6
sg35
F2.93
sg18
(lp2475
g69
asg40
F2.86
sg41
g42
ssS'mobley_5282042'
p2476
(dp2477
g3
S'CN(C)CCC=C1c2ccccc2CCc3c1cccc3'
p2478
sg296
g297
sg298
F0.031
sg8
S' amitriptyline'
p2479
sg10
(lp2480
g32
asg301
S'Amitriptyline'
p2481
sg15
I2160
sg303
F0.6
sg314
F-7.43
sg18
(lp2482
S'tertiary amine'
p2483
aS'tertiary aliphatic amine (trialkylamine)'
p2484
aS'alkene'
p2485
aS'aromatic'
p2486
asg322
F-8.28
sg323
g324
ssS'mobley_2607611'
p2487
(dp2488
g3
S'CCCCCCOC(=O)C'
p2489
sg27
g28
sg29
F0.03
sg8
S' hexyl acetate'
p2490
sg10
(lp2491
g32
asg33
S'hexyl acetate'
p2492
sg15
I8908
sg16
F0.6
sg35
F-2.26
sg18
(lp2493
S'carboxylic acid ester'
p2494
asg40
F-2.97
sg41
g42
ssS'mobley_1036761'
p2495
(dp2496
g3
S'C1CCC(CC1)N'
p2497
sg27
g28
sg29
F0.02
sg8
S' cyclohexanamine'
p2498
sg10
(lp2499
g32
asg33
S'cyclohexanamine'
p2500
sg15
I7965
sg16
F0.6
sg35
F-4.59
sg18
(lp2501
S'primary amine'
p2502
aS'primary aliphatic amine (alkylamine)'
p2503
asg40
F-3.94
sg41
g42
ssS'mobley_4893032'
p2504
(dp2505
g3
S'CCCCC#N'
p2506
sg27
g28
sg29
F0.02
sg8
S' pentanenitrile'
p2507
sg10
(lp2508
g32
asg33
S'pentanenitrile'
p2509
sg15
I8061
sg16
F0.6
sg35
F-3.52
sg18
(lp2510
S'carbonitrile'
p2511
asg40
F-2.16
sg41
g42
ssS'mobley_8558116'
p2512
(dp2513
g3
S'CN1CCOCC1'
p2514
sg27
g28
sg29
F0.03
sg8
S' 4-methylmorpholine'
p2515
sg10
(lp2516
g32
asg33
S'4-methylmorpholine'
p2517
sg15
I7972
sg16
F0.6
sg35
F-6.32
sg18
(lp2518
S'dialkyl ether'
p2519
aS'tertiary amine'
p2520
aS'tertiary aliphatic amine (trialkylamine)'
p2521
aS'heterocyclic'
p2522
asg40
F-5.87
sg41
g42
ssS'mobley_5518547'
p2523
(dp2524
g3
S'Cc1ccc(cc1)N'
p2525
sg27
g28
sg29
F0.03
sg8
S' 4-methylaniline'
p2526
sg10
(lp2527
g32
asg33
S'4-methylaniline'
p2528
sg15
I7813
sg16
F0.6
sg35
F-5.57
sg18
(lp2529
S'primary amine'
p2530
aS'primary aromatic amine'
p2531
aS'aromatic'
p2532
asg40
F-5.56
sg41
g42
ssS'mobley_3378420'
p2533
(dp2534
g3
S'CCCCCCCCCO'
p2535
sg27
g28
sg29
F0.03
sg8
S' nonan-1-ol'
p2536
sg10
(lp2537
g32
asg33
S'nonan-1-ol'
p2538
sg15
I8914
sg16
F0.6
sg35
F-3.88
sg18
(lp2539
S'primary alcohol'
p2540
asg40
F-2.54
sg41
g42
ssS'mobley_9794857'
p2541
(dp2542
g3
S'CC(C)(C)OC'
p2543
sg27
g1343
sg29
F0.02
sg8
S' 2-methoxy-2-methyl-propane'
p2544
sg10
(lp2545
g32
asg33
S'2-methoxy-2-methyl-propane'
p2546
sg15
I15413
sg16
F0.6
sg35
F-2.21
sg18
(lp2547
S'dialkyl ether'
p2548
asg40
F-0.68
sg41
g42
ssS'mobley_6456034'
p2549
(dp2550
g3
S'CC(C)COC(=O)C(C)C'
p2551
sg27
g28
sg29
F0.03
sg8
S' isobutyl 2-methylpropanoate'
p2552
sg10
(lp2553
g32
asg33
S'isobutyl 2-methylpropanoate'
p2554
sg15
I7351
sg16
F0.6
sg35
F-1.69
sg18
(lp2555
S'carboxylic acid ester'
p2556
asg40
F-2.55
sg41
g42
ssS'mobley_3573480'
p2557
(dp2558
g3
S'CCCCCC(=O)C'
p2559
sg27
g28
sg29
F0.02
sg8
S' heptan-2-one'
p2560
sg10
(lp2561
g32
asg33
S'heptan-2-one'
p2562
sg15
I8051
sg16
F0.6
sg35
F-3.04
sg18
(lp2563
S'ketone'
p2564
asg40
F-2.8
sg41
g42
ssS'mobley_676247'
p2565
(dp2566
g3
S'C(F)(F)(F)F'
p2567
sg27
g28
sg29
F0.01
sg8
S' tetrafluoromethane'
p2568
sg10
(lp2569
g32
asg33
S'tetrafluoromethane'
p2570
sg15
I6393
sg16
F0.6
sg35
F3.12
sg18
(lp2571
S'halogen derivative'
p2572
asg40
F2.42
sg41
g42
ssS'mobley_5760563'
p2573
(dp2574
g3
S'COS(=O)(=O)OC'
p2575
sg27
S'10.1139/v78-385'
p2576
sg29
F0.02
sg8
S' dimethyl sulfate'
p2577
sg10
(lp2578
g32
asg33
S'dimethyl sulfate'
p2579
sg15
I6497
sg16
F0.6
sg35
F-5.1
sg18
(lp2580
S'sulfuric acid diester'
p2581
asg40
F-7.85
sg41
g42
ssS'mobley_8754702'
p2582
(dp2583
g3
S'CCCOC=O'
p2584
sg27
g28
sg29
F0.02
sg8
S' propyl formate'
p2585
sg10
(lp2586
g32
asg33
S'propyl formate'
p2587
sg15
I8073
sg16
F0.6
sg35
F-2.48
sg18
(lp2588
S'carboxylic acid ester'
p2589
asg40
F-3.5
sg41
g42
ssS'mobley_3169935'
p2590
(dp2591
g3
S'c1ccc(c(c1)N)Cl'
p2592
sg27
g28
sg29
F0.03
sg8
S' 2-chloroaniline'
p2593
sg10
(lp2594
g32
asg33
S'2-chloroaniline'
p2595
sg15
I7240
sg16
F0.6
sg35
F-4.91
sg18
(lp2596
S'primary amine'
p2597
aS'primary aromatic amine'
p2598
aS'aryl chloride'
p2599
aS'aromatic'
p2600
asg40
F-4.96
sg41
g42
ssS'mobley_5311804'
p2601
(dp2602
g3
S'c1ccc(cc1)CO'
p2603
sg27
g28
sg29
F0.03
sg8
S' phenylmethanol'
p2604
sg10
(lp2605
g32
asg33
S'phenylmethanol'
p2606
sg15
I244
sg16
F0.6
sg35
F-6.62
sg18
(lp2607
S'primary alcohol'
p2608
aS'aromatic'
p2609
asg40
F-5.41
sg41
g42
ssS'mobley_6115639'
p2610
(dp2611
g3
S'COP(=O)(OC)OC'
p2612
sg477
g478
sg479
F0.06
sg8
S' trimethyl phosphate'
p2613
sg10
(lp2614
g32
asg482
S'trimethyl phosphate'
p2615
sg15
I10541
sg484
F0.1
sg485
F-8.7
sg18
(lp2616
S'phosphoric acid ester'
p2617
asg491
F-11.36
sg492
g493
ssS'mobley_6714389'
p2618
(dp2619
g3
S'CN'
p2620
sg27
g28
sg29
F0.01
sg8
S' methanamine'
p2621
sg10
(lp2622
g32
asg33
S'methanamine'
p2623
sg15
I6329
sg16
F0.6
sg35
F-4.55
sg18
(lp2624
S'primary amine'
p2625
aS'primary aliphatic amine (alkylamine)'
p2626
asg40
F-3.44
sg41
g42
ssS'mobley_9015240'
p2627
(dp2628
g3
S'CCCCCCCCBr'
p2629
sg27
g28
sg29
F0.03
sg8
S' 1-bromooctane'
p2630
sg10
(lp2631
g32
asg33
S'1-bromooctane'
p2632
sg15
I8140
sg16
F0.6
sg35
F0.52
sg18
(lp2633
S'alkyl bromide'
p2634
asg40
F1.92
sg41
g42
ssS'mobley_1417007'
p2635
(dp2636
g3
S'C1C=CC[C@@H]2[C@@H]1C(=O)N(C2=O)SC(Cl)(Cl)Cl'
p2637
sg200
g201
sg202
F0.04
sg8
S' captan'
p2638
sg10
(lp2639
S'Renamed mobley_1417007 from captan to (3aR,7aR)-2-(trichloromethylsulfanyl)-3a,4,7,7a-tetrahydroisoindole-1,3-dione (the name from the 3D structure) since the former did not completely specify stereochemistry.\n'
p2640
asg205
S'captan'
p2641
sg15
I8606
sg207
F1.93
sg208
F-9.01
sg18
(lp2642
S'halogen derivative'
p2643
aS'carboxylic acid imide, N-substituted'
p2644
aS'alkene'
p2645
aS'heterocyclic'
p2646
asg211
F-8.71
sg212
g213
ssS'mobley_2681549'
p2647
(dp2648
g3
S'c1c(cc(cc1Cl)Cl)Cl'
p2649
sg27
g28
sg29
F0.02
sg8
S' 1,3,5-trichlorobenzene'
p2650
sg10
(lp2651
g32
asg33
S'1,3,5-trichlorobenzene'
p2652
sg15
I7950
sg16
F0.6
sg35
F-0.78
sg18
(lp2653
S'aryl chloride'
p2654
aS'aromatic'
p2655
asg40
F0.45
sg41
g42
ssS'mobley_4287564'
p2656
(dp2657
g3
S'Cc1ccccn1'
p2658
sg27
g28
sg29
F0.02
sg8
S' 2-methylpyridine'
p2659
sg10
(lp2660
g32
asg33
S'2-methylpyridine'
p2661
sg15
I7975
sg16
F0.6
sg35
F-4.63
sg18
(lp2662
S'aromatic'
p2663
aS'heterocyclic'
p2664
asg40
F-3.41
sg41
g42
ssS'mobley_2043882'
p2665
(dp2666
g3
S'CC(=O)C1CCCCC1'
p2667
sg27
g28
sg29
F0.02
sg8
S' 1-cyclohexylethanone'
p2668
sg10
(lp2669
g32
asg33
S'1-cyclohexylethanone'
p2670
sg15
I13207
sg16
F0.6
sg35
F-3.9
sg18
(lp2671
S'ketone'
p2672
asg40
F-3.9
sg41
g42
ssS'mobley_352111'
p2673
(dp2674
g3
S'CC(=O)OCCOC(=O)C'
p2675
sg27
g28
sg29
F0.04
sg8
S' 2-acetoxyethyl acetate'
p2676
sg10
(lp2677
g32
asg33
S'2-acetoxyethyl acetate'
p2678
sg15
I8121
sg16
F0.6
sg35
F-6.34
sg18
(lp2679
S'carboxylic acid ester'
p2680
asg40
F-8.32
sg41
g42
ssS'mobley_3686115'
p2681
(dp2682
g3
S'CCOC(C)OCC'
p2683
sg1390
g1391
sg1392
F0.08
sg8
S' 1,1-diethoxyethane'
p2684
sg1394
(lp2685
g1396
ag32
ag186
asg1397
S'1,1-diethoxyethane'
p2686
sg15
I7765
sg16
F0.2
sg1399
F-3.28
sg18
(lp2687
S'acetal'
p2688
asg1402
F-1.89
sg1403
g1391
ssS'mobley_8337722'
p2689
(dp2690
g3
S'C[C@@H]1CC[C@H]([C@@H](C1)O)C(C)C'
p2691
sg296
g297
sg298
F0.021
sg8
S' i-menthol'
p2692
sg10
(lp2693
g32
asg301
S'(1R,2S,5R)-2-isopropyl-5-methylcyclohexanol'
p2694
sg15
I16666
sg303
F0.28
sg314
F-3.2
sg18
(lp2695
S'secondary alcohol'
p2696
asg322
F-3.39
sg323
g324
ssS'mobley_7326706'
p2697
(dp2698
g3
S'CCOP(=S)(OCC)Oc1c(cc(c(n1)Cl)Cl)Cl'
p2699
sg200
g201
sg202
F0.04
sg8
S' chlorpyrifos'
p2700
sg10
(lp2701
g32
asg205
S'chlorpyrifos'
p2702
sg15
I2730
sg207
F0.21
sg208
F-5.04
sg18
(lp2703
S'aryl chloride'
p2704
aS'thiophosphoric acid ester'
p2705
aS'aromatic'
p2706
aS'heterocyclic'
p2707
asg211
F-9.05
sg212
g213
ssS'mobley_3144334'
p2708
(dp2709
g3
S'Cc1ccc(c(c1)O)C'
p2710
sg27
g28
sg29
F0.03
sg8
S' 2,5-dimethylphenol'
p2711
sg10
(lp2712
g32
asg33
S'2,5-dimethylphenol'
p2713
sg15
I7267
sg16
F0.6
sg35
F-5.91
sg18
(lp2714
S'phenol or hydroxyhetarene'
p2715
aS'aromatic'
p2716
asg40
F-4.39
sg41
g42
ssS'mobley_5973402'
p2717
(dp2718
g3
S'CC(C)CCO'
p2719
sg27
g28
sg29
F0.03
sg8
S' 3-methylbutan-1-ol'
p2720
sg10
(lp2721
g32
asg33
S'3-methylbutan-1-ol'
p2722
sg15
I31260
sg16
F0.6
sg35
F-4.42
sg18
(lp2723
S'primary alcohol'
p2724
asg40
F-2.92
sg41
g42
ssS'mobley_6353617'
p2725
(dp2726
g3
S'CC(=O)c1cccnc1'
p2727
sg27
g28
sg29
F0.03
sg8
S' 1-(3-pyridyl)ethanone'
p2728
sg10
(lp2729
g32
asg33
S'1-(3-pyridyl)ethanone'
p2730
sg15
I9589
sg16
F0.6
sg35
F-8.26
sg18
(lp2731
S'ketone'
p2732
aS'aromatic'
p2733
aS'heterocyclic'
p2734
asg40
F-7.1
sg41
g42
ssS'mobley_2261979'
p2735
(dp2736
g3
S'c1cc2cccc3c2c(c1)CC3'
p2737
sg27
g28
sg29
F0.03
sg8
S' acenaphthene'
p2738
sg10
(lp2739
g32
asg33
S'acenaphthene'
p2740
sg15
I6734
sg16
F0.6
sg35
F-3.15
sg18
(lp2741
S'aromatic'
p2742
asg40
F-3.51
sg41
g42
ssS'mobley_4715906'
p2743
(dp2744
g3
S'C[C@@H]1CCCC[C@@H]1C'
p2745
sg27
g28
sg29
F0.02
sg8
S' 1,2-dimethylcyclohexane'
p2746
sg10
(lp2747
S'Renamed mobley_4715906 from 1,2-dimethylcyclohexane to (1R,2S)-1,2-dimethylcyclohexane (the name from the 3D structure) since the former did not completely specify stereochemistry.\n'
p2748
asg33
S'1,2-dimethylcyclohexane'
p2749
sg15
I11416
sg16
F0.6
sg35
F1.58
sg18
(lp2750
g69
asg40
F2.05
sg41
g42
ssS'mobley_5952846'
p2751
(dp2752
g3
S'C(=C(Cl)Cl)(Cl)Cl'
p2753
sg27
g28
sg29
F0.02
sg8
S' 1,1,2,2-tetrachloroethylene'
p2754
sg10
(lp2755
g32
asg33
S'1,1,2,2-tetrachloroethylene'
p2756
sg15
I31373
sg16
F0.6
sg35
F0.1
sg18
(lp2757
S'halogen derivative'
p2758
asg40
F1.41
sg41
g42
ssS'mobley_1903702'
p2759
(dp2760
g3
S'CC[C@H](C)O'
p2761
sg27
g28
sg29
F0.03
sg8
S' butan-2-ol'
p2762
sg10
(lp2763
S'Renamed mobley_1903702 from butan-2-ol to (2S)-butan-2-ol (the name from the 3D structure) since the former did not completely specify stereochemistry.\n'
p2764
asg33
S'butan-2-ol'
p2765
sg15
I6568
sg16
F0.6
sg35
F-4.62
sg18
(lp2766
S'secondary alcohol'
p2767
asg40
F-3.12
sg41
g42
ssS'mobley_5220185'
p2768
(dp2769
g3
S'CCc1cnccn1'
p2770
sg27
g28
sg29
F0.03
sg8
S' 2-ethylpyrazine'
p2771
sg10
(lp2772
g32
asg33
S'2-ethylpyrazine'
p2773
sg15
I26331
sg16
F0.6
sg35
F-5.45
sg18
(lp2774
S'aromatic'
p2775
aS'heterocyclic'
p2776
asg40
F-5.68
sg41
g42
ssS'mobley_5510474'
p2777
(dp2778
g3
S'c1ccc2c(c1)Oc3c(c(c(c(c3Cl)Cl)Cl)Cl)O2'
p2779
sg235
g236
sg237
F0.03
sg8
S' 1,2,3,4-tetrachlorodibenzo-p-dioxin'
p2780
sg10
(lp2781
g32
asg240
S'1,2,3,4-tetrachlorodibenzo-p-dioxin'
p2782
sg15
I35454
sg242
F0.14
sg243
F-3.81
sg18
(lp2783
S'diaryl ether'
p2784
aS'aryl chloride'
p2785
aS'aromatic'
p2786
aS'heterocyclic'
p2787
asg246
F-2.7
sg247
g248
ssS'mobley_3980099'
p2788
(dp2789
g3
S'c1cc(c(c(c1)Cl)Cl)Cl'
p2790
sg27
g28
sg29
F0.02
sg8
S' 1,2,3-trichlorobenzene'
p2791
sg10
(lp2792
g32
asg33
S'1,2,3-trichlorobenzene'
p2793
sg15
I6895
sg16
F0.6
sg35
F-1.24
sg18
(lp2794
S'aryl chloride'
p2795
aS'aromatic'
p2796
asg40
F-0.38
sg41
g42
ssS'mobley_1944394'
p2797
(dp2798
g3
S'CN(C)CCOC(c1ccccc1)c2ccccc2'
p2799
sg296
g297
sg298
F0.031
sg8
S' benadryl'
p2800
sg10
(lp2801
g32
asg301
S'[2-benzhydryloxyethyl]-dimethyl-amine'
p2802
sg15
I3100
sg303
g304
(g308
S'\xd7\xa3p=\n\xd7\xe3?'
p2803
tp2804
Rp2805
sg314
g304
(g308
S'\xaeG\xe1z\x14\xae"\xc0'
p2806
tp2807
Rp2808
sg18
(lp2809
S'dialkyl ether'
p2810
aS'tertiary amine'
p2811
aS'tertiary aliphatic amine (trialkylamine)'
p2812
aS'aromatic'
p2813
asg322
F-8.15
sg323
g324
ssS'mobley_2501588'
p2814
(dp2815
g3
S'CCC[N@@](CC1CC1)c2c(cc(cc2[N+](=O)[O-])C(F)(F)F)[N+](=O)[O-]'
p2816
sg200
g201
sg202
F0.04
sg8
S' profluralin'
p2817
sg10
(lp2818
g32
asg205
S'profluralin'
p2819
sg15
I33500
sg207
F1.37
sg208
F-2.45
sg18
(lp2820
S'tertiary amine'
p2821
aS'tertiary aliphatic/aromatic amine (alkylarylamine)'
p2822
aS'halogen derivative'
p2823
aS'nitro'
p2824
aS'aromatic'
p2825
asg211
F-1.81
sg212
g213
ssS'mobley_3968739'
p2826
(dp2827
g3
S'COC(=O)c1ccccc1'
p2828
sg27
g28
sg29
F0.03
sg8
S' methyl benzoate'
p2829
sg10
(lp2830
g32
asg33
S'methyl benzoate'
p2831
sg15
I7150
sg16
F0.6
sg35
F-3.92
sg18
(lp2832
S'carboxylic acid ester'
p2833
aS'aromatic'
p2834
asg40
F-5.06
sg41
g42
ssS'mobley_9897248'
p2835
(dp2836
g3
S'CC(=CCC/C(=C\\CO)/C)C'
p2837
sg296
g297
sg298
F0.022
sg8
S' nerol'
p2838
sg10
(lp2839
g32
aS'Former IUPAC name Nerol replaced with one generated from the 3D structure, (2Z)-3,7-dimethylocta-2,6-dien-1-ol'
p2840
asg301
S'(2Z)-3,7-dimethylocta-2,6-dien-1-ol'
p2841
sg15
I643820
sg303
g304
(g308
S'\x00\x00\x00\x00\x00\x00\xd0?'
p2842
tp2843
Rp2844
sg314
g304
(g308
S'\x1f\x85\xebQ\xb8\x1e\x13\xc0'
p2845
tp2846
Rp2847
sg18
(lp2848
S'primary alcohol'
p2849
aS'alkene'
p2850
asg322
F-2.64
sg323
g324
ssS'mobley_3727287'
p2851
(dp2852
g3
S'C1=CC(=O)C=CC1=O'
p2853
sg5
g6
sg7
F0.1
sg8
S' quinone'
p2854
sg10
(lp2855
g12
asg13
S'quinone'
p2856
sg15
I4650
sg16
F0.2
sg17
F-6.5
sg18
(lp2857
S'ketone'
p2858
aS'alkene'
p2859
asg21
F-6.9
sg22
g23
ssS'mobley_2577969'
p2860
(dp2861
g3
S'c1cc2ccc3cccc4c3c2c(c1)cc4'
p2862
sg27
g28
sg29
F0.03
sg8
S' pyrene'
p2863
sg10
(lp2864
g32
asg33
S'pyrene'
p2865
sg15
I31423
sg16
F0.6
sg35
F-4.52
sg18
(lp2866
S'aromatic'
p2867
asg40
F-6.62
sg41
g42
ssS'mobley_6620221'
p2868
(dp2869
g3
S'CC1(Cc2cccc(c2O1)OC(=O)NC)C'
p2870
sg200
g201
sg202
F0.04
sg8
S' carbofuran'
p2871
sg10
(lp2872
g32
asg205
S'carbofuran'
p2873
sg15
I2566
sg207
F0.3
sg208
F-9.61
sg18
(lp2874
S'alkyl aryl ether'
p2875
aS'carbamic acid ester (urethane)'
p2876
aS'aromatic'
p2877
aS'heterocyclic'
p2878
asg211
F-11.21
sg212
g213
ssS'mobley_3370989'
p2879
(dp2880
g3
S'CC(F)F'
p2881
sg27
g28
sg29
F0.02
sg8
S' 1,1-difluoroethane'
p2882
sg10
(lp2883
g32
asg33
S'1,1-difluoroethane'
p2884
sg15
I6368
sg16
F0.6
sg35
F-0.11
sg18
(lp2885
S'alkyl fluoride'
p2886
asg40
F0.19
sg41
g42
ssS'mobley_6239320'
p2887
(dp2888
g3
S'c1(=O)[nH]c(=O)[nH]c(=O)[nH]1'
p2889
sg477
g478
sg479
F0.07
sg8
S' cyanuric acid'
p2890
sg10
(lp2891
g32
asg482
S'cyanuric acid'
p2892
sg15
I7956
sg484
F0.27
sg485
F-18.06
sg18
(lp2893
S'oxo(het)arene'
p2894
aS'aromatic'
p2895
aS'heterocyclic'
p2896
asg491
F-21.71
sg492
g493
ssS'mobley_5056289'
p2897
(dp2898
g3
S'C[C@H]1CCCO1'
p2899
sg27
g28
sg29
F0.02
sg8
S' 2-methyltetrahydrofuran'
p2900
sg10
(lp2901
S'Renamed mobley_5056289 from 2-methyltetrahydrofuran to (2S)-2-methyltetrahydrofuran (the name from the 3D structure) since the former did not completely specify stereochemistry.\n'
p2902
asg33
S'2-methyltetrahydrofuran'
p2903
sg15
I7301
sg16
F0.6
sg35
F-3.3
sg18
(lp2904
S'dialkyl ether'
p2905
aS'heterocyclic'
p2906
asg40
F-1.95
sg41
g42
ssS'mobley_6358463'
p2907
(dp2908
g3
S'c1ccc(c(c1)C(F)(F)F)C(F)(F)F'
p2909
sg27
g28
sg29
F0.03
sg8
S' 1,2-bis(trifluoromethyl)benzene'
p2910
sg10
(lp2911
g32
asg33
S'1,2-bis(trifluoromethyl)benzene'
p2912
sg15
I9818
sg16
F0.6
sg35
F1.07
sg18
(lp2913
S'halogen derivative'
p2914
aS'aromatic'
p2915
asg40
F-1.58
sg41
g42
ssS'mobley_1261349'
p2916
(dp2917
g3
S'CC(C)(C)C'
p2918
sg27
g28
sg29
F0.02
sg8
S' neopentane'
p2919
sg10
(lp2920
g32
asg33
S'neopentane'
p2921
sg15
I10041
sg16
F0.6
sg35
F2.51
sg18
(lp2922
g69
asg40
F2.6
sg41
g42
ssS'mobley_1363784'
p2923
(dp2924
g3
S'Cc1cc(cnc1)C'
p2925
sg27
g28
sg29
F0.02
sg8
S' 3,5-dimethylpyridine'
p2926
sg10
(lp2927
g32
asg33
S'3,5-dimethylpyridine'
p2928
sg15
I11565
sg16
F0.6
sg35
F-4.84
sg18
(lp2929
S'aromatic'
p2930
aS'heterocyclic'
p2931
asg40
F-2.94
sg41
g42
ssS'mobley_628086'
p2932
(dp2933
g3
S'C[C@@H](C(F)(F)F)O'
p2934
sg27
g28
sg29
F0.03
sg8
S' 1,1,1-trifluoropropan-2-ol'
p2935
sg10
(lp2936
S'Renamed mobley_628086 from 1,1,1-trifluoropropan-2-ol to (2S)-1,1,1-trifluoropropan-2-ol (the name from the 3D structure) since the former did not completely specify stereochemistry.\n'
p2937
asg33
S'1,1,1-trifluoropropan-2-ol'
p2938
sg15
I9774
sg16
F0.6
sg35
F-4.16
sg18
(lp2939
S'secondary alcohol'
p2940
aS'halogen derivative'
p2941
asg40
F-3.56
sg41
g42
ssS'mobley_8207196'
p2942
(dp2943
g3
S'CCNc1nc(nc(n1)Cl)NCC'
p2944
sg200
g201
sg202
F0.04
sg8
S' simazine'
p2945
sg10
(lp2946
g32
asg205
S'simazine'
p2947
sg15
I5216
sg207
F0.1
sg208
F-10.22
sg18
(lp2948
S'secondary amine'
p2949
aS'secondary aliphatic/aromatic amine (alkylarylamine)'
p2950
aS'aryl chloride'
p2951
aS'aromatic'
p2952
aS'heterocyclic'
p2953
asg211
F-8.63
sg212
g213
ssS'mobley_7039935'
p2954
(dp2955
g3
S'c1ccc2c(c1)cccc2O'
p2956
sg27
g28
sg29
F0.03
sg8
S' naphthalen-1-ol'
p2957
sg10
(lp2958
g32
asg33
S'naphthalen-1-ol'
p2959
sg15
I7005
sg16
F0.6
sg35
F-7.67
sg18
(lp2960
S'phenol or hydroxyhetarene'
p2961
aS'aromatic'
p2962
asg40
F-7.51
sg41
g42
ssS'mobley_1662128'
p2963
(dp2964
g3
S'CCC=C'
p2965
sg27
g28
sg29
F0.02
sg8
S' but-1-ene'
p2966
sg10
(lp2967
g32
asg33
S'but-1-ene'
p2968
sg15
I7844
sg16
F0.6
sg35
F1.38
sg18
(lp2969
S'alkene'
p2970
asg40
F2.48
sg41
g42
ssS'mobley_3034976'
p2971
(dp2972
g3
S'CC(=O)O'
p2973
sg27
g28
sg29
F0.02
sg8
S' acetic acid'
p2974
sg10
(lp2975
g32
asg33
S'acetic acid'
p2976
sg15
I176
sg16
F0.6
sg35
F-6.69
sg18
(lp2977
S'carboxylic acid'
p2978
asg40
F-5.95
sg41
g42
ssS'mobley_9510785'
p2979
(dp2980
g3
S'c1ccc(cc1)c2cc(c(c(c2Cl)Cl)Cl)Cl'
p2981
sg235
g236
sg237
F0.03
sg8
S' 2,3,4,5-tetrachlorobiphenyl'
p2982
sg10
(lp2983
g32
asg240
S'1,2,3,4-tetrachloro-5-phenyl-benzene'
p2984
sg15
I36401
sg242
F1.0
sg243
F-3.48
sg18
(lp2985
S'aryl chloride'
p2986
aS'aromatic'
p2987
asg246
F-1.34
sg247
g248
ssS'mobley_4465023'
p2988
(dp2989
g3
S'C(=C\\Cl)\\Cl'
p2990
sg27
g28
sg29
F0.02
sg8
S' (Z)-1,2-dichloroethylene'
p2991
sg10
(lp2992
S'Renamed mobley_4465023 from (Z)-1,2-dichloroethylene to (Z)-1,2-dichloroethylene (the name from the 3D structure) since the former did not completely specify stereochemistry.\n'
p2993
asg33
S'(Z)-1,2-dichloroethylene'
p2994
sg15
I643833
sg16
F0.6
sg35
F-1.17
sg18
(lp2995
S'halogen derivative'
p2996
aS'alkene'
p2997
asg40
F0.31
sg41
g42
ssS'mobley_4364398'
p2998
(dp2999
g3
S'CI'
p3000
sg27
g28
sg29
F0.01
sg8
S' iodomethane'
p3001
sg10
(lp3002
g32
asg33
S'iodomethane'
p3003
sg15
I6328
sg16
F0.6
sg35
F-0.89
sg18
(lp3004
S'alkyl iodide'
p3005
asg40
F0.03
sg41
g42
ssS'mobley_6917738'
p3006
(dp3007
g3
S'COCCN'
p3008
sg27
g28
sg29
F0.03
sg8
S' 2-methoxyethanamine'
p3009
sg10
(lp3010
g32
asg33
S'2-methoxyethanamine'
p3011
sg15
I8018
sg16
F0.6
sg35
F-6.55
sg18
(lp3012
S'dialkyl ether'
p3013
aS'primary amine'
p3014
aS'primary aliphatic amine (alkylamine)'
p3015
asg40
F-5.62
sg41
g42
ssS'mobley_6102880'
p3016
(dp3017
g3
S'c1ccc(cc1)Oc2ccccc2'
p3018
sg296
g297
sg298
F0.02
sg8
S' diphenyl ether'
p3019
sg10
(lp3020
g32
asg301
S'diphenyl ether'
p3021
sg15
I7583
sg303
g304
(g308
S'\x14\xaeG\xe1z\x14\xe6?'
p3022
tp3023
Rp3024
sg314
g304
(g308
S'\xf6(\\\x8f\xc2\xf5\x06\xc0'
p3025
tp3026
Rp3027
sg18
(lp3028
S'diaryl ether'
p3029
aS'aromatic'
p3030
asg322
F-2.79
sg323
g324
ssS'mobley_8118832'
p3031
(dp3032
g3
S'C=CCO'
p3033
sg27
g28
sg29
F0.03
sg8
S' prop-2-en-1-ol'
p3034
sg10
(lp3035
g32
asg33
S'prop-2-en-1-ol'
p3036
sg15
I7858
sg16
F0.6
sg35
F-5.03
sg18
(lp3037
S'primary alcohol'
p3038
aS'alkene'
p3039
asg40
F-3.23
sg41
g42
ssS'mobley_5076071'
p3040
(dp3041
g3
S'CCN(CC)c1c(cc(c(c1[N+](=O)[O-])N)C(F)(F)F)[N+](=O)[O-]'
p3042
sg200
g201
sg202
F0.04
sg8
S' dinitramine'
p3043
sg10
(lp3044
g32
aS'Changed IUPAC name from dinitramine to 1-N,1-N-diethyl-2,6-dinitro-4-(trifluoromethyl)benzene-1,3-diamine for better handling/standardization.'
p3045
asg205
S'1-N,1-N-diethyl-2,6-dinitro-4-(trifluoromethyl)benzene-1,3-diamine'
p3046
sg15
I34468
sg207
F1.93
sg208
F-5.66
sg18
(lp3047
S'primary amine'
p3048
aS'primary aromatic amine'
p3049
aS'tertiary amine'
p3050
aS'tertiary aliphatic/aromatic amine (alkylarylamine)'
p3051
aS'halogen derivative'
p3052
aS'nitro'
p3053
aS'aromatic'
p3054
asg211
F-7.42
sg212
g213
ssS'mobley_20524'
p3055
(dp3056
g3
S'c1ccc(cc1)O'
p3057
sg5
g6
sg7
F0.1
sg8
S' phenol'
p3058
sg10
(lp3059
g12
asg13
S'phenol'
p3060
sg15
I996
sg16
F0.2
sg17
F-6.6
sg18
(lp3061
S'phenol or hydroxyhetarene'
p3062
aS'aromatic'
p3063
asg21
F-4.6
sg22
g23
ssS'mobley_7378987'
p3064
(dp3065
g3
S'Cn1cnc2c1c(=O)n(c(=O)n2C)C'
p3066
sg477
g478
sg479
F0.07
sg8
S' caffeine'
p3067
sg10
(lp3068
g32
asg482
S'caffeine'
p3069
sg15
I2519
sg484
F0.74
sg485
F-12.64
sg18
(lp3070
S'oxo(het)arene'
p3071
aS'aromatic'
p3072
aS'heterocyclic'
p3073
asg491
F-17.57
sg492
g493
ssS'mobley_7227357'
p3074
(dp3075
g3
S'CCC(CC)O'
p3076
sg27
g28
sg29
F0.02
sg8
S' pentan-3-ol'
p3077
sg10
(lp3078
g32
asg33
S'pentan-3-ol'
p3079
sg15
I11428
sg16
F0.6
sg35
F-4.35
sg18
(lp3080
S'secondary alcohol'
p3081
asg40
F-2.95
sg41
g42
ssS'mobley_9139060'
p3082
(dp3083
g3
S'CC1CCC(CC1)C'
p3084
sg27
g28
sg29
F0.02
sg8
S' 1,4-dimethylcyclohexane'
p3085
sg10
(lp3086
g32
asg33
S'1,4-dimethylcyclohexane'
p3087
sg15
I11523
sg16
F0.6
sg35
F2.11
sg18
(lp3088
g69
asg40
F2.05
sg41
g42
ssS'mobley_2996632'
p3089
(dp3090
g3
S'C(Cl)(Cl)Cl'
p3091
sg27
g28
sg29
F0.02
sg8
S' chloroform'
p3092
sg10
(lp3093
g32
asg33
S'chloroform'
p3094
sg15
I6212
sg16
F0.6
sg35
F-1.08
sg18
(lp3095
S'halogen derivative'
p3096
asg40
F0.32
sg41
g42
ssS'mobley_9073553'
p3097
(dp3098
g3
S'CSC'
p3099
sg27
g28
sg29
F0.02
sg8
S' methylsulfanylmethane'
p3100
sg10
(lp3101
g32
asg33
S'methylsulfanylmethane'
p3102
sg15
I1068
sg16
F0.6
sg35
F-1.61
sg18
(lp3103
S'thioether'
p3104
asg40
F0.26
sg41
g42
ssS'mobley_397645'
p3105
(dp3106
g3
S'CCOC(=O)c1ccccc1'
p3107
sg27
g28
sg29
F0.02
sg8
S' ethyl benzoate'
p3108
sg10
(lp3109
g32
asg33
S'ethyl benzoate'
p3110
sg15
I7165
sg16
F0.6
sg35
F-3.64
sg18
(lp3111
S'carboxylic acid ester'
p3112
aS'aromatic'
p3113
asg40
F-4.68
sg41
g42
ssS'mobley_2518989'
p3114
(dp3115
g3
S'CCOP(=S)(OCC)S[C@@H](CCl)N1C(=O)c2ccccc2C1=O'
p3116
sg200
g201
sg202
F0.06
sg8
S' dialifor'
p3117
sg10
(lp3118
S'Renamed mobley_2518989 from 2-(2-chloro-1-diethoxyphosphinothioylsulfanylethyl)isoindole-1,3-dione to 2-[(1S)-2-chloro-1-diethoxyphosphinothioylsulfanyl-ethyl]isoindoline-1,3-dione (the name from the 3D structure) since the former did not completely specify stereochemistry.\n'
p3119
asg205
S'dialifor'
p3120
sg15
I25146
sg207
F1.93
sg208
F-5.74
sg18
(lp3121
S'alkyl chloride'
p3122
aS'carboxylic acid imide, N-substituted'
p3123
aS'thiophosphoric acid ester'
p3124
aS'aromatic'
p3125
aS'heterocyclic'
p3126
asg211
F-15.1
sg212
g213
ssS'mobley_282648'
p3127
(dp3128
g3
S'c1ccc2ccccc2c1'
p3129
sg27
g28
sg29
F0.02
sg8
S' naphthalene'
p3130
sg10
(lp3131
g32
asg33
S'naphthalene'
p3132
sg15
I931
sg16
F0.6
sg35
F-2.4
sg18
(lp3133
S'aromatic'
p3134
asg40
F-3.34
sg41
g42
ssS'mobley_5857'
p3135
(dp3136
g3
S'c1ccc2c(c1)cccn2'
p3137
sg27
g28
sg29
F0.02
sg8
S' quinoline'
p3138
sg10
(lp3139
g32
asg33
S'quinoline'
p3140
sg15
I7047
sg16
F0.6
sg35
F-5.72
sg18
(lp3141
S'aromatic'
p3142
aS'heterocyclic'
p3143
asg40
F-4.87
sg41
g42
ssS'mobley_197466'
p3144
(dp3145
g3
S'CC(=O)C1CC1'
p3146
sg27
g28
sg29
F0.02
sg8
S' 1-cyclopropylethanone'
p3147
sg10
(lp3148
g32
asg33
S'1-cyclopropylethanone'
p3149
sg15
I13004
sg16
F0.6
sg35
F-4.61
sg18
(lp3150
S'ketone'
p3151
asg40
F-3.74
sg41
g42
ssS'mobley_718988'
p3152
(dp3153
g3
S'CCCCCCCN'
p3154
sg27
g28
sg29
F0.03
sg8
S' heptan-1-amine'
p3155
sg10
(lp3156
g32
asg33
S'heptan-1-amine'
p3157
sg15
I8127
sg16
F0.6
sg35
F-3.79
sg18
(lp3158
S'primary amine'
p3159
aS'primary aliphatic amine (alkylamine)'
p3160
asg40
F-2.72
sg41
g42
ssS'mobley_967099'
p3161
(dp3162
g3
S'CC(C)[N+](=O)[O-]'
p3163
sg27
g28
sg29
F0.02
sg8
S' 2-nitropropane'
p3164
sg10
(lp3165
g32
asg33
S'2-nitropropane'
p3166
sg15
I398
sg16
F0.6
sg35
F-3.13
sg18
(lp3167
S'nitro'
p3168
asg40
F-1.61
sg41
g42
ssS'mobley_1792062'
p3169
(dp3170
g3
S'C(CBr)Br'
p3171
sg27
g28
sg29
F0.02
sg8
S' 1,2-dibromoethane'
p3172
sg10
(lp3173
g32
asg33
S'1,2-dibromoethane'
p3174
sg15
I7839
sg16
F0.6
sg35
F-2.33
sg18
(lp3175
S'alkyl bromide'
p3176
asg40
F0.19
sg41
g42
ssS'mobley_7203421'
p3177
(dp3178
g3
S'CCCCCC(=O)N'
p3179
sg27
g28
sg29
F0.03
sg8
S' hexanamide'
p3180
sg10
(lp3181
g32
asg33
S'hexanamide'
p3182
sg15
I12332
sg16
F0.6
sg35
F-9.31
sg18
(lp3183
S'primary carboxylic acid amide'
p3184
asg40
F-8.14
sg41
g42
ssS'mobley_4678740'
p3185
(dp3186
g3
S'c1cc(cc(c1)C(F)(F)F)C(F)(F)F'
p3187
sg1390
g1391
sg1392
F0.04
sg8
S' m-bis(trifluoromethyl)benzene'
p3188
sg1394
(lp3189
g1396
ag32
aS'Changed IUPAC name from m-bis(trifluoromethyl)benzene to 1,3-bis(trifluoromethyl)benzene for better handling/standardization.'
p3190
ag186
asg1397
S'm-bis(trifluoromethyl)benzene'
p3191
sg15
I223106
sg16
F0.2
sg1399
F1.07
sg18
(lp3192
S'halogen derivative'
p3193
aS'aromatic'
p3194
asg1402
F-0.27
sg1403
g1391
ssS'mobley_7200804'
p3195
(dp3196
g3
S'c1ccc(c(c1)O)F'
p3197
sg27
g28
sg29
F0.03
sg8
S' 2-fluorophenol'
p3198
sg10
(lp3199
g32
asg33
S'2-fluorophenol'
p3200
sg15
I9707
sg16
F0.6
sg35
F-5.29
sg18
(lp3201
S'phenol or hydroxyhetarene'
p3202
aS'aryl fluoride'
p3203
aS'aromatic'
p3204
asg40
F-3.24
sg41
g42
ssS'mobley_5094777'
p3205
(dp3206
g3
S'c1ccc2c(c1)CCC2'
p3207
sg27
g28
sg29
F0.02
sg8
S' indane'
p3208
sg10
(lp3209
g32
asg33
S'indane'
p3210
sg15
I10326
sg16
F0.6
sg35
F-1.46
sg18
(lp3211
S'aromatic'
p3212
asg40
F-1.7
sg41
g42
ssS'mobley_4561957'
p3213
(dp3214
g3
S'CC(C)C(C)C'
p3215
sg27
g28
sg29
F0.02
sg8
S' 2,3-dimethylbutane'
p3216
sg10
(lp3217
g32
asg33
S'2,3-dimethylbutane'
p3218
sg15
I6589
sg16
F0.6
sg35
F2.34
sg18
(lp3219
g69
asg40
F2.69
sg41
g42
ssS'mobley_5852491'
p3220
(dp3221
g3
S'CC1CCCC1'
p3222
sg27
g28
sg29
F0.02
sg8
S' methylcyclopentane'
p3223
sg10
(lp3224
g32
asg33
S'methylcyclopentane'
p3225
sg15
I7296
sg16
F0.6
sg35
F1.59
sg18
(lp3226
g69
asg40
F2.12
sg41
g42
ssS'mobley_1987439'
p3227
(dp3228
g3
S'Cc1cc(cc(c1)C)C'
p3229
sg27
g28
sg29
F0.02
sg8
S' mesitylene'
p3230
sg10
(lp3231
g32
asg33
S'mesitylene'
p3232
sg15
I7947
sg16
F0.6
sg35
F-0.9
sg18
(lp3233
S'aromatic'
p3234
asg40
F0.04
sg41
g42
ssS'mobley_8492526'
p3235
(dp3236
g3
S'CCCCC=O'
p3237
sg27
g28
sg29
F0.02
sg8
S' pentanal'
p3238
sg10
(lp3239
g32
asg33
S'pentanal'
p3240
sg15
I8063
sg16
F0.6
sg35
F-3.03
sg18
(lp3241
S'aldehyde'
p3242
asg40
F-2.96
sg41
g42
ssS'mobley_4494568'
p3243
(dp3244
g3
S'Cc1ccc(cc1)Br'
p3245
sg27
g28
sg29
F0.02
sg8
S' 1-bromo-4-methyl-benzene'
p3246
sg10
(lp3247
g32
asg33
S'1-bromo-4-methyl-benzene'
p3248
sg15
I7805
sg16
F0.6
sg35
F-1.39
sg18
(lp3249
S'aryl bromide'
p3250
aS'aromatic'
p3251
asg40
F0.04
sg41
g42
ssS'mobley_7869158'
p3252
(dp3253
g3
S'CC[C@H](C)O[N+](=O)[O-]'
p3254
sg200
g201
sg202
F0.02
sg8
S' [(2S)-butan-2-yl] nitrate'
p3255
sg10
(lp3256
g32
aS'Changed IUPAC name from 2-butyl nitrate to [(2S)-butan-2-yl] nitrate for better handling/standardization.'
p3257
asg205
S'[(2S)-butan-2-yl] nitrate'
p3258
sg15
I79123
sg207
F0.1
sg208
F-1.82
sg18
(lp3259
S'nitrate'
p3260
asg211
F-1.68
sg212
g213
ssS'mobley_7893124'
p3261
(dp3262
g3
S'CC(C)(C)c1ccccc1'
p3263
sg27
g28
sg29
F0.03
sg8
S' tert-butylbenzene'
p3264
sg10
(lp3265
g32
asg33
S'tert-butylbenzene'
p3266
sg15
I7366
sg16
F0.6
sg35
F-0.44
sg18
(lp3267
S'aromatic'
p3268
asg40
F-0.42
sg41
g42
ssS'mobley_5880265'
p3269
(dp3270
g3
S'CCCCOCCO'
p3271
sg27
g28
sg29
F0.03
sg8
S' 2-butoxyethanol'
p3272
sg10
(lp3273
g32
asg33
S'2-butoxyethanol'
p3274
sg15
I8133
sg16
F0.6
sg35
F-6.25
sg18
(lp3275
S'primary alcohol'
p3276
aS'dialkyl ether'
p3277
asg40
F-4.07
sg41
g42
ssS'mobley_8691603'
p3278
(dp3279
g3
S'Cc1cccc(c1)O'
p3280
sg27
g28
sg29
F0.03
sg8
S' m-cresol'
p3281
sg10
(lp3282
g32
asg33
S'm-cresol'
p3283
sg15
I342
sg16
F0.6
sg35
F-5.49
sg18
(lp3284
S'phenol or hydroxyhetarene'
p3285
aS'aromatic'
p3286
asg40
F-5.28
sg41
g42
ssS'mobley_2693089'
p3287
(dp3288
g3
S'CC(C)Cc1cnccn1'
p3289
sg27
g28
sg29
F0.03
sg8
S' 2-isobutylpyrazine'
p3290
sg10
(lp3291
g32
asg33
S'2-isobutylpyrazine'
p3292
sg15
I34591
sg16
F0.6
sg35
F-5.04
sg18
(lp3293
S'aromatic'
p3294
aS'heterocyclic'
p3295
asg40
F-5.1
sg41
g42
ssS'mobley_8525830'
p3296
(dp3297
g3
S'CCCCCI'
p3298
sg27
g28
sg29
F0.02
sg8
S' 1-iodopentane'
p3299
sg10
(lp3300
g32
asg33
S'1-iodopentane'
p3301
sg15
I12335
sg16
F0.6
sg35
F-0.14
sg18
(lp3302
S'alkyl iodide'
p3303
asg40
F0.66
sg41
g42
ssS'mobley_6232400'
p3304
(dp3305
g3
S'c1cc(cnc1)C=O'
p3306
sg27
g28
sg29
F0.03
sg8
S' pyridine-3-carbaldehyde'
p3307
sg10
(lp3308
g32
asg33
S'pyridine-3-carbaldehyde'
p3309
sg15
I10371
sg16
F0.6
sg35
F-7.1
sg18
(lp3310
S'aldehyde'
p3311
aS'aromatic'
p3312
aS'heterocyclic'
p3313
asg40
F-7.64
sg41
g42
ssS'mobley_4506634'
p3314
(dp3315
g3
S'[C@@H](C(F)(F)F)(Cl)Br'
p3316
sg27
g28
sg29
F0.02
sg8
S' 2-bromo-2-chloro-1,1,1-trifluoro-ethane'
p3317
sg10
(lp3318
S'Renamed mobley_4506634 from 2-bromo-2-chloro-1,1,1-trifluoro-ethane to (2R)-2-bromo-2-chloro-1,1,1-trifluoro-ethane (the name from the 3D structure) since the former did not completely specify stereochemistry.\n'
p3319
asg33
S'2-bromo-2-chloro-1,1,1-trifluoro-ethane'
p3320
sg15
I445258
sg16
F0.6
sg35
F-0.11
sg18
(lp3321
S'alkyl chloride'
p3322
aS'alkyl bromide'
p3323
asg40
F0.7
sg41
g42
ssS'mobley_6430250'
p3324
(dp3325
g3
S'CCCc1ccccc1'
p3326
sg27
g28
sg29
F0.02
sg8
S' propylbenzene'
p3327
sg10
(lp3328
g32
asg33
S'propylbenzene'
p3329
sg15
I7668
sg16
F0.6
sg35
F-0.53
sg18
(lp3330
S'aromatic'
p3331
asg40
F0.01
sg41
g42
ssS'mobley_8685905'
p3332
(dp3333
g3
S'[C@@H](C(F)(F)F)(F)Br'
p3334
sg27
g28
sg29
F0.02
sg8
S' teflurane'
p3335
sg10
(lp3336
S'Renamed mobley_8685905 from 2-bromo-1,1,1,2-tetrafluoro-ethane to (2R)-2-bromo-1,1,1,2-tetrafluoro-ethane (the name from the 3D structure) since the former did not completely specify stereochemistry.\n'
p3337
asg33
S'2-bromo-1,1,1,2-tetrafluoro-ethane'
p3338
sg15
I31300
sg16
F0.6
sg35
F0.5
sg18
(lp3339
S'alkyl fluoride'
p3340
aS'alkyl bromide'
p3341
asg40
F0.46
sg41
g42
ssS'mobley_2451097'
p3342
(dp3343
g3
S'c1ccc(cc1)C#N'
p3344
sg27
S'10.1039/P29940001777'
p3345
sg29
F0.02
sg8
S' benzonitrile'
p3346
sg10
(lp3347
g32
asg33
S'benzonitrile'
p3348
sg15
I7505
sg16
F0.6
sg35
F-4.1
sg18
(lp3349
S'carbonitrile'
p3350
aS'aromatic'
p3351
asg40
F-2.56
sg41
g42
ssS'mobley_7943327'
p3352
(dp3353
g3
S'CCC(=O)OCC'
p3354
sg27
g28
sg29
F0.02
sg8
S' ethyl propanoate'
p3355
sg10
(lp3356
g32
asg33
S'ethyl propanoate'
p3357
sg15
I7749
sg16
F0.6
sg35
F-2.68
sg18
(lp3358
S'carboxylic acid ester'
p3359
asg40
F-3.39
sg41
g42
ssS'mobley_337666'
p3360
(dp3361
g3
S'c1c(c(=O)[nH]c(=O)[nH]1)F'
p3362
sg477
g478
sg479
F0.06
sg8
S' 5-fluorouracil'
p3363
sg10
(lp3364
g32
aS'Changed IUPAC name from 5-flurouracil to 5-fluorouracil for better handling/standardization.'
p3365
asg482
S'5-fluorouracil'
p3366
sg15
I3385
sg484
F0.88
sg485
F-16.92
sg18
(lp3367
S'aryl fluoride'
p3368
aS'oxo(het)arene'
p3369
aS'aromatic'
p3370
aS'heterocyclic'
p3371
asg491
F-16.41
sg492
g493
ssS'mobley_1893937'
p3372
(dp3373
g3
S'CCCCCCCl'
p3374
sg27
g28
sg29
F0.03
sg8
S' 1-chlorohexane'
p3375
sg10
(lp3376
g32
asg33
S'1-chlorohexane'
p3377
sg15
I10992
sg16
F0.6
sg35
F0.0
sg18
(lp3378
S'alkyl chloride'
p3379
asg40
F1.23
sg41
g42
ssS'mobley_1827204'
p3380
(dp3381
g3
S'CCCCCC=O'
p3382
sg27
g28
sg29
F0.02
sg8
S' hexanal'
p3383
sg10
(lp3384
g32
asg33
S'hexanal'
p3385
sg15
I6184
sg16
F0.6
sg35
F-2.81
sg18
(lp3386
S'aldehyde'
p3387
asg40
F-2.96
sg41
g42
ssS'mobley_2913224'
p3388
(dp3389
g3
S'CC(=O)Oc1ccccc1C(=O)O'
p3390
sg477
g478
sg479
F0.07
sg8
S' acetylsalicylic acid'
p3391
sg10
(lp3392
g32
asg482
S'acetylsalicylic acid'
p3393
sg15
I2244
sg484
F0.18
sg485
F-9.94
sg18
(lp3394
S'carboxylic acid'
p3395
aS'carboxylic acid ester'
p3396
aS'aromatic'
p3397
asg491
F-11.25
sg492
g493
ssS'mobley_5561855'
p3398
(dp3399
g3
S'c1cc(c(c(c1)Cl)c2c(cc(cc2Cl)Cl)Cl)Cl'
p3400
sg235
g236
sg237
F0.04
sg8
S" 2,2',4,6,6'-pentachlorobiphenyl"
p3401
sg10
(lp3402
g32
asg240
S'1,3,5-trichloro-2-(2,6-dichlorophenyl)benzene'
p3403
sg15
I91662
sg242
F0.1
sg243
F-1.96
sg18
(lp3404
S'aryl chloride'
p3405
aS'aromatic'
p3406
asg246
F-0.54
sg247
g248
ssS'mobley_8723116'
p3407
(dp3408
g3
S'c1cc(ccc1N)Cl'
p3409
sg27
g28
sg29
F0.02
sg8
S' 4-chloroaniline'
p3410
sg10
(lp3411
g32
asg33
S'4-chloroaniline'
p3412
sg15
I7812
sg16
F0.6
sg35
F-5.9
sg18
(lp3413
S'primary amine'
p3414
aS'primary aromatic amine'
p3415
aS'aryl chloride'
p3416
aS'aromatic'
p3417
asg40
F-5.28
sg41
g42
ssS'mobley_2517158'
p3418
(dp3419
g3
S'CCCCCCCBr'
p3420
sg27
g28
sg29
F0.03
sg8
S' 1-bromoheptane'
p3421
sg10
(lp3422
g32
asg33
S'1-bromoheptane'
p3423
sg15
I12369
sg16
F0.6
sg35
F0.34
sg18
(lp3424
S'alkyl bromide'
p3425
asg40
F1.66
sg41
g42
ssS'mobley_6250025'
p3426
(dp3427
g3
S'CCCCCCI'
p3428
sg27
g28
sg29
F0.02
sg8
S' 1-iodohexane'
p3429
sg10
(lp3430
g32
asg33
S'1-iodohexane'
p3431
sg15
I12527
sg16
F0.6
sg35
F0.08
sg18
(lp3432
S'alkyl iodide'
p3433
asg40
F0.66
sg41
g42
ssS'mobley_4687447'
p3434
(dp3435
g3
S'CCCOCCO'
p3436
sg27
g28
sg29
F0.03
sg8
S' 2-propoxyethanol'
p3437
sg10
(lp3438
g32
asg33
S'2-propoxyethanol'
p3439
sg15
I17756
sg16
F0.6
sg35
F-6.4
sg18
(lp3440
S'primary alcohol'
p3441
aS'dialkyl ether'
p3442
asg40
F-4.21
sg41
g42
ssS'mobley_3325209'
p3443
(dp3444
g3
S'COC(c1ccccc1)(OC)OC'
p3445
sg27
g46
sg29
F0.04
sg8
S' trimethoxymethylbenzene'
p3446
sg10
(lp3447
g32
asg33
S'trimethoxymethylbenzene'
p3448
sg15
I69720
sg16
F0.6
sg35
F-4.04
sg18
(lp3449
S'orthocarboxylic acid derivative'
p3450
aS'orthoester'
p3451
aS'aromatic'
p3452
asg40
F-5.83
sg41
g42
ssS'mobley_1875719'
p3453
(dp3454
g3
S'CCC(=O)CC'
p3455
sg5
g6
sg7
F0.1
sg8
S' pentan-3-one'
p3456
sg10
(lp3457
g12
asg13
S'pentan-3-one'
p3458
sg15
I7288
sg16
F0.2
sg17
F-3.41
sg18
(lp3459
S'ketone'
p3460
asg21
F-2.7
sg22
g23
ssS'mobley_9112978'
p3461
(dp3462
g3
S'CC/C=C\\C'
p3463
sg27
g28
sg29
F0.02
sg8
S' pent-2-ene'
p3464
sg10
(lp3465
S'Renamed mobley_9112978 from pent-2-ene to (Z)-pent-2-ene (the name from the 3D structure) since the former did not completely specify stereochemistry.\n'
p3466
asg33
S'pent-2-ene'
p3467
sg15
I21934815
sg16
F0.6
sg35
F1.31
sg18
(lp3468
S'alkene'
p3469
asg40
F2.55
sg41
g42
ssS'mobley_5692472'
p3470
(dp3471
g3
S'CNC'
p3472
sg27
g28
sg29
F0.02
sg8
S' N-methylmethanamine'
p3473
sg10
(lp3474
g32
asg33
S'N-methylmethanamine'
p3475
sg15
I674
sg16
F0.6
sg35
F-4.29
sg18
(lp3476
S'secondary amine'
p3477
aS'secondary aliphatic amine (dialkylamine)'
p3478
asg40
F-3.11
sg41
g42
ssS'mobley_2972345'
p3479
(dp3480
g3
S'c1ccc2c(c1)Cc3ccccc3C2'
p3481
sg296
g297
sg298
F0.022
sg8
S' 9,10-dihydroanthracene'
p3482
sg10
(lp3483
g32
asg301
S'9,10-dihydroanthracene'
p3484
sg15
I11940
sg303
g304
(g308
S'\x9a\x99\x99\x99\x99\x99\xb9?'
p3485
tp3486
Rp3487
sg314
g304
(g308
S'=\n\xd7\xa3p=\x0e\xc0'
p3488
tp3489
Rp3490
sg18
(lp3491
S'aromatic'
p3492
asg322
F-4.38
sg323
g324
ssS'mobley_3976574'
p3493
(dp3494
g3
S'c1cc2c(cc1Cl)Oc3c(c(c(c(c3Cl)Cl)Cl)Cl)O2'
p3495
sg235
g236
sg237
F0.03
sg8
S' 1,2,3,4,7-pentachlorodibenzo-p-dioxin'
p3496
sg10
(lp3497
g32
asg240
S'1,2,3,4,7-pentachlorodibenzo-p-dioxin'
p3498
sg15
I38254
sg242
F1.0
sg243
F-4.15
sg18
(lp3499
S'diaryl ether'
p3500
aS'aryl chloride'
p3501
aS'aromatic'
p3502
aS'heterocyclic'
p3503
asg246
F-2.17
sg247
g248
ssS'mobley_8966374'
p3504
(dp3505
g3
S'Cc1cnccn1'
p3506
sg27
g28
sg29
F0.03
sg8
S' 2-methylpyrazine'
p3507
sg10
(lp3508
g32
asg33
S'2-methylpyrazine'
p3509
sg15
I7976
sg16
F0.6
sg35
F-5.51
sg18
(lp3510
S'aromatic'
p3511
aS'heterocyclic'
p3512
asg40
F-6.1
sg41
g42
ssS'mobley_2328633'
p3513
(dp3514
g3
S'CCCCCC1CCCC1'
p3515
sg27
g28
sg29
F0.03
sg8
S' pentylcyclopentane'
p3516
sg10
(lp3517
g32
asg33
S'pentylcyclopentane'
p3518
sg15
I19540
sg16
F0.6
sg35
F2.55
sg18
(lp3519
g69
asg40
F2.39
sg41
g42
ssS'mobley_7298388'
p3520
(dp3521
g3
S'Cc1cccc(c1)[N+](=O)[O-]'
p3522
sg27
g28
sg29
F0.02
sg8
S' 1-methyl-3-nitro-benzene'
p3523
sg10
(lp3524
g32
asg33
S'1-methyl-3-nitro-benzene'
p3525
sg15
I7422
sg16
F0.6
sg35
F-3.45
sg18
(lp3526
S'nitro'
p3527
aS'aromatic'
p3528
asg40
F-3.16
sg41
g42
ssS'mobley_3269819'
p3529
(dp3530
g3
S'c1c(cc(c(c1Cl)Cl)Cl)c2cc(c(c(c2Cl)Cl)Cl)Cl'
p3531
sg235
g236
sg237
F0.04
sg8
S" 2,3,4,5,3',4',5'-heptachlorobiphenyl"
p3532
sg10
(lp3533
g32
asg240
S'1,2,3,4-tetrachloro-5-(3,4,5-trichlorophenyl)benzene'
p3534
sg15
I38306
sg242
F0.1
sg243
F-3.17
sg18
(lp3535
S'aryl chloride'
p3536
aS'aromatic'
p3537
asg246
F-0.77
sg247
g248
ssS'mobley_3802803'
p3538
(dp3539
g3
S'CCCCCCON([O-])[O-]'
p3540
sg296
g297
sg298
F0.022
sg8
S' hexyl nitrate'
p3541
sg10
(lp3542
g32
asg301
S'hexyl nitrate'
p3543
sg15
I30209
sg303
g304
(g308
S'\x9a\x99\x99\x99\x99\x99\xb9?'
p3544
tp3545
Rp3546
sg314
g304
(g308
S'\x8f\xc2\xf5(\\\x8f\xfa\xbf'
p3547
tp3548
Rp3549
sg18
(lp3550
S'anion'
p3551
asg322
F-1.63
sg323
g324
ssS'mobley_7497999'
p3552
(dp3553
g3
S'CC(=O)c1ccccc1'
p3554
sg27
g28
sg29
F0.03
sg8
S' 1-phenylethanone'
p3555
sg10
(lp3556
g32
asg33
S'1-phenylethanone'
p3557
sg15
I7410
sg16
F0.6
sg35
F-4.58
sg18
(lp3558
S'ketone'
p3559
aS'aromatic'
p3560
asg40
F-5.07
sg41
g42
ssS'mobley_8208692'
p3561
(dp3562
g3
S'c1c(c(c(c(c1Cl)Cl)Cl)Cl)c2c(cc(c(c2Cl)Cl)Cl)Cl'
p3563
sg235
g236
sg237
F0.05
sg8
S" 2,2',3,3',4,4',5,6'-octachloro-biphenyl"
p3564
sg10
(lp3565
g32
asg240
S'1,2,3,4-tetrachloro-5-(2,3,4,6-tetrachlorophenyl)benzene'
p3566
sg15
I39253
sg242
F0.25
sg243
F-4.61
sg18
(lp3567
S'aryl chloride'
p3568
aS'aromatic'
p3569
asg246
F0.0
sg247
g248
ssS'mobley_1199854'
p3570
(dp3571
g3
S'CCCI'
p3572
sg27
g28
sg29
F0.02
sg8
S' 1-iodopropane'
p3573
sg10
(lp3574
g32
asg33
S'1-iodopropane'
p3575
sg15
I33643
sg16
F0.6
sg35
F-0.53
sg18
(lp3576
S'alkyl iodide'
p3577
asg40
F0.0
sg41
g42
ssS'mobley_3867265'
p3578
(dp3579
g3
S'CC(=O)C'
p3580
sg27
g28
sg29
F0.02
sg8
S' acetone'
p3581
sg10
(lp3582
g32
asg33
S'acetone'
p3583
sg15
I180
sg16
F0.6
sg35
F-3.8
sg18
(lp3584
S'ketone'
p3585
asg40
F-3.36
sg41
g42
ssS'mobley_5072416'
p3586
(dp3587
g3
S'COc1ccccc1N'
p3588
sg27
g28
sg29
F0.03
sg8
S' 2-methoxyaniline'
p3589
sg10
(lp3590
g32
asg33
S'2-methoxyaniline'
p3591
sg15
I7000
sg16
F0.6
sg35
F-6.12
sg18
(lp3592
S'alkyl aryl ether'
p3593
aS'primary amine'
p3594
aS'primary aromatic amine'
p3595
aS'aromatic'
p3596
asg40
F-6.53
sg41
g42
ssS'mobley_2489709'
p3597
(dp3598
g3
S'c1ccc(c(c1)Cl)Cl'
p3599
sg27
g28
sg29
F0.02
sg8
S' 1,2-dichlorobenzene'
p3600
sg10
(lp3601
g32
asg33
S'1,2-dichlorobenzene'
p3602
sg15
I7239
sg16
F0.6
sg35
F-1.36
sg18
(lp3603
S'aryl chloride'
p3604
aS'aromatic'
p3605
asg40
F-0.64
sg41
g42
ssS'mobley_2481002'
p3606
(dp3607
g3
S'C([N+](=O)[O-])(Cl)(Cl)Cl'
p3608
sg200
g201
sg202
F0.02
sg8
S' trichloro(nitro)methane'
p3609
sg10
(lp3610
g32
aS'Changed IUPAC name from chloropicrin to trichloro(nitro)methane for better handling/standardization.'
p3611
asg205
S'trichloro(nitro)methane'
p3612
sg15
I6423
sg207
F0.1
sg208
F-1.45
sg18
(lp3613
S'halogen derivative'
p3614
asg211
F-0.26
sg212
g213
ssS'mobley_1034539'
p3615
(dp3616
g3
S'c1cc(c(cc1c2cc(c(c(c2Cl)Cl)Cl)Cl)Cl)Cl'
p3617
sg235
g236
sg237
F0.04
sg8
S" 2,3,3',4,4',5-hexachlorobiphenyl"
p3618
sg10
(lp3619
g32
asg240
S'1,2,3,4-tetrachloro-5-(3,4-dichlorophenyl)benzene'
p3620
sg15
I38019
sg242
F0.1
sg243
F-3.04
sg18
(lp3621
S'aryl chloride'
p3622
aS'aromatic'
p3623
asg246
F-1.0
sg247
g248
ssS'mobley_9460824'
p3624
(dp3625
g3
S'CCOP(=S)(OCC)SCSCC'
p3626
sg200
g201
sg202
F0.04
sg8
S' phorate'
p3627
sg10
(lp3628
g32
aS'Changed IUPAC name from phorate to diethoxy-(ethylsulfanylmethylsulfanyl)-thioxo-$l^{5}-phosphane for better handling/standardization.'
p3629
asg205
S'diethoxy-(ethylsulfanylmethylsulfanyl)-thioxo-$l^{5}-phosphane'
p3630
sg15
I4790
sg207
F0.1
sg208
F-4.37
sg18
(lp3631
S'thiophosphoric acid ester'
p3632
asg211
F-5.2
sg212
g213
ssS'mobley_8882696'
p3633
(dp3634
g3
S'C1CCOC1'
p3635
sg27
g28
sg29
F0.02
sg8
S' tetrahydrofuran'
p3636
sg10
(lp3637
g32
asg33
S'tetrahydrofuran'
p3638
sg15
I8028
sg16
F0.6
sg35
F-3.47
sg18
(lp3639
S'dialkyl ether'
p3640
aS'heterocyclic'
p3641
asg40
F-2.07
sg41
g42
ssS'mobley_8916409'
p3642
(dp3643
g3
S'CCOC(=O)C[C@H](C(=O)OCC)SP(=S)(OC)OC'
p3644
sg200
g201
sg202
F0.05
sg8
S' butanedioic acid'
p3645
sg10
(lp3646
g32
aS'Changed IUPAC name from malathion to diethyl (2R)-2-dimethoxyphosphinothioylsulfanylbutanedioate for better handling/standardization.'
p3647
asg205
S'diethyl (2R)-2-dimethoxyphosphinothioylsulfanylbutanedioate'
p3648
sg15
I12358970
sg207
F0.21
sg208
F-8.15
sg18
(lp3649
S'carboxylic acid ester'
p3650
aS'thiophosphoric acid ester'
p3651
asg211
F-12.99
sg212
g213
ssS'mobley_1770205'
p3652
(dp3653
g3
S'COP(=S)(OC)SCn1c(=O)c2ccccc2nn1'
p3654
sg200
g201
sg202
F0.04
sg8
S' azinphos-methyl'
p3655
sg10
(lp3656
g32
aS'Changed IUPAC name from azinphosmethyl to 3-(dimethoxyphosphinothioylsulfanylmethyl)-1,2,3-benzotriazin-4-one for better handling/standardization.'
p3657
asg205
S'3-(dimethoxyphosphinothioylsulfanylmethyl)-1,2,3-benzotriazin-4-one'
p3658
sg15
I2268
sg207
F1.37
sg208
F-10.03
sg18
(lp3659
S'oxo(het)arene'
p3660
aS'thiophosphoric acid ester'
p3661
aS'aromatic'
p3662
aS'heterocyclic'
p3663
asg211
F-15.54
sg212
g213
ssS'mobley_3982371'
p3664
(dp3665
g3
S'CC(=O)OC'
p3666
sg27
g28
sg29
F0.02
sg8
S' methyl acetate'
p3667
sg10
(lp3668
g32
asg33
S'methyl acetate'
p3669
sg15
I6584
sg16
F0.6
sg35
F-3.13
sg18
(lp3670
S'carboxylic acid ester'
p3671
asg40
F-3.73
sg41
g42
ssS'mobley_2659552'
p3672
(dp3673
g3
S'Cc1ccc(cc1)C(=O)N(C)C'
p3674
sg1390
g1391
sg1392
F0.05
sg8
S' N,N-4-trimethylbenzamide'
p3675
sg1394
(lp3676
g1396
ag32
ag186
asg1397
S'N,N-4-trimethylbenzamide'
p3677
sg15
I84179
sg16
F0.2
sg1399
F-9.76
sg18
(lp3678
S'tertiary carboxylic acid amide'
p3679
aS'aromatic'
p3680
asg1402
F-8.76
sg1403
g1391
ssS'mobley_2422586'
p3681
(dp3682
g3
S'CCCOC'
p3683
sg27
g28
sg29
F0.02
sg8
S' 1-methoxypropane'
p3684
sg10
(lp3685
g32
asg33
S'1-methoxypropane'
p3686
sg15
I11182
sg16
F0.6
sg35
F-1.66
sg18
(lp3687
S'dialkyl ether'
p3688
asg40
F-0.41
sg41
g42
ssS'mobley_2725215'
p3689
(dp3690
g3
S'CCCN(CCC)c1c(cc(cc1[N+](=O)[O-])S(=O)(=O)C)[N+](=O)[O-]'
p3691
sg200
g201
sg202
F0.05
sg8
S' nitralin'
p3692
sg10
(lp3693
g32
asg205
S'nitralin'
p3694
sg15
I20848
sg207
F1.93
sg208
F-7.98
sg18
(lp3695
S'tertiary amine'
p3696
aS'tertiary aliphatic/aromatic amine (alkylarylamine)'
p3697
aS'nitro'
p3698
aS'sulfone'
p3699
aS'aromatic'
p3700
asg211
F-11.56
sg212
g213
ssS'mobley_9571888'
p3701
(dp3702
g3
S'C1[C@@H]2[C@H](COS(=O)O1)[C@@]3(C(=C([C@]2(C3(Cl)Cl)Cl)Cl)Cl)Cl'
p3703
sg200
g201
sg202
F0.04
sg8
S' endosulfan alpha'
p3704
sg10
(lp3705
g32
asg205
S'endosulfan alpha'
p3706
sg15
I12309460
sg207
F0.26
sg208
F-4.23
sg18
(lp3707
S'alkyl chloride'
p3708
aS'alkene'
p3709
aS'heterocyclic'
p3710
asg211
F-9.96
sg212
g213
ssS'mobley_3777264'
p3711
(dp3712
g3
S'c1cc(cc(c1)[N+](=O)[O-])N'
p3713
sg27
g28
sg29
F0.03
sg8
S' 3-nitroaniline'
p3714
sg10
(lp3715
g32
asg33
S'3-nitroaniline'
p3716
sg15
I7423
sg16
F0.6
sg35
F-8.84
sg18
(lp3717
S'primary amine'
p3718
aS'primary aromatic amine'
p3719
aS'nitro'
p3720
aS'aromatic'
p3721
asg40
F-8.24
sg41
g42
ssS'mobley_6006813'
p3722
(dp3723
g3
S'CCCC[N+](=O)[O-]'
p3724
sg27
g28
sg29
F0.02
sg8
S' 1-nitrobutane'
p3725
sg10
(lp3726
g32
asg33
S'1-nitrobutane'
p3727
sg15
I12302
sg16
F0.6
sg35
F-3.09
sg18
(lp3728
S'nitro'
p3729
asg40
F-1.51
sg41
g42
ssS'mobley_1636752'
p3730
(dp3731
g3
S'CO'
p3732
sg27
g28
sg29
F0.01
sg8
S' methanol'
p3733
sg10
(lp3734
g32
asg33
S'methanol'
p3735
sg15
I887
sg16
F0.6
sg35
F-5.1
sg18
(lp3736
S'primary alcohol'
p3737
asg40
F-3.48
sg41
g42
ssS'mobley_3525176'
p3738
(dp3739
g3
S'CCCCCc1ccccc1'
p3740
sg27
g28
sg29
F0.03
sg8
S' pentylbenzene'
p3741
sg10
(lp3742
g32
asg33
S'pentylbenzene'
p3743
sg15
I10864
sg16
F0.6
sg35
F-0.23
sg18
(lp3744
S'aromatic'
p3745
asg40
F0.05
sg41
g42
ssS'mobley_1905088'
p3746
(dp3747
g3
S'c1ccc(cc1)CBr'
p3748
sg1390
g1391
sg1392
F0.1
sg8
S' benzyl bromide'
p3749
sg1394
(lp3750
g1396
ag32
ag186
asg1397
S'benzyl bromide'
p3751
sg15
I7498
sg16
F0.2
sg1399
F-2.38
sg18
(lp3752
S'alkyl bromide'
p3753
aS'aromatic'
p3754
asg1402
F-1.11
sg1403
g1391
ssS'mobley_637522'
p3755
(dp3756
g3
S'c1ccc2cc3ccccc3cc2c1'
p3757
sg27
g28
sg29
F0.03
sg8
S' anthracene'
p3758
sg10
(lp3759
g32
asg33
S'anthracene'
p3760
sg15
I8418
sg16
F0.6
sg35
F-3.95
sg18
(lp3761
S'aromatic'
p3762
asg40
F-5.39
sg41
g42
ssS'mobley_1615431'
p3763
(dp3764
g3
S'CC(C)OC(C)C'
p3765
sg27
g28
sg29
F0.02
sg8
S' 2-isopropoxypropane'
p3766
sg10
(lp3767
g32
asg33
S'2-isopropoxypropane'
p3768
sg15
I7914
sg16
F0.6
sg35
F-0.53
sg18
(lp3769
S'dialkyl ether'
p3770
asg40
F-0.11
sg41
g42
ssS'mobley_9281946'
p3771
(dp3772
g3
S'CCOP(=S)(OCC)Oc1ccc(cc1)[N+](=O)[O-]'
p3773
sg200
g201
sg202
F0.04
sg8
S' parathion'
p3774
sg10
(lp3775
g32
aS'Changed IUPAC name from parathion to diethoxy-(4-nitrophenoxy)-thioxo-$l^{5}-phosphane for better handling/standardization.'
p3776
asg205
S'diethoxy-(4-nitrophenoxy)-thioxo-$l^{5}-phosphane'
p3777
sg15
I991
sg207
F0.1
sg208
F-6.74
sg18
(lp3778
S'nitro'
p3779
aS'thiophosphoric acid ester'
p3780
aS'aromatic'
p3781
asg211
F-9.41
sg212
g213
ssS'mobley_1469079'
p3782
(dp3783
g3
S'c1ccc2c(c1)Oc3cc(c(cc3O2)Cl)Cl'
p3784
sg235
g236
sg237
F0.02
sg8
S' 2,3-dichlorodibenzo-p-dioxin'
p3785
sg10
(lp3786
g32
asg240
S'2,3-dichlorodibenzo-p-dioxin'
p3787
sg15
I34586
sg242
F1.0
sg243
F-3.56
sg18
(lp3788
S'diaryl ether'
p3789
aS'aryl chloride'
p3790
aS'aromatic'
p3791
aS'heterocyclic'
p3792
asg246
F-3.51
sg247
g248
ssS'mobley_4603202'
p3793
(dp3794
g3
S'C(CCl)OCCCl'
p3795
sg1390
g1391
sg1392
F0.01
sg8
S" 2,2'-dichlorodiethyl ether"
p3796
sg1394
(lp3797
g1396
ag32
aS'Changed IUPAC name from bis-2-chloroethyl ether to 1-chloro-2-(2-chloroethoxy)ethane for better handling/standardization.'
p3798
ag186
asg1397
S'1-chloro-2-(2-chloroethoxy)ethane'
p3799
sg15
I8115
sg16
F0.2
sg1399
F-4.23
sg18
(lp3800
S'dialkyl ether'
p3801
aS'alkyl chloride'
p3802
asg1402
F-2.07
sg1403
g1391
ssS'mobley_2341732'
p3803
(dp3804
g3
S'CCCCC(=O)OC'
p3805
sg27
g28
sg29
F0.02
sg8
S' methyl pentanoate'
p3806
sg10
(lp3807
g32
asg33
S'methyl pentanoate'
p3808
sg15
I12206
sg16
F0.6
sg35
F-2.56
sg18
(lp3809
S'carboxylic acid ester'
p3810
asg40
F-3.51
sg41
g42
ssS'mobley_6981465'
p3811
(dp3812
g3
S'CC(C)OC(=O)C'
p3813
sg27
g28
sg29
F0.03
sg8
S' isopropyl acetate'
p3814
sg10
(lp3815
g32
asg33
S'isopropyl acetate'
p3816
sg15
I7915
sg16
F0.6
sg35
F-2.64
sg18
(lp3817
S'carboxylic acid ester'
p3818
asg40
F-2.92
sg41
g42
ssS'mobley_1527293'
p3819
(dp3820
g3
S'C[C@@H](c1ccc(c(c1)F)c2ccccc2)C(=O)O'
p3821
sg477
g478
sg479
F0.07
sg8
S' flurbiprofen'
p3822
sg10
(lp3823
S'Renamed mobley_1527293 from flurbiprofen to (2S)-2-(3-fluoro-4-phenyl-phenyl)propanoic acid (the name from the 3D structure) since the former did not completely specify stereochemistry.\n'
p3824
asg482
S'flurbiprofen'
p3825
sg15
I3394
sg484
F0.16
sg485
F-8.42
sg18
(lp3826
S'aryl fluoride'
p3827
aS'carboxylic acid'
p3828
aS'aromatic'
p3829
asg491
F-8.7
sg492
g493
ssS'mobley_5732611'
p3830
(dp3831
g3
S'Cc1c[nH]cn1'
p3832
sg27
S'10.1021/bi00507a030'
p3833
sg29
F0.03
sg8
S' 4-methyl-1H-imidazole'
p3834
sg10
(lp3835
g32
asg33
S'4-methyl-1H-imidazole'
p3836
sg15
I13195
sg16
F0.6
sg35
F-10.27
sg18
(lp3837
S'aromatic'
p3838
aS'heterocyclic'
p3839
asg40
F-7.99
sg41
g42
ssS'mobley_5393242'
p3840
(dp3841
g3
S'CCOP(=S)(OCC)Oc1cc(nc(n1)C(C)C)C'
p3842
sg200
g201
sg202
F0.05
sg8
S' diazinon'
p3843
sg10
(lp3844
g32
asg205
S'diazinon'
p3845
sg15
I3017
sg207
F0.13
sg208
F-6.48
sg18
(lp3846
S'thiophosphoric acid ester'
p3847
aS'aromatic'
p3848
aS'heterocyclic'
p3849
asg211
F-9.97
sg212
g213
ssS'mobley_9624458'
p3850
(dp3851
g3
S'C(CCl)CCl'
p3852
sg27
g28
sg29
F0.02
sg8
S' 1,3-dichloropropane'
p3853
sg10
(lp3854
g32
asg33
S'1,3-dichloropropane'
p3855
sg15
I8881
sg16
F0.6
sg35
F-1.89
sg18
(lp3856
S'alkyl chloride'
p3857
asg40
F-0.38
sg41
g42
ssS'mobley_2316618'
p3858
(dp3859
g3
S'c1ccc2c(c1)C(=O)c3cccc(c3C2=O)NCCO'
p3860
sg296
g297
sg298
F0.029
sg8
S' 9,10-anthracenedione'
p3861
sg10
(lp3862
g32
asg301
S'1-(2-hydroxyethylamino)-9,10-anthraquinone'
p3863
sg15
I20528
sg303
g304
(g308
S'\x9a\x99\x99\x99\x99\x99\xf1?'
p3864
tp3865
Rp3866
sg314
g304
(g308
S'\xecQ\xb8\x1e\x85k,\xc0'
p3867
tp3868
Rp3869
sg18
(lp3870
S'ketone'
p3871
aS'primary alcohol'
p3872
aS'1,2-aminoalcohol'
p3873
aS'secondary amine'
p3874
aS'secondary aliphatic/aromatic amine (alkylarylamine)'
p3875
aS'aromatic'
p3876
asg322
F-13.33
sg323
g324
ssS'mobley_349850'
p3877
(dp3878
g3
S'Cc1ccc(cc1)C(=O)C'
p3879
sg27
g28
sg29
F0.03
sg8
S' 1-(p-tolyl)ethanone'
p3880
sg10
(lp3881
g32
asg33
S'1-(p-tolyl)ethanone'
p3882
sg15
I8500
sg16
F0.6
sg35
F-4.7
sg18
(lp3883
S'ketone'
p3884
aS'aromatic'
p3885
asg40
F-4.82
sg41
g42
ssS'mobley_3269565'
p3886
(dp3887
g3
S'CC(C)OC'
p3888
sg27
g28
sg29
F0.02
sg8
S' 2-methoxypropane'
p3889
sg10
(lp3890
g32
asg33
S'2-methoxypropane'
p3891
sg15
I11721
sg16
F0.6
sg35
F-2.01
sg18
(lp3892
S'dialkyl ether'
p3893
asg40
F-0.75
sg41
g42
ssS'mobley_186894'
p3894
(dp3895
g3
S'CCCS'
p3896
sg5
g6
sg7
F0.1
sg8
S' propanethiol'
p3897
sg10
(lp3898
g12
asg13
S'propanethiol'
p3899
sg15
I7848
sg16
F0.2
sg17
F-1.1
sg18
(lp3900
S'thiol (sulfanyl)'
p3901
aS'alkylthiol'
p3902
asg21
F-0.3
sg22
g23
ssS'mobley_7463408'
p3903
(dp3904
g3
S'CCC(=O)Nc1ccc(c(c1)Cl)Cl'
p3905
sg200
g201
sg202
F0.04
sg8
S' propanil'
p3906
sg10
(lp3907
g32
aS'Changed IUPAC name from propanil to N-(3,4-dichlorophenyl)propanimidic acid for better handling/standardization.'
p3908
asg205
S'N-(3,4-dichlorophenyl)propanimidic acid'
p3909
sg15
I4933
sg207
F1.93
sg208
F-7.78
sg18
(lp3910
S'aryl chloride'
p3911
aS'secondary carboxylic acid amide'
p3912
aS'aromatic'
p3913
asg211
F-9.65
sg212
g213
ssS'mobley_5627459'
p3914
(dp3915
g3
S'CC(C)C=O'
p3916
sg27
g28
sg29
F0.02
sg8
S' 2-methylpropanal'
p3917
sg10
(lp3918
g32
asg33
S'2-methylpropanal'
p3919
sg15
I6561
sg16
F0.6
sg35
F-2.86
sg18
(lp3920
S'aldehyde'
p3921
asg40
F-2.93
sg41
g42
ssS'mobley_5123639'
p3922
(dp3923
g3
S'C[C@H](CC(C)C)O'
p3924
sg27
g28
sg29
F0.02
sg8
S' 4-methylpentan-2-ol'
p3925
sg10
(lp3926
g32
asg33
S'4-methylpentan-2-ol'
p3927
sg15
I7910
sg16
F0.6
sg35
F-3.73
sg18
(lp3928
S'secondary alcohol'
p3929
asg40
F-2.75
sg41
g42
ssS'mobley_2049967'
p3930
(dp3931
g3
S'CCSC'
p3932
sg5
g6
sg7
F0.1
sg8
S' methylsulfanylethane'
p3933
sg10
(lp3934
g12
aS'Changed IUPAC name from ethylmethylsulfide to methylsulfanylethane for better handling/standardization.'
p3935
asg13
S'methylsulfanylethane'
p3936
sg15
I12230
sg16
F0.2
sg17
F-1.5
sg18
(lp3937
S'thioether'
p3938
asg21
F-0.3
sg22
g23
ssS'mobley_4759887'
p3939
(dp3940
g3
S'CCCCCCCI'
p3941
sg27
g28
sg29
F0.03
sg8
S' 1-iodoheptane'
p3942
sg10
(lp3943
g32
asg33
S'1-iodoheptane'
p3944
sg15
I20274
sg16
F0.6
sg35
F0.27
sg18
(lp3945
S'alkyl iodide'
p3946
asg40
F1.19
sg41
g42
ssS'mobley_4219614'
p3947
(dp3948
g3
S'c1cc(c(c(c1Cl)Cl)Cl)Cl'
p3949
sg27
g28
sg29
F0.02
sg8
S' 1,2,3,4-tetrachlorobenzene'
p3950
sg10
(lp3951
g32
asg33
S'1,2,3,4-tetrachlorobenzene'
p3952
sg15
I12463
sg16
F0.6
sg35
F-1.34
sg18
(lp3953
S'aryl chloride'
p3954
aS'aromatic'
p3955
asg40
F-0.32
sg41
g42
ssS'mobley_511661'
p3956
(dp3957
g3
S'C=CC=C'
p3958
sg5
S'10.1021/jo00891a006'
p3959
sg7
F0.1
sg8
S' butadiene'
p3960
sg10
(lp3961
g12
asg13
S'butadiene'
p3962
sg15
I7845
sg16
F0.2
sg17
F0.56
sg18
(lp3963
S'alkene'
p3964
asg21
F1.9
sg22
g23
ssS'mobley_4463913'
p3965
(dp3966
g3
S'CC(OC(=O)C)OC(=O)C'
p3967
sg27
g1343
sg29
F0.1
sg8
S' 1-acetoxyethyl acetate'
p3968
sg10
(lp3969
g32
asg33
S'1-acetoxyethyl acetate'
p3970
sg15
I222536
sg16
F0.6
sg35
F-4.97
sg18
(lp3971
S'carboxylic acid ester'
p3972
asg40
F-7.9
sg41
g42
ssS'mobley_6632459'
p3973
(dp3974
g3
S'CCC=O'
p3975
sg27
g28
sg29
F0.02
sg8
S' propanal'
p3976
sg10
(lp3977
g32
asg33
S'propanal'
p3978
sg15
I527
sg16
F0.6
sg35
F-3.43
sg18
(lp3979
S'aldehyde'
p3980
asg40
F-3.08
sg41
g42
ssS'mobley_2183616'
p3981
(dp3982
g3
S'CC[C@H](C)c1ccccc1'
p3983
sg27
g28
sg29
F0.03
sg8
S' sec-butylbenzene'
p3984
sg10
(lp3985
S'Renamed mobley_2183616 from sec-butylbenzene to [(1S)-1-methylpropyl]benzene (the name from the 3D structure) since the former did not completely specify stereochemistry.\n'
p3986
asg33
S'sec-butylbenzene'
p3987
sg15
I8680
sg16
F0.6
sg35
F-0.45
sg18
(lp3988
S'aromatic'
p3989
asg40
F0.04
sg41
g42
ssS'mobley_6416775'
p3990
(dp3991
g3
S'CCCC1CCCC1'
p3992
sg27
g28
sg29
F0.02
sg8
S' propylcyclopentane'
p3993
sg10
(lp3994
g32
asg33
S'propylcyclopentane'
p3995
sg15
I16270
sg16
F0.6
sg35
F2.13
sg18
(lp3996
g69
asg40
F2.15
sg41
g42
ssS'mobley_902954'
p3997
(dp3998
g3
S'CCCCO[N+](=O)[O-]'
p3999
sg200
g201
sg202
F0.02
sg8
S' butyl nitrate'
p4000
sg10
(lp4001
g32
asg205
S'butyl nitrate'
p4002
sg15
I13567
sg207
F0.1
sg208
F-2.09
sg18
(lp4003
S'nitrate'
p4004
asg211
F-1.83
sg212
g213
ssS'mobley_7463799'
p4005
(dp4006
g3
S'c1ccc(cc1)CCCO'
p4007
sg27
g28
sg29
F0.03
sg8
S' 3-phenylpropan-1-ol'
p4008
sg10
(lp4009
g32
asg33
S'3-phenylpropan-1-ol'
p4010
sg15
I31234
sg16
F0.6
sg35
F-6.92
sg18
(lp4011
S'primary alcohol'
p4012
aS'aromatic'
p4013
asg40
F-5.5
sg41
g42
ssS'mobley_3969312'
p4014
(dp4015
g3
S'c1ccc(cc1)C=O'
p4016
sg27
g28
sg29
F0.02
sg8
S' benzaldehyde'
p4017
sg10
(lp4018
g32
asg33
S'benzaldehyde'
p4019
sg15
I240
sg16
F0.6
sg35
F-4.02
sg18
(lp4020
S'aldehyde'
p4021
aS'aromatic'
p4022
asg40
F-4.99
sg41
g42
ssS'mobley_6248915'
p4023
(dp4024
g3
S'CCCCCCCCN'
p4025
sg27
g28
sg29
F0.03
sg8
S' octan-1-amine'
p4026
sg10
(lp4027
g32
asg33
S'octan-1-amine'
p4028
sg15
I8143
sg16
F0.6
sg35
F-3.65
sg18
(lp4029
S'primary amine'
p4030
aS'primary aliphatic amine (alkylamine)'
p4031
asg40
F-2.38
sg41
g42
ssS'mobley_1881249'
p4032
(dp4033
g3
S'CCCC(=O)C'
p4034
sg27
g28
sg29
F0.02
sg8
S' pentan-2-one'
p4035
sg10
(lp4036
g32
asg33
S'pentan-2-one'
p4037
sg15
I7895
sg16
F0.6
sg35
F-3.52
sg18
(lp4038
S'ketone'
p4039
asg40
F-3.29
sg41
g42
ssS'mobley_8449031'
p4040
(dp4041
g3
S'CCN(CC)CC'
p4042
sg27
g28
sg29
F0.03
sg8
S' N,N-diethylethanamine'
p4043
sg10
(lp4044
g32
asg33
S'N,N-diethylethanamine'
p4045
sg15
I8471
sg16
F0.6
sg35
F-3.22
sg18
(lp4046
S'tertiary amine'
p4047
aS'tertiary aliphatic amine (trialkylamine)'
p4048
asg40
F-1.83
sg41
g42
ssS'mobley_5467162'
p4049
(dp4050
g3
S'CC(C)(C)c1ccc(cc1)O'
p4051
sg27
g28
sg29
F0.04
sg8
S' 4-tert-butylphenol'
p4052
sg10
(lp4053
g32
asg33
S'4-tert-butylphenol'
p4054
sg15
I7393
sg16
F0.6
sg35
F-5.91
sg18
(lp4055
S'phenol or hydroxyhetarene'
p4056
aS'aromatic'
p4057
asg40
F-5.54
sg41
g42
ssS'mobley_6522117'
p4058
(dp4059
g3
S'CCOP(=O)(OCC)O/C(=C/Cl)/c1ccc(cc1Cl)Cl'
p4060
sg200
g201
sg202
F0.05
sg8
S' Chlorfenvinphos'
p4061
sg10
(lp4062
S'Renamed mobley_6522117 from 2-chloro-1-(2,4-dichlorophenyl)ethenyl diethyl phosphate to [(E)-2-chloro-1-(2,4-dichlorophenyl)vinyl] diethyl phosphate (the name from the 3D structure) since the former did not completely specify stereochemistry.\n'
p4063
asg205
S'2-chloro-1-(2,4-dichlorophenyl)ethenyl diethyl phosphate'
p4064
sg15
I10107
sg207
F1.37
sg208
F-7.07
sg18
(lp4065
S'aryl chloride'
p4066
aS'phosphoric acid ester'
p4067
aS'alkene'
p4068
aS'aromatic'
p4069
asg211
F-9.45
sg212
g213
ssS'mobley_7977115'
p4070
(dp4071
g3
S'CCC[C@H](CC)O'
p4072
sg27
g28
sg29
F0.02
sg8
S' hexan-3-ol'
p4073
sg10
(lp4074
S'Renamed mobley_7977115 from hexan-3-ol to (3S)-hexan-3-ol (the name from the 3D structure) since the former did not completely specify stereochemistry.\n'
p4075
asg33
S'hexan-3-ol'
p4076
sg15
I12178
sg16
F0.6
sg35
F-4.06
sg18
(lp4077
S'secondary alcohol'
p4078
asg40
F-2.63
sg41
g42
ssS'mobley_8809274'
p4079
(dp4080
g3
S'c1ccc(cc1)C(F)(F)F'
p4081
sg27
S'10.1039/P29940001777'
p4082
sg29
F0.02
sg8
S' trifluoromethylbenzene'
p4083
sg10
(lp4084
g32
asg33
S'trifluoromethylbenzene'
p4085
sg15
I7368
sg16
F0.6
sg35
F-0.25
sg18
(lp4086
S'halogen derivative'
p4087
aS'aromatic'
p4088
asg40
F-0.55
sg41
g42
ssS'mobley_5063386'
p4089
(dp4090
g3
S'c1ccc(c(c1)[N+](=O)[O-])O'
p4091
sg27
g28
sg29
F0.03
sg8
S' 2-nitrophenol'
p4092
sg10
(lp4093
g32
asg33
S'2-nitrophenol'
p4094
sg15
I6947
sg16
F0.6
sg35
F-4.58
sg18
(lp4095
S'phenol or hydroxyhetarene'
p4096
aS'nitro'
p4097
aS'aromatic'
p4098
asg40
F-5.34
sg41
g42
ssS'mobley_2958326'
p4099
(dp4100
g3
S'CCCNCCC'
p4101
sg27
g28
sg29
F0.02
sg8
S' N-propylpropan-1-amine'
p4102
sg10
(lp4103
g32
asg33
S'N-propylpropan-1-amine'
p4104
sg15
I8902
sg16
F0.6
sg35
F-3.65
sg18
(lp4105
S'secondary amine'
p4106
aS'secondary aliphatic amine (dialkylamine)'
p4107
asg40
F-2.26
sg41
g42
ssS'mobley_8052240'
p4108
(dp4109
g3
S'c1ccc2c(c1)C(=O)c3cccc(c3C2=O)N'
p4110
sg296
g297
sg298
F0.022
sg8
S' 1-aminoanthraquinone'
p4111
sg10
(lp4112
g32
asg301
S'1-amino-9,10-anthracenedione'
p4113
sg15
I6710
sg303
g304
(g308
S'\xaeG\xe1z\x14\xae\xe7?'
p4114
tp4115
Rp4116
sg314
g304
(g308
S'\xe1z\x14\xaeG\xe1"\xc0'
p4117
tp4118
Rp4119
sg18
(lp4120
S'ketone'
p4121
aS'primary amine'
p4122
aS'primary aromatic amine'
p4123
aS'aromatic'
p4124
asg322
F-11.59
sg323
g324
ssS'mobley_590519'
p4125
(dp4126
g3
S'CCSSCC'
p4127
sg27
g28
sg29
F0.02
sg8
S' ethyldisulfanylethane'
p4128
sg10
(lp4129
g32
asg33
S'ethyldisulfanylethane'
p4130
sg15
I8077
sg16
F0.6
sg35
F-1.64
sg18
(lp4131
S'disulfide'
p4132
asg40
F-0.07
sg41
g42
ssS'mobley_6309289'
p4133
(dp4134
g3
S'C1CCNCC1'
p4135
sg27
g28
sg29
F0.02
sg8
S' piperidine'
p4136
sg10
(lp4137
g32
asg33
S'piperidine'
p4138
sg15
I8082
sg16
F0.6
sg35
F-5.11
sg18
(lp4139
S'secondary amine'
p4140
aS'secondary aliphatic amine (dialkylamine)'
p4141
aS'heterocyclic'
p4142
asg40
F-3.46
sg41
g42
ssS'mobley_4059279'
p4143
(dp4144
g3
S'CN1CCN(CC1)C'
p4145
sg27
g1343
sg29
F0.03
sg8
S' 1,4-dimethylpiperazine'
p4146
sg10
(lp4147
g32
asg33
S'1,4-dimethylpiperazine'
p4148
sg15
I7818
sg16
F0.6
sg35
F-7.58
sg18
(lp4149
S'tertiary amine'
p4150
aS'tertiary aliphatic amine (trialkylamine)'
p4151
aS'heterocyclic'
p4152
asg40
F-7.4
sg41
g42
ssS'mobley_9733743'
p4153
(dp4154
g3
S'CCCCN'
p4155
sg27
g28
sg29
F0.02
sg8
S' butan-1-amine'
p4156
sg10
(lp4157
g32
asg33
S'butan-1-amine'
p4158
sg15
I8007
sg16
F0.6
sg35
F-4.24
sg18
(lp4159
S'primary amine'
p4160
aS'primary aliphatic amine (alkylamine)'
p4161
asg40
F-2.82
sg41
g42
ssS'mobley_252413'
p4162
(dp4163
g3
S'CCCC(C)(C)C'
p4164
sg27
g28
sg29
F0.02
sg8
S' 2,2-dimethylpentane'
p4165
sg10
(lp4166
g32
asg33
S'2,2-dimethylpentane'
p4167
sg15
I11542
sg16
F0.6
sg35
F2.88
sg18
(lp4168
g69
asg40
F2.9
sg41
g42
ssS'mobley_1144156'
p4169
(dp4170
g3
S'CCOCC'
p4171
sg27
g28
sg29
F0.02
sg8
S' ethoxyethane'
p4172
sg10
(lp4173
g32
asg33
S'ethoxyethane'
p4174
sg15
I3283
sg16
F0.6
sg35
F-1.59
sg18
(lp4175
S'dialkyl ether'
p4176
asg40
F-0.7
sg41
g42
ssS'mobley_2972906'
p4177
(dp4178
g3
S'c1ccsc1'
p4179
sg5
g6
sg7
F0.1
sg8
S' thiophene'
p4180
sg10
(lp4181
g12
asg13
S'thiophene'
p4182
sg15
I8030
sg16
F0.2
sg17
F-1.4
sg18
(lp4183
S'aromatic'
p4184
aS'heterocyclic'
p4185
asg21
F-0.6
sg22
g23
ssS'mobley_3266352'
p4186
(dp4187
g3
S'CN(CC(F)(F)F)c1ccccc1'
p4188
sg27
S'10.1139/v93-262'
p4189
sg29
F0.03
sg8
S' N-methyl-N-(2,2,2-trifluoroethyl)aniline'
p4190
sg10
(lp4191
g32
asg33
S'N-methyl-N-(2,2,2-trifluoroethyl)aniline'
p4192
sg15
I13238893
sg16
F0.6
sg35
F-1.92
sg18
(lp4193
S'tertiary amine'
p4194
aS'tertiary aliphatic/aromatic amine (alkylarylamine)'
p4195
aS'halogen derivative'
p4196
aS'aromatic'
p4197
asg40
F-3.69
sg41
g42
ssS'mobley_1231151'
p4198
(dp4199
g3
S'CC(C)Cl'
p4200
sg27
g28
sg29
F0.02
sg8
S' 2-chloropropane'
p4201
sg10
(lp4202
g32
asg33
S'2-chloropropane'
p4203
sg15
I6361
sg16
F0.6
sg35
F-0.25
sg18
(lp4204
S'alkyl chloride'
p4205
asg40
F0.82
sg41
g42
ssS'mobley_4035953'
p4206
(dp4207
g3
S'Cc1ccccc1O'
p4208
sg5
g6
sg7
F0.1
sg8
S' o-cresol'
p4209
sg10
(lp4210
g12
asg13
S'o-cresol'
p4211
sg15
I335
sg16
F0.2
sg17
F-5.9
sg18
(lp4212
S'phenol or hydroxyhetarene'
p4213
aS'aromatic'
p4214
asg21
F-5.0
sg22
g23
ssS'mobley_299266'
p4215
(dp4216
g3
S'CC(=C)C'
p4217
sg27
g28
sg29
F0.02
sg8
S' 2-methylprop-1-ene'
p4218
sg10
(lp4219
g32
asg33
S'2-methylprop-1-ene'
p4220
sg15
I8255
sg16
F0.6
sg35
F1.16
sg18
(lp4221
S'alkene'
p4222
asg40
F2.34
sg41
g42
ssS'mobley_7774695'
p4223
(dp4224
g3
S'CNc1ccccc1'
p4225
sg27
g28
sg29
F0.03
sg8
S' N-methylaniline'
p4226
sg10
(lp4227
g32
asg33
S'N-methylaniline'
p4228
sg15
I7515
sg16
F0.6
sg35
F-4.69
sg18
(lp4229
S'secondary amine'
p4230
aS'secondary aliphatic/aromatic amine (alkylarylamine)'
p4231
aS'aromatic'
p4232
asg40
F-5.74
sg41
g42
ssS'mobley_7066554'
p4233
(dp4234
g3
S'c1cc(ccc1O)Cl'
p4235
sg27
g28
sg29
F0.02
sg8
S' 4-chlorophenol'
p4236
sg10
(lp4237
g32
asg33
S'4-chlorophenol'
p4238
sg15
I4684
sg16
F0.6
sg35
F-7.03
sg18
(lp4239
S'phenol or hydroxyhetarene'
p4240
aS'aryl chloride'
p4241
aS'aromatic'
p4242
asg40
F-5.36
sg41
g42
ssS'mobley_1967551'
p4243
(dp4244
g3
S'CC=O'
p4245
sg27
g28
sg29
F0.02
sg8
S' acetaldehyde'
p4246
sg10
(lp4247
g32
asg33
S'acetaldehyde'
p4248
sg15
I177
sg16
F0.6
sg35
F-3.5
sg18
(lp4249
S'aldehyde'
p4250
asg40
F-3.39
sg41
g42
ssS'mobley_7326982'
p4251
(dp4252
g3
S'CC(C)O'
p4253
sg27
g28
sg29
F0.02
sg8
S' propan-2-ol'
p4254
sg10
(lp4255
g32
asg33
S'propan-2-ol'
p4256
sg15
I3776
sg16
F0.6
sg35
F-4.74
sg18
(lp4257
S'secondary alcohol'
p4258
asg40
F-3.28
sg41
g42
ssS'mobley_7009711'
p4259
(dp4260
g3
S'Cc1cc(cc(c1)O)C'
p4261
sg27
g28
sg29
F0.03
sg8
S' 3,5-dimethylphenol'
p4262
sg10
(lp4263
g32
asg33
S'3,5-dimethylphenol'
p4264
sg15
I7948
sg16
F0.6
sg35
F-6.27
sg18
(lp4265
S'phenol or hydroxyhetarene'
p4266
aS'aromatic'
p4267
asg40
F-5.12
sg41
g42
ssS'mobley_9705941'
p4268
(dp4269
g3
S'Cc1cccs1'
p4270
sg27
g28
sg29
F0.02
sg8
S' 2-methylthiophene'
p4271
sg10
(lp4272
g32
asg33
S'2-methylthiophene'
p4273
sg15
I11126
sg16
F0.6
sg35
F-1.38
sg18
(lp4274
S'aromatic'
p4275
aS'heterocyclic'
p4276
asg40
F-0.22
sg41
g42
ssS'mobley_4149784'
p4277
(dp4278
g3
S'c1cc2c(cc1Cl)Oc3ccc(cc3O2)Cl'
p4279
sg235
g236
sg237
F0.02
sg8
S' 2,7-dichlorodibenzo-p-dioxin'
p4280
sg10
(lp4281
g32
asg240
S'2,7-dichlorodibenzo-p-dioxin'
p4282
sg15
I36613
sg242
F0.12
sg243
F-3.67
sg18
(lp4283
S'diaryl ether'
p4284
aS'aryl chloride'
p4285
aS'aromatic'
p4286
aS'heterocyclic'
p4287
asg246
F-3.39
sg247
g248
ssS'mobley_2213823'
p4288
(dp4289
g3
S'CCC(C)CC'
p4290
sg27
g28
sg29
F0.02
sg8
S' 3-methylpentane'
p4291
sg10
(lp4292
g32
asg33
S'3-methylpentane'
p4293
sg15
I7282
sg16
F0.6
sg35
F2.51
sg18
(lp4294
g69
asg40
F2.72
sg41
g42
ssS'mobley_7754849'
p4295
(dp4296
g3
S'CCOP(=S)(OCC)SCSP(=S)(OCC)OCC'
p4297
sg200
g201
sg202
F0.05
sg8
S' ethion'
p4298
sg10
(lp4299
g32
asg205
S'ethion'
p4300
sg15
I3286
sg207
F1.37
sg208
F-6.1
sg18
(lp4301
S'thiophosphoric acid ester'
p4302
asg211
F-9.71
sg212
g213
ssS'mobley_8885088'
p4303
(dp4304
g3
S'C1CC=CC1'
p4305
sg27
g28
sg29
F0.02
sg8
S' cyclopentene'
p4306
sg10
(lp4307
g32
asg33
S'cyclopentene'
p4308
sg15
I8882
sg16
F0.6
sg35
F0.56
sg18
(lp4309
S'alkene'
p4310
asg40
F1.38
sg41
g42
ssS'mobley_3359593'
p4311
(dp4312
g3
S'CCCc1ccc(c(c1)OC)O'
p4313
sg296
g297
sg298
F0.024
sg8
S' 4-propylguaiacol'
p4314
sg10
(lp4315
g32
asg301
S'4-propylguaiacol'
p4316
sg15
I17739
sg303
F0.18
sg314
F-5.26
sg18
(lp4317
S'phenol or hydroxyhetarene'
p4318
aS'alkyl aryl ether'
p4319
aS'aromatic'
p4320
asg322
F-4.1
sg323
g324
ssS'mobley_7417968'
p4321
(dp4322
g3
S'CCOCCOC(=O)C'
p4323
sg296
g297
sg298
F0.021
sg8
S' 2-ethoxyethyl acetate'
p4324
sg10
(lp4325
g32
asg301
S'2-ethoxyethyl acetate'
p4326
sg15
I8095
sg303
g304
(g308
S'\x9a\x99\x99\x99\x99\x99\xb9?'
p4327
tp4328
Rp4329
sg314
g304
(g308
S'=\n\xd7\xa3p=\x15\xc0'
p4330
tp4331
Rp4332
sg18
(lp4333
S'dialkyl ether'
p4334
aS'carboxylic acid ester'
p4335
asg322
F-6.04
sg323
g324
ssS'mobley_9653690'
p4336
(dp4337
g3
S'CC1=CC[C@H](C[C@@H]1O)C(=C)C'
p4338
sg296
g297
sg298
F0.021
sg8
S' trans-carveol'
p4339
sg10
(lp4340
g32
asg301
S'(1S,5R)-2-methyl-5-(1-methylethenyl)-2-cyclohexen-1-ol'
p4341
sg15
I94221
sg303
F0.43
sg314
F-4.44
sg18
(lp4342
S'secondary alcohol'
p4343
aS'alkene'
p4344
asg322
F-3.38
sg323
g324
ssS'mobley_4699732'
p4345
(dp4346
g3
S'C[C@@H](CCl)Cl'
p4347
sg27
g28
sg29
F0.02
sg8
S' 1,2-dichloropropane'
p4348
sg10
(lp4349
S'Renamed mobley_4699732 from 1,2-dichloropropane to (2S)-1,2-dichloropropane (the name from the 3D structure) since the former did not completely specify stereochemistry.\n'
p4350
asg33
S'1,2-dichloropropane'
p4351
sg15
I6564
sg16
F0.6
sg35
F-1.27
sg18
(lp4352
S'alkyl chloride'
p4353
asg40
F-0.2
sg41
g42
ssS'mobley_4305650'
p4354
(dp4355
g3
S'CCC#N'
p4356
sg27
g28
sg29
F0.02
sg8
S' propanenitrile'
p4357
sg10
(lp4358
g32
asg33
S'propanenitrile'
p4359
sg15
I7854
sg16
F0.6
sg35
F-3.84
sg18
(lp4360
S'carbonitrile'
p4361
asg40
F-1.27
sg41
g42
ssS'mobley_628951'
p4362
(dp4363
g3
S'c1cc(c(c(c1)Cl)c2c(cccc2Cl)Cl)Cl'
p4364
sg235
g236
sg237
F0.04
sg8
S" 2,2',6,6'-tetrachlorobiphenyl"
p4365
sg10
(lp4366
g32
asg240
S'1,3-dichloro-2-(2,6-dichlorophenyl)benzene'
p4367
sg15
I27588
sg242
F0.12
sg243
F-2.28
sg18
(lp4368
S'aryl chloride'
p4369
aS'aromatic'
p4370
asg246
F-1.22
sg247
g248
ssS'mobley_4883284'
p4371
(dp4372
g3
S'c1ccc(cc1)N'
p4373
sg27
g28
sg29
F0.02
sg8
S' aniline'
p4374
sg10
(lp4375
g32
asg33
S'aniline'
p4376
sg15
I6115
sg16
F0.6
sg35
F-5.49
sg18
(lp4377
S'primary amine'
p4378
aS'primary aromatic amine'
p4379
aS'aromatic'
p4380
asg40
F-5.92
sg41
g42
ssS'mobley_3210206'
p4381
(dp4382
g3
S'C[C@@H](CO[N+](=O)[O-])O[N+](=O)[O-]'
p4383
sg200
g201
sg202
F0.03
sg8
S' 1,2-dinitroxypropane'
p4384
sg10
(lp4385
g32
asg205
S'1,2-dinitroxypropane'
p4386
sg15
I21075956
sg207
F0.1
sg208
F-4.95
sg18
(lp4387
S'nitrate'
p4388
asg211
F-5.62
sg212
g213
ssS'mobley_2802855'
p4389
(dp4390
g3
S'CCCCBr'
p4391
sg27
g28
sg29
F0.02
sg8
S' 1-bromobutane'
p4392
sg10
(lp4393
g32
asg33
S'1-bromobutane'
p4394
sg15
I8002
sg16
F0.6
sg35
F-0.4
sg18
(lp4395
S'alkyl bromide'
p4396
asg40
F1.68
sg41
g42
ssS'mobley_1803862'
p4397
(dp4398
g3
S'CCC(C)C'
p4399
sg27
g28
sg29
F0.02
sg8
S' isopentane'
p4400
sg10
(lp4401
g32
asg33
S'isopentane'
p4402
sg15
I6556
sg16
F0.6
sg35
F2.38
sg18
(lp4403
g69
asg40
F2.52
sg41
g42
ssS'mobley_1858644'
p4404
(dp4405
g3
S'c1ccc(cc1)CCO'
p4406
sg27
g28
sg29
F0.03
sg8
S' 2-phenylethanol'
p4407
sg10
(lp4408
g32
asg33
S'2-phenylethanol'
p4409
sg15
I6054
sg16
F0.6
sg35
F-6.79
sg18
(lp4410
S'primary alcohol'
p4411
aS'aromatic'
p4412
asg40
F-5.33
sg41
g42
ssS'mobley_8467917'
p4413
(dp4414
g3
S'CCCC/C=C/C'
p4415
sg27
g28
sg29
F0.02
sg8
S' hept-2-ene'
p4416
sg10
(lp4417
S'Renamed mobley_8467917 from hept-2-ene to (E)-hept-2-ene (the name from the 3D structure) since the former did not completely specify stereochemistry.\n'
p4418
asg33
S'hept-2-ene'
p4419
sg15
I11611
sg16
F0.6
sg35
F1.68
sg18
(lp4420
S'alkene'
p4421
asg40
F2.83
sg41
g42
ssS'mobley_7017274'
p4422
(dp4423
g3
S'c1ccc2c(c1)ccc3c2cccc3'
p4424
sg27
g28
sg29
F0.03
sg8
S' phenanthrene'
p4425
sg10
(lp4426
g32
asg33
S'phenanthrene'
p4427
sg15
I995
sg16
F0.6
sg35
F-3.88
sg18
(lp4428
S'aromatic'
p4429
asg40
F-5.15
sg41
g42
ssS'mobley_8746821'
p4430
(dp4431
g3
S'Cc1cccnc1C'
p4432
sg27
g28
sg29
F0.02
sg8
S' 2,3-dimethylpyridine'
p4433
sg10
(lp4434
g32
asg33
S'2,3-dimethylpyridine'
p4435
sg15
I11420
sg16
F0.6
sg35
F-4.82
sg18
(lp4436
S'aromatic'
p4437
aS'heterocyclic'
p4438
asg40
F-3.27
sg41
g42
ssS'mobley_4177472'
p4439
(dp4440
g3
S'CC(C)C(C)C(C)C'
p4441
sg27
g28
sg29
F0.03
sg8
S' 2,3,4-trimethylpentane'
p4442
sg10
(lp4443
g32
asg33
S'2,3,4-trimethylpentane'
p4444
sg15
I11269
sg16
F0.6
sg35
F2.56
sg18
(lp4445
g69
asg40
F2.86
sg41
g42
ssS'mobley_8522124'
p4446
(dp4447
g3
S'CCCCCCC#C'
p4448
sg27
g28
sg29
F0.03
sg8
S' oct-1-yne'
p4449
sg10
(lp4450
g32
asg33
S'oct-1-yne'
p4451
sg15
I12370
sg16
F0.6
sg35
F0.71
sg18
(lp4452
S'alkyne'
p4453
asg40
F1.12
sg41
g42
ssS'mobley_1723043'
p4454
(dp4455
g3
S'C1(C(C(C1(F)F)(F)F)(F)F)(F)F'
p4456
sg477
g478
sg479
F0.04
sg8
S' octafluorocyclobutane'
p4457
sg10
(lp4458
g32
asg482
S'octafluorocyclobutane'
p4459
sg15
I8263
sg484
F0.03
sg485
F3.43
sg18
(lp4460
S'alkyl fluoride'
p4461
asg491
F3.01
sg492
g493
ssS'mobley_2245668'
p4462
(dp4463
g3
S'CC(C)CO'
p4464
sg27
g28
sg29
F0.02
sg8
S' 2-methylpropan-1-ol'
p4465
sg10
(lp4466
g32
asg33
S'2-methylpropan-1-ol'
p4467
sg15
I6560
sg16
F0.6
sg35
F-4.5
sg18
(lp4468
S'primary alcohol'
p4469
asg40
F-2.96
sg41
g42
ssS'mobley_1592519'
p4470
(dp4471
g3
S'CCCCCC(=O)OCC'
p4472
sg27
g28
sg29
F0.04
sg8
S' ethyl hexanoate'
p4473
sg10
(lp4474
g32
asg33
S'ethyl hexanoate'
p4475
sg15
I31265
sg16
F0.6
sg35
F-2.23
sg18
(lp4476
S'carboxylic acid ester'
p4477
asg40
F-2.8
sg41
g42
ssS'mobley_129464'
p4478
(dp4479
g3
S'CCCCOCCCC'
p4480
sg27
g28
sg29
F0.03
sg8
S' 1-butoxybutane'
p4481
sg10
(lp4482
g32
asg33
S'1-butoxybutane'
p4483
sg15
I8909
sg16
F0.6
sg35
F-0.83
sg18
(lp4484
S'dialkyl ether'
p4485
asg40
F0.59
sg41
g42
ssS'mobley_9434451'
p4486
(dp4487
g3
S'CC(C)Br'
p4488
sg27
g28
sg29
F0.02
sg8
S' 2-bromopropane'
p4489
sg10
(lp4490
g32
asg33
S'2-bromopropane'
p4491
sg15
I6358
sg16
F0.6
sg35
F-0.48
sg18
(lp4492
S'alkyl bromide'
p4493
asg40
F0.97
sg41
g42
ssS'mobley_7261305'
p4494
(dp4495
g3
S'NN'
p4496
sg27
g28
sg29
F0.02
sg8
S' hydrazine'
p4497
sg10
(lp4498
g32
asg33
S'hydrazine'
p4499
sg15
I9321
sg16
F0.6
sg35
F-9.3
sg18
(lp4500
S'hydrazine derivative'
p4501
asg40
F-7.1
sg41
g42
ssS'mobley_8191186'
p4502
(dp4503
g3
S'C(C(F)(F)F)Cl'
p4504
sg27
g28
sg29
F0.02
sg8
S' 2-chloro-1,1,1-trifluoro-ethane'
p4505
sg10
(lp4506
g32
asg33
S'2-chloro-1,1,1-trifluoro-ethane'
p4507
sg15
I6408
sg16
F0.6
sg35
F0.06
sg18
(lp4508
S'alkyl chloride'
p4509
asg40
F0.16
sg41
g42
ssS'mobley_3040612'
p4510
(dp4511
g3
S'CCc1ccccc1C'
p4512
sg296
g297
sg298
F0.021
sg8
S' 1-ethyl-2-methylbenzene'
p4513
sg10
(lp4514
g32
asg301
S'1-ethyl-2-methylbenzene'
p4515
sg15
I11903
sg303
g304
(g308
S'\x9a\x99\x99\x99\x99\x99\xb9?'
p4516
tp4517
Rp4518
sg314
g304
(g308
S'333333\xeb\xbf'
p4519
tp4520
Rp4521
sg18
(lp4522
S'aromatic'
p4523
asg322
F-0.766
sg323
g324
ssS'mobley_667278'
p4524
(dp4525
g3
S'c1cc(c(c(c1c2cc(c(c(c2Cl)Cl)Cl)Cl)Cl)Cl)Cl'
p4526
sg235
g236
sg237
F0.08
sg8
S" 2,2',3,3',4,4',5-heptachlorobiphenyl"
p4527
sg10
(lp4528
g32
asg240
S'1,2,3,4-tetrachloro-5-(2,3,4-trichlorophenyl)benzene'
p4529
sg15
I37037
sg242
F0.1
sg243
F-4.4
sg18
(lp4530
S'aryl chloride'
p4531
aS'aromatic'
p4532
asg246
F-2.21
sg247
g248
ssS'mobley_6911232'
p4533
(dp4534
g3
S'CCOC'
p4535
sg27
g28
sg29
F0.02
sg8
S' methoxyethane'
p4536
sg10
(lp4537
g32
asg33
S'methoxyethane'
p4538
sg15
I10903
sg16
F0.6
sg35
F-2.1
sg18
(lp4539
S'dialkyl ether'
p4540
asg40
F-0.82
sg41
g42
ssS'mobley_8057732'
p4541
(dp4542
g3
S'c1cc(cc(c1)Cl)O'
p4543
sg27
g28
sg29
F0.03
sg8
S' 3-chlorophenol'
p4544
sg10
(lp4545
g32
asg33
S'3-chlorophenol'
p4546
sg15
I7933
sg16
F0.6
sg35
F-6.62
sg18
(lp4547
S'phenol or hydroxyhetarene'
p4548
aS'aryl chloride'
p4549
aS'aromatic'
p4550
asg40
F-5.28
sg41
g42
ssS'mobley_5310099'
p4551
(dp4552
g3
S'CCCCC=C'
p4553
sg27
g28
sg29
F0.02
sg8
S' hex-1-ene'
p4554
sg10
(lp4555
g32
asg33
S'hex-1-ene'
p4556
sg15
I11597
sg16
F0.6
sg35
F1.58
sg18
(lp4557
S'alkene'
p4558
asg40
F2.59
sg41
g42
ssS'mobley_6198745'
p4559
(dp4560
g3
S'CC(=O)OCC(COC(=O)C)OC(=O)C'
p4561
sg1390
g1391
sg1392
F0.1
sg8
S' 2,3-diacetoxypropyl acetate'
p4562
sg1394
(lp4563
g1396
ag32
aS'Changed IUPAC name from glycerol triacetate to 2,3-diacetoxypropyl acetate for better handling/standardization.'
p4564
ag186
asg1397
S'2,3-diacetoxypropyl acetate'
p4565
sg15
I5541
sg16
F0.2
sg1399
F-8.84
sg18
(lp4566
S'carboxylic acid ester'
p4567
asg1402
F-12.16
sg1403
g1391
ssS'mobley_3201701'
p4568
(dp4569
g3
S'Cc1c(nc(nc1OC(=O)N(C)C)N(C)C)C'
p4570
sg200
g201
sg202
F0.04
sg8
S' pirimor'
p4571
sg10
(lp4572
g32
aS'Changed IUPAC name from pirimor to 2-(dimethylamino)-5,6-dimethylpyrimidin-4-yl N,N-dimethylcarbamate for better handling/standardization.'
p4573
asg205
S'pirimor'
p4574
sg15
I31645
sg207
F1.93
sg208
F-9.41
sg18
(lp4575
S'tertiary amine'
p4576
aS'tertiary aliphatic/aromatic amine (alkylarylamine)'
p4577
aS'carbamic acid ester (urethane)'
p4578
aS'aromatic'
p4579
aS'heterocyclic'
p4580
asg211
F-13.68
sg212
g213
ssS'mobley_4690963'
p4581
(dp4582
g3
S'CCOCCOCC'
p4583
sg27
g28
sg29
F0.03
sg8
S' 1,2-diethoxyethane'
p4584
sg10
(lp4585
g32
asg33
S'1,2-diethoxyethane'
p4586
sg15
I12375
sg16
F0.6
sg35
F-3.54
sg18
(lp4587
S'dialkyl ether'
p4588
asg40
F-3.08
sg41
g42
ssS'mobley_3746675'
p4589
(dp4590
g3
S'CC(=C)c1ccccc1'
p4591
sg27
g28
sg29
F0.02
sg8
S' isopropenylbenzene'
p4592
sg10
(lp4593
g32
asg33
S'isopropenylbenzene'
p4594
sg15
I7407
sg16
F0.6
sg35
F-1.24
sg18
(lp4595
S'alkene'
p4596
aS'aromatic'
p4597
asg40
F-1.26
sg41
g42
ssS'mobley_1899443'
p4598
(dp4599
g3
S'CCCC(=C)C'
p4600
sg27
g28
sg29
F0.02
sg8
S' 2-methylpent-1-ene'
p4601
sg10
(lp4602
g32
asg33
S'2-methylpent-1-ene'
p4603
sg15
I12986
sg16
F0.6
sg35
F1.47
sg18
(lp4604
S'alkene'
p4605
asg40
F2.75
sg41
g42
ssS'mobley_3187514'
p4606
(dp4607
g3
S'Cc1ccccc1N'
p4608
sg27
g28
sg29
F0.03
sg8
S' 2-methylaniline'
p4609
sg10
(lp4610
g32
asg33
S'2-methylaniline'
p4611
sg15
I7242
sg16
F0.6
sg35
F-5.53
sg18
(lp4612
S'primary amine'
p4613
aS'primary aromatic amine'
p4614
aS'aromatic'
p4615
asg40
F-5.37
sg41
g42
ssS'mobley_4964807'
p4616
(dp4617
g3
S'CC(=O)CO[N+](=O)[O-]'
p4618
sg200
g201
sg202
F0.02
sg8
S' nitroxyacetone'
p4619
sg10
(lp4620
g32
asg205
S'nitroxyacetone'
p4621
sg15
I81226
sg207
F0.1
sg208
F-5.99
sg18
(lp4622
S'ketone'
p4623
aS'nitrate'
p4624
asg211
F-5.18
sg212
g213
ssS'mobley_4338603'
p4625
(dp4626
g3
S'c1c(=O)[nH]c(=O)[nH]c1Cl'
p4627
sg477
g478
sg479
F0.06
sg8
S' 6-chlorouracil'
p4628
sg10
(lp4629
g32
asg482
S'6-chlorouracil'
p4630
sg15
I73272
sg484
F1.22
sg485
F-15.83
sg18
(lp4631
S'aryl chloride'
p4632
aS'oxo(het)arene'
p4633
aS'aromatic'
p4634
aS'heterocyclic'
p4635
asg491
F-15.11
sg492
g493
ssS'mobley_210639'
p4636
(dp4637
g3
S'CC(C)I'
p4638
sg27
g28
sg29
F0.02
sg8
S' 2-iodopropane'
p4639
sg10
(lp4640
g32
asg33
S'2-iodopropane'
p4641
sg15
I6362
sg16
F0.6
sg35
F-0.46
sg18
(lp4642
S'alkyl iodide'
p4643
asg40
F0.29
sg41
g42
ssS'mobley_1075836'
p4644
(dp4645
g3
S'CCC(=O)OC'
p4646
sg27
g28
sg29
F0.02
sg8
S' methyl propanoate'
p4647
sg10
(lp4648
g32
asg33
S'methyl propanoate'
p4649
sg15
I11124
sg16
F0.6
sg35
F-2.93
sg18
(lp4650
S'carboxylic acid ester'
p4651
asg40
F-3.83
sg41
g42
ssS'mobley_6091882'
p4652
(dp4653
g3
S'C=C'
p4654
sg27
g28
sg29
F0.01
sg8
S' ethylene'
p4655
sg10
(lp4656
g32
asg33
S'ethylene'
p4657
sg15
I6325
sg16
F0.6
sg35
F1.28
sg18
(lp4658
S'alkene'
p4659
asg40
F2.36
sg41
g42
ssS'mobley_8514745'
p4660
(dp4661
g3
S'CCCCCOC(=O)C'
p4662
sg27
g28
sg29
F0.03
sg8
S' pentyl acetate'
p4663
sg10
(lp4664
g32
asg33
S'pentyl acetate'
p4665
sg15
I12348
sg16
F0.6
sg35
F-2.51
sg18
(lp4666
S'carboxylic acid ester'
p4667
asg40
F-2.83
sg41
g42
ssS'mobley_8668219'
p4668
(dp4669
g3
S'CC[C@@H](C)C(C)C'
p4670
sg27
g28
sg29
F0.03
sg8
S' 2,3-dimethylpentane'
p4671
sg10
(lp4672
S'Renamed mobley_8668219 from 2,3-dimethylpentane to (3R)-2,3-dimethylpentane (the name from the 3D structure) since the former did not completely specify stereochemistry.\n'
p4673
asg33
S'2,3-dimethylpentane'
p4674
sg15
I11260
sg16
F0.6
sg35
F2.52
sg18
(lp4675
g69
asg40
F2.66
sg41
g42
ssS'mobley_9729792'
p4676
(dp4677
g3
S'C1C=CC=CC=C1'
p4678
sg27
g28
sg29
F0.02
sg8
S' cyclohepta-1,3,5-triene'
p4679
sg10
(lp4680
g32
asg33
S'cyclohepta-1,3,5-triene'
p4681
sg15
I11000
sg16
F0.6
sg35
F-0.99
sg18
(lp4682
S'alkene'
p4683
asg40
F0.15
sg41
g42
ssS'mobley_2784376'
p4684
(dp4685
g3
S'C1CC1'
p4686
sg27
g28
sg29
F0.02
sg8
S' cyclopropane'
p4687
sg10
(lp4688
g32
asg33
S'cyclopropane'
p4689
sg15
I6351
sg16
F0.6
sg35
F0.75
sg18
(lp4690
g69
asg40
F2.64
sg41
g42
ssS'mobley_8739734'
p4691
(dp4692
g3
S'CC(C)C(=O)C'
p4693
sg27
g28
sg29
F0.02
sg8
S' 3-methylbutan-2-one'
p4694
sg10
(lp4695
g32
asg33
S'3-methylbutan-2-one'
p4696
sg15
I11251
sg16
F0.6
sg35
F-3.24
sg18
(lp4697
S'ketone'
p4698
asg40
F-2.93
sg41
g42
ssS'mobley_6338073'
p4699
(dp4700
g3
S'CCNc1nc(nc(n1)SC)NC(C)(C)C'
p4701
sg200
g201
sg202
F0.05
sg8
S' terbutryn'
p4702
sg10
(lp4703
g32
aS'Changed IUPAC name from terbutryn to 2-N-tert-butyl-4-N-ethyl-6-(methylsulfanyl)-1,3,5-triazine-2,4-diamine for better handling/standardization.'
p4704
asg205
S'terbutryn'
p4705
sg15
I13450
sg207
F0.42
sg208
F-6.68
sg18
(lp4706
S'thioether'
p4707
aS'secondary amine'
p4708
aS'secondary aliphatic/aromatic amine (alkylarylamine)'
p4709
aS'aromatic'
p4710
aS'heterocyclic'
p4711
asg211
F-7.9
sg212
g213
ssS'mobley_4884177'
p4712
(dp4713
g3
S'CCc1cccnc1'
p4714
sg27
g28
sg29
F0.02
sg8
S' 3-ethylpyridine'
p4715
sg10
(lp4716
g32
asg33
S'3-ethylpyridine'
p4717
sg15
I10823
sg16
F0.6
sg35
F-4.59
sg18
(lp4718
S'aromatic'
p4719
aS'heterocyclic'
p4720
asg40
F-2.96
sg41
g42
ssS'mobley_6081058'
p4721
(dp4722
g3
S'CCCCC/C=C/C=O'
p4723
sg27
g28
sg29
F0.03
sg8
S' oct-2-enal'
p4724
sg10
(lp4725
S'Renamed mobley_6081058 from oct-2-enal to (E)-oct-2-enal (the name from the 3D structure) since the former did not completely specify stereochemistry.\n'
p4726
asg33
S'oct-2-enal'
p4727
sg15
I16900
sg16
F0.6
sg35
F-3.43
sg18
(lp4728
S'aldehyde'
p4729
aS'alkene'
p4730
asg40
F-2.47
sg41
g42
ssS'mobley_9257453'
p4731
(dp4732
g3
S'c1cc(c(cc1O)Cl)Cl'
p4733
sg296
g297
sg298
F0.019
sg8
S' 3,4-dichlorophenol'
p4734
sg10
(lp4735
g32
asg301
S'3,4-dichlorophenol'
p4736
sg15
I7258
sg303
g304
(g308
S'\x9a\x99\x99\x99\x99\x99\xb9?'
p4737
tp4738
Rp4739
sg314
g304
(g308
S')\\\x8f\xc2\xf5(\x1d\xc0'
p4740
tp4741
Rp4742
sg18
(lp4743
S'phenol or hydroxyhetarene'
p4744
aS'aryl chloride'
p4745
aS'aromatic'
p4746
asg322
F-5.32
sg323
g324
ssS'mobley_36119'
p4747
(dp4748
g3
S'CCCCCCCCO'
p4749
sg27
g28
sg29
F0.03
sg8
S' octan-1-ol'
p4750
sg10
(lp4751
g32
asg33
S'octan-1-ol'
p4752
sg15
I957
sg16
F0.6
sg35
F-4.09
sg18
(lp4753
S'primary alcohol'
p4754
asg40
F-2.65
sg41
g42
ssS'mobley_5079234'
p4755
(dp4756
g3
S'CCCCCCCO'
p4757
sg27
g28
sg29
F0.02
sg8
S' heptan-1-ol'
p4758
sg10
(lp4759
g32
asg33
S'heptan-1-ol'
p4760
sg15
I8129
sg16
F0.6
sg35
F-4.21
sg18
(lp4761
S'primary alcohol'
p4762
asg40
F-2.72
sg41
g42
ssS'mobley_2487143'
p4763
(dp4764
g3
S'CCCCC(=O)C'
p4765
sg27
g28
sg29
F0.02
sg8
S' hexan-2-one'
p4766
sg10
(lp4767
g32
asg33
S'hexan-2-one'
p4768
sg15
I11583
sg16
F0.6
sg35
F-3.28
sg18
(lp4769
S'ketone'
p4770
asg40
F-2.77
sg41
g42
ssS'mobley_430089'
p4771
(dp4772
g3
S'CCCC#C'
p4773
sg27
g28
sg29
F0.02
sg8
S' pent-1-yne'
p4774
sg10
(lp4775
g32
asg33
S'pent-1-yne'
p4776
sg15
I12309
sg16
F0.6
sg35
F0.01
sg18
(lp4777
S'alkyne'
p4778
asg40
F0.45
sg41
g42
ssS'mobley_7829570'
p4779
(dp4780
g3
S'CCCC[N@](CC)c1c(cc(cc1[N+](=O)[O-])C(F)(F)F)[N+](=O)[O-]'
p4781
sg200
g201
sg202
F0.04
sg8
S' benefin'
p4782
sg10
(lp4783
g32
aS'Changed IUPAC name from benefin to N-butyl-N-ethyl-2,6-dinitro-4-(trifluoromethyl)aniline for better handling/standardization.'
p4784
asg205
S'N-butyl-N-ethyl-2,6-dinitro-4-(trifluoromethyl)aniline'
p4785
sg15
I2319
sg207
F1.93
sg208
F-3.51
sg18
(lp4786
S'tertiary amine'
p4787
aS'tertiary aliphatic/aromatic amine (alkylarylamine)'
p4788
aS'halogen derivative'
p4789
aS'nitro'
p4790
aS'aromatic'
p4791
asg211
F-2.68
sg212
g213
ssS'mobley_5890803'
p4792
(dp4793
g3
S'CCCOC(=O)CC'
p4794
sg27
g28
sg29
F0.02
sg8
S' propyl propanoate'
p4795
sg10
(lp4796
g32
asg33
S'propyl propanoate'
p4797
sg15
I7803
sg16
F0.6
sg35
F-2.44
sg18
(lp4798
S'carboxylic acid ester'
p4799
asg40
F-2.95
sg41
g42
ssS'mobley_4395315'
p4800
(dp4801
g3
S'Cc1cc(ccc1Cl)O'
p4802
sg27
g28
sg29
F0.03
sg8
S' 4-chloro-3-methyl-phenol'
p4803
sg10
(lp4804
g32
asg33
S'4-chloro-3-methyl-phenol'
p4805
sg15
I1732
sg16
F0.6
sg35
F-6.79
sg18
(lp4806
S'phenol or hydroxyhetarene'
p4807
aS'aryl chloride'
p4808
aS'aromatic'
p4809
asg40
F-4.9
sg41
g42
ssS'mobley_3259411'
p4810
(dp4811
g3
S'C(C(CO)O)O'
p4812
sg477
g478
sg479
F0.06
sg8
S' glycerol'
p4813
sg10
(lp4814
g32
asg482
S'glycerol'
p4815
sg15
I753
sg484
F1.0
sg485
F-13.43
sg18
(lp4816
S'primary alcohol'
p4817
aS'secondary alcohol'
p4818
aS'1,2-diol'
p4819
asg491
F-9.71
sg492
g493
ssS'mobley_766666'
p4820
(dp4821
g3
S'C(=C(Cl)Cl)Cl'
p4822
sg27
g28
sg29
F0.02
sg8
S' 1,1,2-trichloroethylene'
p4823
sg10
(lp4824
g32
asg33
S'1,1,2-trichloroethylene'
p4825
sg15
I6575
sg16
F0.6
sg35
F-0.44
sg18
(lp4826
S'halogen derivative'
p4827
asg40
F0.99
sg41
g42
ssS'mobley_4188615'
p4828
(dp4829
g3
S'CN(C)C(=O)c1ccccc1'
p4830
sg27
g693
sg29
F0.04
sg8
S' N,N-dimethylbenzamide'
p4831
sg10
(lp4832
g32
asg33
S'N,N-dimethylbenzamide'
p4833
sg15
I11916
sg16
F0.6
sg35
F-9.29
sg18
(lp4834
S'tertiary carboxylic acid amide'
p4835
aS'aromatic'
p4836
asg40
F-7.98
sg41
g42
ssS'mobley_3999471'
p4837
(dp4838
g3
S'CC(Cl)Cl'
p4839
sg27
g28
sg29
F0.02
sg8
S' 1,1-dichloroethane'
p4840
sg10
(lp4841
g32
asg33
S'1,1-dichloroethane'
p4842
sg15
I6365
sg16
F0.6
sg35
F-0.84
sg18
(lp4843
S'alkyl chloride'
p4844
asg40
F0.17
sg41
g42
ssS'mobley_5747981'
p4845
(dp4846
g3
S'COCC(OC)(OC)OC'
p4847
sg27
g46
sg29
F0.04
sg8
S' 1,1,1,2-tetramethoxyethane'
p4848
sg10
(lp4849
g32
asg33
S'1,1,1,2-tetramethoxyethane'
p4850
sg15
I141897
sg16
F0.6
sg35
F-5.73
sg18
(lp4851
S'dialkyl ether'
p4852
aS'orthocarboxylic acid derivative'
p4853
aS'orthoester'
p4854
asg40
F-5.97
sg41
g42
ssS'mobley_9671033'
p4855
(dp4856
g3
S'CCC[N+](=O)[O-]'
p4857
sg27
g28
sg29
F0.02
sg8
S' 1-nitropropane'
p4858
sg10
(lp4859
g32
asg33
S'1-nitropropane'
p4860
sg15
I7903
sg16
F0.6
sg35
F-3.34
sg18
(lp4861
S'nitro'
p4862
asg40
F-1.38
sg41
g42
ssS'mobley_525934'
p4863
(dp4864
g3
S'CS'
p4865
sg5
g6
sg7
F0.1
sg8
S' methanethiol'
p4866
sg10
(lp4867
g12
asg13
S'methanethiol'
p4868
sg15
I878
sg16
F0.2
sg17
F-1.2
sg18
(lp4869
S'thiol (sulfanyl)'
p4870
aS'alkylthiol'
p4871
asg21
F-0.2
sg22
g23
ssS'mobley_8578590'
p4872
(dp4873
g3
S'CS(=O)C'
p4874
sg27
S'10.1080/09593338709384509 and 10.1038/313384a0'
p4875
sg29
F0.03
sg8
S' methylsulfinylmethane'
p4876
sg10
(lp4877
g32
aS'Updated 10/22/13 using the mean of experimental data from two sources from J. Peter Guthrie --  Watts & Brimblecombe (1987) and Taft & Abraham et al. (1985). Uncertainty taken as the standard deviation across the two datapoints..\n'
p4878
asg33
S'methylsulfinylmethane'
p4879
sg15
I679
sg16
g304
(g308
S'8\n\xd7\xa3p=\xe2?'
p4880
tp4881
Rp4882
sg35
g304
(g308
S'\x90\xc2\xf5(\\\x8f"\xc0'
p4883
tp4884
Rp4885
sg18
(lp4886
S'sulfoxide'
p4887
asg40
F-8.32
sg41
g42
ssS'mobley_1821184'
p4888
(dp4889
g3
S'Cc1c[nH]c2c1cccc2'
p4890
sg27
g3833
sg29
F0.03
sg8
S' 3-methyl-1H-indole'
p4891
sg10
(lp4892
g32
asg33
S'3-methyl-1H-indole'
p4893
sg15
I6736
sg16
F0.6
sg35
F-5.88
sg18
(lp4894
S'aromatic'
p4895
aS'heterocyclic'
p4896
asg40
F-6.55
sg41
g42
ssS'mobley_6571751'
p4897
(dp4898
g3
S'CC1=CCCCC1'
p4899
sg27
g28
sg29
F0.02
sg8
S' 1-methylcyclohexene'
p4900
sg10
(lp4901
g32
asg33
S'1-methylcyclohexene'
p4902
sg15
I11574
sg16
F0.6
sg35
F0.67
sg18
(lp4903
S'alkene'
p4904
asg40
F1.33
sg41
g42
ssS'mobley_4553008'
p4905
(dp4906
g3
S'c1cc(ccc1Cl)Cl'
p4907
sg27
g28
sg29
F0.02
sg8
S' 1,4-dichlorobenzene'
p4908
sg10
(lp4909
g32
asg33
S'1,4-dichlorobenzene'
p4910
sg15
I4685
sg16
F0.6
sg35
F-1.01
sg18
(lp4911
S'aryl chloride'
p4912
aS'aromatic'
p4913
asg40
F-0.1
sg41
g42
ssS'mobley_5690766'
p4914
(dp4915
g3
S'C=CCCC=C'
p4916
sg27
g28
sg29
F0.02
sg8
S' hexa-1,5-diene'
p4917
sg10
(lp4918
g32
asg33
S'hexa-1,5-diene'
p4919
sg15
I11598
sg16
F0.6
sg35
F1.01
sg18
(lp4920
S'alkene'
p4921
asg40
F2.44
sg41
g42
ssS'mobley_7532833'
p4922
(dp4923
g3
S'CC#N'
p4924
sg27
S'10.1021/jp0264477'
p4925
sg29
F0.01
sg8
S' acetonitrile'
p4926
sg10
(lp4927
g32
asg33
S'acetonitrile'
p4928
sg15
I6342
sg16
F0.6
sg35
F-3.88
sg18
(lp4929
S'carbonitrile'
p4930
asg40
F-2.51
sg41
g42
ssS'mobley_3398536'
p4931
(dp4932
g3
S'c1ccc(cc1)I'
p4933
sg27
g28
sg29
F0.02
sg8
S' iodobenzene'
p4934
sg10
(lp4935
g32
asg33
S'iodobenzene'
p4936
sg15
I11575
sg16
F0.6
sg35
F-1.74
sg18
(lp4937
S'aryl iodide'
p4938
aS'aromatic'
p4939
asg40
F-0.34
sg41
g42
ssS'mobley_3546460'
p4940
(dp4941
g3
S'CCCCCCO'
p4942
sg27
g28
sg29
F0.02
sg8
S' hexan-1-ol'
p4943
sg10
(lp4944
g32
asg33
S'hexan-1-ol'
p4945
sg15
I8103
sg16
F0.6
sg35
F-4.4
sg18
(lp4946
S'primary alcohol'
p4947
asg40
F-3.03
sg41
g42
ssS'mobley_4013838'
p4948
(dp4949
g3
S'CC(C)C(=O)C(C)C'
p4950
sg27
g28
sg29
F0.02
sg8
S' 2,4-dimethylpentan-3-one'
p4951
sg10
(lp4952
g32
asg33
S'2,4-dimethylpentan-3-one'
p4953
sg15
I11271
sg16
F0.6
sg35
F-2.74
sg18
(lp4954
S'ketone'
p4955
asg40
F-2.47
sg41
g42
ssS'mobley_7814642'
p4956
(dp4957
g3
S'c1cc(c(cc1Cl)Cl)Cl'
p4958
sg27
g28
sg29
F0.02
sg8
S' 1,2,4-trichlorobenzene'
p4959
sg10
(lp4960
g32
asg33
S'1,2,4-trichlorobenzene'
p4961
sg15
I13
sg16
F0.6
sg35
F-1.12
sg18
(lp4962
S'aryl chloride'
p4963
aS'aromatic'
p4964
asg40
F-0.18
sg41
g42
ssS'mobley_6727159'
p4965
(dp4966
g3
S'C(CO[N+](=O)[O-])O'
p4967
sg200
g201
sg202
F0.03
sg8
S' 2-(nitrooxy)ethan-1-ol'
p4968
sg10
(lp4969
g32
aS'Changed IUPAC name from ethyleneglycol mononitrate to 2-(nitrooxy)ethan-1-ol for better handling/standardization.'
p4970
asg205
S'2-(nitrooxy)ethan-1-ol'
p4971
sg15
I85254
sg207
F0.1
sg208
F-8.18
sg18
(lp4972
S'primary alcohol'
p4973
aS'nitrate'
p4974
asg211
F-6.5
sg212
g213
ssS'mobley_4639255'
p4975
(dp4976
g3
S'C(CO)O'
p4977
sg27
g28
sg29
F0.03
sg8
S' ethylene glycol'
p4978
sg10
(lp4979
g32
asg33
S'ethylene glycol'
p4980
sg15
I174
sg16
F0.6
sg35
F-9.3
sg18
(lp4981
S'primary alcohol'
p4982
aS'1,2-diol'
p4983
asg40
F-7.62
sg41
g42
ssS'mobley_5006685'
p4984
(dp4985
g3
S'CC(=C)[C@H]1CCC(=CC1)C=O'
p4986
sg296
g297
sg298
F0.02
sg8
S' perillaldehyde'
p4987
sg10
(lp4988
S'Renamed mobley_5006685 from 4-(1-Methylethenyl)-1-cyclohexene-1-carboxaldehyde to (4S)-4-isopropenylcyclohexene-1-carbaldehyde (the name from the 3D structure) since the former did not completely specify stereochemistry.\n'
p4989
asg301
S'4-(1-Methylethenyl)-1-cyclohexene-1-carboxaldehyde'
p4990
sg15
I16441
sg303
g304
(g308
S'\xc3\xf5(\\\x8f\xc2\xc5?'
p4991
tp4992
Rp4993
sg314
g304
(g308
S'\\\x8f\xc2\xf5(\\\x10\xc0'
p4994
tp4995
Rp4996
sg18
(lp4997
S'aldehyde'
p4998
aS'alkene'
p4999
asg322
F-3.61
sg323
g324
ssS'mobley_9565165'
p5000
(dp5001
g3
S'c1ccc-2c(c1)Cc3c2cccc3'
p5002
sg27
g28
sg29
F0.02
sg8
S' 9H-fluorene'
p5003
sg10
(lp5004
g32
asg33
S'9H-fluorene'
p5005
sg15
I6853
sg16
F0.6
sg35
F-3.35
sg18
(lp5006
S'aromatic'
p5007
asg40
F-4.29
sg41
g42
ssS'mobley_2609604'
p5008
(dp5009
g3
S'CCC(C)(C)CC'
p5010
sg27
g28
sg29
F0.03
sg8
S' 3,3-dimethylpentane'
p5011
sg10
(lp5012
g32
asg33
S'3,3-dimethylpentane'
p5013
sg15
I11229
sg16
F0.6
sg35
F2.56
sg18
(lp5014
g69
asg40
F2.53
sg41
g42
ssS'mobley_7455579'
p5015
(dp5016
g3
S'CC(C)COC=O'
p5017
sg27
g28
sg29
F0.02
sg8
S' isobutyl formate'
p5018
sg10
(lp5019
g32
asg33
S'isobutyl formate'
p5020
sg15
I10957
sg16
F0.6
sg35
F-2.22
sg18
(lp5021
S'carboxylic acid ester'
p5022
asg40
F-3.21
sg41
g42
ssS'mobley_9626434'
p5023
(dp5024
g3
S'CCOCCO'
p5025
sg27
g28
sg29
F0.03
sg8
S' 2-ethoxyethanol'
p5026
sg10
(lp5027
g32
asg33
S'2-ethoxyethanol'
p5028
sg15
I8076
sg16
F0.6
sg35
F-6.69
sg18
(lp5029
S'primary alcohol'
p5030
aS'dialkyl ether'
p5031
asg40
F-4.77
sg41
g42
ssS'mobley_4587267'
p5032
(dp5033
g3
S'C([C@H]([C@H]([C@@H]([C@@H](CO)O)O)O)O)O'
p5034
sg296
g297
sg298
F0.043
sg8
S' mannitol'
p5035
sg10
(lp5036
g32
asg301
S'(2R,3R,4R,5R)-Hexan-1,2,3,4,5,6-hexol'
p5037
sg15
I6251
sg303
g304
(g308
S'{\x14\xaeG\xe1z\xd4?'
p5038
tp5039
Rp5040
sg314
g304
(g308
S'\x1f\x85\xebQ\xb8\x9e7\xc0'
p5041
tp5042
Rp5043
sg18
(lp5044
S'primary alcohol'
p5045
aS'secondary alcohol'
p5046
aS'1,2-diol'
p5047
asg322
F-18.64
sg323
g324
ssS'mobley_172879'
p5048
(dp5049
g3
S'c1ccc2c(c1)Oc3ccccc3O2'
p5050
sg235
g236
sg237
F0.02
sg8
S' dibenzo-p-dioxin'
p5051
sg10
(lp5052
g32
asg240
S'dibenzo-p-dioxin'
p5053
sg15
I9216
sg242
F0.1
sg243
F-3.15
sg18
(lp5054
S'diaryl ether'
p5055
aS'aromatic'
p5056
aS'heterocyclic'
p5057
asg246
F-4.8
sg247
g248
ssS'mobley_2457863'
p5058
(dp5059
g3
S'COc1cccc(c1)O'
p5060
sg27
g28
sg29
F0.03
sg8
S' 3-methoxyphenol'
p5061
sg10
(lp5062
g32
asg33
S'3-methoxyphenol'
p5063
sg15
I9007
sg16
F0.6
sg35
F-7.66
sg18
(lp5064
S'phenol or hydroxyhetarene'
p5065
aS'alkyl aryl ether'
p5066
aS'aromatic'
p5067
asg40
F-7.03
sg41
g42
ssS'mobley_2143011'
p5068
(dp5069
g3
S'CC(C)C=C'
p5070
sg27
g4925
sg29
F0.02
sg8
S' 3-methylbut-1-ene'
p5071
sg10
(lp5072
g32
asg33
S'3-methylbut-1-ene'
p5073
sg15
I11239
sg16
F0.6
sg35
F1.83
sg18
(lp5074
S'alkene'
p5075
asg40
F2.8
sg41
g42
ssS'mobley_2837389'
p5076
(dp5077
g3
S'c1cc[nH]c1'
p5078
sg27
g28
sg29
F0.02
sg8
S' pyrrole'
p5079
sg10
(lp5080
g32
asg33
S'pyrrole'
p5081
sg15
I8027
sg16
F0.6
sg35
F-4.78
sg18
(lp5082
S'aromatic'
p5083
aS'heterocyclic'
p5084
asg40
F-3.87
sg41
g42
ssS'mobley_8789465'
p5085
(dp5086
g3
S'c1ccc(c(c1)O)I'
p5087
sg27
g28
sg29
F0.03
sg8
S' 2-iodophenol'
p5088
sg10
(lp5089
g32
asg33
S'2-iodophenol'
p5090
sg15
I10784
sg16
F0.6
sg35
F-6.2
sg18
(lp5091
S'phenol or hydroxyhetarene'
p5092
aS'aryl iodide'
p5093
aS'aromatic'
p5094
asg40
F-2.91
sg41
g42
ssS'mobley_2859600'
p5095
(dp5096
g3
S'C=Cc1ccccc1'
p5097
sg27
g28
sg29
F0.02
sg8
S' styrene'
p5098
sg10
(lp5099
g32
asg33
S'styrene'
p5100
sg15
I7501
sg16
F0.6
sg35
F-1.24
sg18
(lp5101
S'alkene'
p5102
aS'aromatic'
p5103
asg40
F-1.32
sg41
g42
ssS'mobley_1855337'
p5104
(dp5105
g3
S'c1c(cc(c(c1Cl)Cl)Cl)Cl'
p5106
sg27
g28
sg29
F0.02
sg8
S' 1,2,3,5-tetrachlorobenzene'
p5107
sg10
(lp5108
g32
asg33
S'1,2,3,5-tetrachlorobenzene'
p5109
sg15
I12468
sg16
F0.6
sg35
F-1.62
sg18
(lp5110
S'aryl chloride'
p5111
aS'aromatic'
p5112
asg40
F-0.02
sg41
g42
ssS'mobley_9740891'
p5113
(dp5114
g3
S'c1cc(c(c(c1)Cl)C#N)Cl'
p5115
sg200
g201
sg202
F0.02
sg8
S' dichlobenil'
p5116
sg10
(lp5117
g32
asg205
S'dichlobenil'
p5118
sg15
I3031
sg207
F1.93
sg208
F-4.71
sg18
(lp5119
S'aryl chloride'
p5120
aS'carbonitrile'
p5121
aS'aromatic'
p5122
asg211
F-2.57
sg212
g213
ssS'mobley_7608462'
p5123
(dp5124
g3
S'c1ccc(cc1)Cl'
p5125
sg27
g28
sg29
F0.02
sg8
S' chlorobenzene'
p5126
sg10
(lp5127
g32
asg33
S'chlorobenzene'
p5128
sg15
I7964
sg16
F0.6
sg35
F-1.12
sg18
(lp5129
S'aryl chloride'
p5130
aS'aromatic'
p5131
asg40
F-0.6
sg41
g42
ssS'mobley_8221999'
p5132
(dp5133
g3
S'CCCC#N'
p5134
sg27
g28
sg29
F0.02
sg8
S' butanenitrile'
p5135
sg10
(lp5136
g32
asg33
S'butanenitrile'
p5137
sg15
I8008
sg16
F0.6
sg35
F-3.64
sg18
(lp5138
S'carbonitrile'
p5139
asg40
F-2.23
sg41
g42
ssS'mobley_4762983'
p5140
(dp5141
g3
S'CCCCCC=C'
p5142
sg27
g28
sg29
F0.02
sg8
S' hept-1-ene'
p5143
sg10
(lp5144
g32
asg33
S'hept-1-ene'
p5145
sg15
I11610
sg16
F0.6
sg35
F1.66
sg18
(lp5146
S'alkene'
p5147
asg40
F2.97
sg41
g42
ssS'mobley_2279874'
p5148
(dp5149
g3
S'COC(OC)OC'
p5150
sg27
g1559
sg29
F0.03
sg8
S' trimethoxymethane'
p5151
sg10
(lp5152
g32
asg33
S'trimethoxymethane'
p5153
sg15
I9005
sg16
F0.6
sg35
F-4.42
sg18
(lp5154
S'orthocarboxylic acid derivative'
p5155
aS'orthoester'
p5156
asg40
F-4.06
sg41
g42
ssS'mobley_3663158'
p5157
(dp5158
g3
S'c1ccc2cc(ccc2c1)O'
p5159
sg27
g28
sg29
F0.03
sg8
S' naphthalen-2-ol'
p5160
sg10
(lp5161
g32
asg33
S'naphthalen-2-ol'
p5162
sg15
I8663
sg16
F0.6
sg35
F-8.11
sg18
(lp5163
S'phenol or hydroxyhetarene'
p5164
aS'aromatic'
p5165
asg40
F-7.88
sg41
g42
ssS'mobley_8764620'
p5166
(dp5167
g3
S'c1cc(cnc1)C#N'
p5168
sg27
g28
sg29
F0.02
sg8
S' pyridine-3-carbonitrile'
p5169
sg10
(lp5170
g32
asg33
S'pyridine-3-carbonitrile'
p5171
sg15
I79
sg16
F0.6
sg35
F-6.75
sg18
(lp5172
S'carbonitrile'
p5173
aS'aromatic'
p5174
aS'heterocyclic'
p5175
asg40
F-4.63
sg41
g42
ssS'mobley_820789'
p5176
(dp5177
g3
S'CCCC(=O)O'
p5178
sg27
g28
sg29
F0.03
sg8
S' butyric acid'
p5179
sg10
(lp5180
g32
asg33
S'butyric acid'
p5181
sg15
I264
sg16
F0.6
sg35
F-6.35
sg18
(lp5182
S'carboxylic acid'
p5183
asg40
F-5.46
sg41
g42
ssS'mobley_6978427'
p5184
(dp5185
g3
S'COC(=O)C1CCCCC1'
p5186
sg27
g28
sg29
F0.02
sg8
S' methyl cyclohexanecarboxylate'
p5187
sg10
(lp5188
g32
asg33
S'methyl cyclohexanecarboxylate'
p5189
sg15
I20748
sg16
F0.6
sg35
F-3.3
sg18
(lp5190
S'carboxylic acid ester'
p5191
asg40
F-4.29
sg41
g42
ssS'mobley_6739648'
p5192
(dp5193
g3
S'C1COCCO1'
p5194
sg27
g28
sg29
F0.02
sg8
S' 1,4-dioxane'
p5195
sg10
(lp5196
g32
asg33
S'1,4-dioxane'
p5197
sg15
I31275
sg16
F0.6
sg35
F-5.06
sg18
(lp5198
S'dialkyl ether'
p5199
aS'heterocyclic'
p5200
asg40
F-4.35
sg41
g42
ssS'mobley_1800170'
p5201
(dp5202
g3
S'CCS'
p5203
sg27
g28
sg29
F0.02
sg8
S' ethanethiol'
p5204
sg10
(lp5205
g32
asg33
S'ethanethiol'
p5206
sg15
I6343
sg16
F0.6
sg35
F-1.14
sg18
(lp5207
S'thiol (sulfanyl)'
p5208
aS'alkylthiol'
p5209
asg40
F-0.4
sg41
g42
ssS'mobley_1046331'
p5210
(dp5211
g3
S'c1ccc(cc1)OC=O'
p5212
sg27
g1586
sg29
F0.02
sg8
S' phenyl formate'
p5213
sg10
(lp5214
g32
asg33
S'phenyl formate'
p5215
sg15
I74626
sg16
F0.6
sg35
F-3.82
sg18
(lp5216
S'carboxylic acid ester'
p5217
aS'aromatic'
p5218
asg40
F-4.83
sg41
g42
ssS'mobley_9821936'
p5219
(dp5220
g3
S'c12c(c(c(c(c1Cl)Cl)Cl)Cl)Oc3c(c(c(c(c3Cl)Cl)Cl)Cl)O2'
p5221
sg235
g236
sg237
F0.04
sg8
S' octachlorodibenzo-p-dioxin'
p5222
sg10
(lp5223
g32
asg240
S'1,2,3,4,6,7,8,9-octachlorodibenzo-p-dioxin'
p5224
sg15
I18636
sg242
F1.0
sg243
F-4.53
sg18
(lp5225
S'diaryl ether'
p5226
aS'aryl chloride'
p5227
aS'aromatic'
p5228
aS'heterocyclic'
p5229
asg246
F-1.15
sg247
g248
ssS'mobley_8311303'
p5230
(dp5231
g3
S'c1cc(c(cc1c2c(c(cc(c2Cl)Cl)Cl)Cl)Cl)Cl'
p5232
sg235
g236
sg237
F0.04
sg8
S" 2,3,3',4',5,6-Hexachlorobiphenyl"
p5233
sg10
(lp5234
g32
asg240
S'1,2,4,5-tetrachloro-3-(3,4-dichlorophenyl)benzene'
p5235
sg15
I63079
sg242
F0.22
sg243
F-4.38
sg18
(lp5236
S'aryl chloride'
p5237
aS'aromatic'
p5238
asg246
F-0.7
sg247
g248
ssS'mobley_4483973'
p5239
(dp5240
g3
S'c1ccc(cc1)F'
p5241
sg27
g28
sg29
F0.02
sg8
S' fluorobenzene'
p5242
sg10
(lp5243
g32
asg33
S'fluorobenzene'
p5244
sg15
I10008
sg16
F0.6
sg35
F-0.8
sg18
(lp5245
S'aryl fluoride'
p5246
aS'aromatic'
p5247
asg40
F-0.07
sg41
g42
ssS'mobley_4845722'
p5248
(dp5249
g3
S'c1(c(c(c(c(c1Cl)Cl)Cl)Cl)Cl)Cl'
p5250
sg477
g478
sg479
F0.04
sg8
S' hexachlorobenzene'
p5251
sg10
(lp5252
g32
asg482
S'hexachlorobenzene'
p5253
sg15
I8370
sg484
F1.16
sg485
F-2.33
sg18
(lp5254
S'aryl chloride'
p5255
aS'aromatic'
p5256
asg491
F0.24
sg492
g493
ssS'mobley_2294995'
p5257
(dp5258
g3
S'CCOC=O'
p5259
sg27
g28
sg29
F0.02
sg8
S' ethyl formate'
p5260
sg10
(lp5261
g32
asg33
S'ethyl formate'
p5262
sg15
I8025
sg16
F0.6
sg35
F-2.56
sg18
(lp5263
S'carboxylic acid ester'
p5264
asg40
F-2.99
sg41
g42
ssS'mobley_303222'
p5265
(dp5266
g3
S'CC=C'
p5267
sg27
g28
sg29
F0.02
sg8
S' prop-1-ene'
p5268
sg10
(lp5269
g32
asg33
S'prop-1-ene'
p5270
sg15
I8252
sg16
F0.6
sg35
F1.32
sg18
(lp5271
S'alkene'
p5272
asg40
F2.44
sg41
g42
ssS'mobley_1563176'
p5273
(dp5274
g3
S'CCCCS'
p5275
sg27
g28
sg29
F0.02
sg8
S' butane-1-thiol'
p5276
sg10
(lp5277
g32
asg33
S'butane-1-thiol'
p5278
sg15
I8012
sg16
F0.6
sg35
F-0.99
sg18
(lp5279
S'thiol (sulfanyl)'
p5280
aS'alkylthiol'
p5281
asg40
F-0.12
sg41
g42
ssS'mobley_4375719'
p5282
(dp5283
g3
S'CCCCCCCCC'
p5284
sg27
g28
sg29
F0.03
sg8
S' nonane'
p5285
sg10
(lp5286
g32
asg33
S'nonane'
p5287
sg15
I8141
sg16
F0.6
sg35
F3.13
sg18
(lp5288
g69
asg40
F3.32
sg41
g42
ssS'mobley_8117218'
p5289
(dp5290
g3
S'C1[C@@H]2[C@H]3[C@@H]([C@H]1[C@H]4[C@@H]2O4)[C@@]5(C(=C([C@]3(C5(Cl)Cl)Cl)Cl)Cl)Cl'
p5291
sg200
g201
sg202
F0.07
sg8
S' endrin'
p5292
sg10
(lp5293
g32
asg205
S'endrin'
p5294
sg15
I3048
sg207
F0.1
sg208
F-4.82
sg18
(lp5295
S'dialkyl ether'
p5296
aS'alkyl chloride'
p5297
aS'alkene'
p5298
aS'heterocyclic'
p5299
asg211
F-4.77
sg212
g213
ssS'mobley_8765203'
p5300
(dp5301
g3
S'CC(=C)C=C'
p5302
sg27
g28
sg29
F0.02
sg8
S' isoprene'
p5303
sg10
(lp5304
g32
asg33
S'isoprene'
p5305
sg15
I6557
sg16
F0.6
sg35
F0.68
sg18
(lp5306
S'alkene'
p5307
asg40
F1.81
sg41
g42
ssS'mobley_1278715'
p5308
(dp5309
g3
S'C(C(Cl)(Cl)Cl)(Cl)(Cl)Cl'
p5310
sg477
g478
sg479
F0.04
sg8
S' hexachloroethane'
p5311
sg10
(lp5312
g32
asg482
S'hexachloroethane'
p5313
sg15
I6214
sg484
F0.1
sg485
F-0.64
sg18
(lp5314
S'halogen derivative'
p5315
asg491
F1.0
sg492
g493
ssS'mobley_2269032'
p5316
(dp5317
g3
S'C[C@@H](c1ccc2cc(ccc2c1)OC)C(=O)O'
p5318
sg477
g478
sg479
F0.1
sg8
S' naproxen'
p5319
sg10
(lp5320
g32
asg482
S'naproxen'
p5321
sg15
I156391
sg484
F0.18
sg485
F-10.21
sg18
(lp5322
S'alkyl aryl ether'
p5323
aS'carboxylic acid'
p5324
aS'aromatic'
p5325
asg491
F-10.8
sg492
g493
ssS'mobley_929676'
p5326
(dp5327
g3
S'CCCCCCBr'
p5328
sg27
g28
sg29
F0.02
sg8
S' 1-bromohexane'
p5329
sg10
(lp5330
g32
asg33
S'1-bromohexane'
p5331
sg15
I8101
sg16
F0.6
sg35
F0.18
sg18
(lp5332
S'alkyl bromide'
p5333
asg40
F1.78
sg41
g42
ssS'mobley_1328465'
p5334
(dp5335
g3
S'C(C(Cl)Cl)Cl'
p5336
sg27
g28
sg29
F0.03
sg8
S' 1,1,2-trichloroethane'
p5337
sg10
(lp5338
g32
asg33
S'1,1,2-trichloroethane'
p5339
sg15
I6574
sg16
F0.6
sg35
F-1.99
sg18
(lp5340
S'alkyl chloride'
p5341
asg40
F-0.5
sg41
g42
ssS'mobley_296847'
p5342
(dp5343
g3
S'c1ccncc1'
p5344
sg27
g28
sg29
F0.02
sg8
S' pyridine'
p5345
sg10
(lp5346
g32
asg33
S'pyridine'
p5347
sg15
I1049
sg16
F0.6
sg35
F-4.69
sg18
(lp5348
S'aromatic'
p5349
aS'heterocyclic'
p5350
asg40
F-3.45
sg41
g42
ssS'mobley_4983965'
p5351
(dp5352
g3
S'CCSCC'
p5353
sg27
g28
sg29
F0.02
sg8
S' ethylsulfanylethane'
p5354
sg10
(lp5355
g32
asg33
S'ethylsulfanylethane'
p5356
sg15
I9609
sg16
F0.6
sg35
F-1.46
sg18
(lp5357
S'thioether'
p5358
asg40
F0.21
sg41
g42
ssS'mobley_6082662'
p5359
(dp5360
g3
S'c1cc(ccc1N)N(=O)=O'
p5361
sg477
g478
sg479
F0.05
sg8
S' 4-nitroaniline'
p5362
sg10
(lp5363
g32
asg482
S'4-nitroaniline'
p5364
sg15
I7475
sg484
F0.1
sg485
F-9.82
sg18
(lp5365
S'primary amine'
p5366
aS'primary aromatic amine'
p5367
aS'nitro'
p5368
aS'aromatic'
p5369
asg491
F-10.38
sg492
g493
ssS'mobley_7859387'
p5370
(dp5371
g3
S'CCCCCCC=O'
p5372
sg27
g28
sg29
F0.03
sg8
S' heptanal'
p5373
sg10
(lp5374
g32
asg33
S'heptanal'
p5375
sg15
I8130
sg16
F0.6
sg35
F-2.67
sg18
(lp5376
S'aldehyde'
p5377
asg40
F-2.63
sg41
g42
ssS'mobley_7360181'
p5378
(dp5379
g3
S'COC(C(F)(F)F)(OC)OC'
p5380
sg477
g478
sg479
F0.05
sg8
S' 1,1,1-trifluoro-2,2,2-trimethoxyethane'
p5381
sg10
(lp5382
g32
aS'Changed IUPAC name from trimethyl orthotrifluoroacetate to 1,1,1-trifluoro-2,2,2-trimethoxyethane for better handling/standardization.'
p5383
asg482
S'1,1,1-trifluoro-2,2,2-trimethoxyethane'
p5384
sg15
I18927701
sg484
F0.2
sg485
F-0.8
sg18
(lp5385
S'halogen derivative'
p5386
aS'orthocarboxylic acid derivative'
p5387
aS'orthoester'
p5388
asg491
F-2.37
sg492
g493
ssS'mobley_2923700'
p5389
(dp5390
g3
S'CCc1ccc(cc1)O'
p5391
sg27
g28
sg29
F0.03
sg8
S' 4-ethylphenol'
p5392
sg10
(lp5393
g32
asg33
S'4-ethylphenol'
p5394
sg15
I31242
sg16
F0.6
sg35
F-6.13
sg18
(lp5395
S'phenol or hydroxyhetarene'
p5396
aS'aromatic'
p5397
asg40
F-5.08
sg41
g42
ssS'mobley_2123854'
p5398
(dp5399
g3
S'c1cc(ccc1C#N)O'
p5400
sg27
g28
sg29
F0.03
sg8
S' 4-hydroxybenzonitrile'
p5401
sg10
(lp5402
g32
asg33
S'4-hydroxybenzonitrile'
p5403
sg15
I13019
sg16
F0.6
sg35
F-10.17
sg18
(lp5404
S'phenol or hydroxyhetarene'
p5405
aS'carbonitrile'
p5406
aS'aromatic'
p5407
asg40
F-7.24
sg41
g42
ssS'mobley_3589456'
p5408
(dp5409
g3
S'COC(CCl)(OC)OC'
p5410
sg27
g46
sg29
F0.04
sg8
S' 2-chloro-1,1,1-trimethoxy-ethane'
p5411
sg10
(lp5412
g32
asg33
S'2-chloro-1,1,1-trimethoxy-ethane'
p5413
sg15
I144702
sg16
F0.6
sg35
F-4.59
sg18
(lp5414
S'alkyl chloride'
p5415
aS'orthocarboxylic acid derivative'
p5416
aS'orthoester'
p5417
asg40
F-3.3
sg41
g42
ssS'mobley_2078467'
p5418
(dp5419
g3
S'C[C@@H](c1ccc(cc1)CC(C)C)C(=O)O'
p5420
sg477
g478
sg479
F0.07
sg8
S' ibuprofen'
p5421
sg10
(lp5422
g32
asg482
S'ibuprofen'
p5423
sg15
I3672
sg484
F0.64
sg485
F-7.0
sg18
(lp5424
S'carboxylic acid'
p5425
aS'aromatic'
p5426
asg491
F-6.91
sg492
g493
ssS'mobley_3265457'
p5427
(dp5428
g3
S'COc1cc(c(c(c1O)OC)Cl)C=O'
p5429
sg296
g297
sg298
F0.025
sg8
S' 2-chlorosyringaldehyde'
p5430
sg10
(lp5431
g32
asg301
S'2-chlorosyringaldehyde'
p5432
sg15
I53479
sg303
g304
(g308
S'\xa4p=\n\xd7\xa3\xe8?'
p5433
tp5434
Rp5435
sg314
g304
(g308
S'\x1f\x85\xebQ\xb8\x1e\x1f\xc0'
p5436
tp5437
Rp5438
sg18
(lp5439
S'aldehyde'
p5440
aS'phenol or hydroxyhetarene'
p5441
aS'alkyl aryl ether'
p5442
aS'aryl chloride'
p5443
aS'aromatic'
p5444
asg322
F-9.23
sg323
g324
ssS'mobley_9028462'
p5445
(dp5446
g3
S'COC(=O)C(F)(F)F'
p5447
sg27
S'10.1139/v76-032'
p5448
sg29
F0.02
sg8
S' methyl 2,2,2-trifluoroacetate'
p5449
sg10
(lp5450
g32
asg33
S'methyl 2,2,2-trifluoroacetate'
p5451
sg15
I9893
sg16
F0.6
sg35
F-1.1
sg18
(lp5452
S'halogen derivative'
p5453
aS'carboxylic acid ester'
p5454
asg40
F-1.39
sg41
g42
ssS'mobley_1722522'
p5455
(dp5456
g3
S'CCCC(=O)OCC'
p5457
sg27
g28
sg29
F0.02
sg8
S' ethyl butanoate'
p5458
sg10
(lp5459
g32
asg33
S'ethyl butanoate'
p5460
sg15
I7762
sg16
F0.6
sg35
F-2.49
sg18
(lp5461
S'carboxylic acid ester'
p5462
asg40
F-3.04
sg41
g42
ssS'mobley_7735340'
p5463
(dp5464
g3
S'c1cnc[nH]1'
p5465
sg27
g28
sg29
F0.03
sg8
S' imidazole'
p5466
sg10
(lp5467
g32
asg33
S'imidazole'
p5468
sg15
I795
sg16
F0.6
sg35
F-9.63
sg18
(lp5469
S'aromatic'
p5470
aS'heterocyclic'
p5471
asg40
F-7.85
sg41
g42
ssS'mobley_5948990'
p5472
(dp5473
g3
S'c1ccc(c(c1)N)[N+](=O)[O-]'
p5474
sg27
g28
sg29
F0.03
sg8
S' 2-nitroaniline'
p5475
sg10
(lp5476
g32
asg33
S'2-nitroaniline'
p5477
sg15
I6946
sg16
F0.6
sg35
F-7.37
sg18
(lp5478
S'primary amine'
p5479
aS'primary aromatic amine'
p5480
aS'nitro'
p5481
aS'aromatic'
p5482
asg40
F-7.96
sg41
g42
ssS'mobley_3452749'
p5483
(dp5484
g3
S'Cc1cccc(c1C)C'
p5485
sg27
g28
sg29
F0.02
sg8
S' 1,2,3-trimethylbenzene'
p5486
sg10
(lp5487
g32
asg33
S'1,2,3-trimethylbenzene'
p5488
sg15
I10686
sg16
F0.6
sg35
F-1.21
sg18
(lp5489
S'aromatic'
p5490
asg40
F-0.65
sg41
g42
ssS'mobley_9414831'
p5491
(dp5492
g3
S'Cc1cccc2c1cccc2'
p5493
sg27
g28
sg29
F0.02
sg8
S' 1-methylnaphthalene'
p5494
sg10
(lp5495
g32
asg33
S'1-methylnaphthalene'
p5496
sg15
I7002
sg16
F0.6
sg35
F-2.44
sg18
(lp5497
S'aromatic'
p5498
asg40
F-3.24
sg41
g42
ssS'mobley_7599023'
p5499
(dp5500
g3
S'c1ccc(cc1)Br'
p5501
sg27
g28
sg29
F0.02
sg8
S' bromobenzene'
p5502
sg10
(lp5503
g32
asg33
S'bromobenzene'
p5504
sg15
I7961
sg16
F0.6
sg35
F-1.46
sg18
(lp5505
S'aryl bromide'
p5506
aS'aromatic'
p5507
asg40
F-0.37
sg41
g42
ssS'mobley_9557440'
p5508
(dp5509
g3
S'c1c(c(=O)[nH]c(=O)[nH]1)Cl'
p5510
sg477
g478
sg479
F0.06
sg8
S' 5-chlorouracil'
p5511
sg10
(lp5512
g32
asg482
S'5-chlorouracil'
p5513
sg15
I15758
sg484
F0.78
sg485
F-17.74
sg18
(lp5514
S'aryl chloride'
p5515
aS'oxo(het)arene'
p5516
aS'aromatic'
p5517
aS'heterocyclic'
p5518
asg491
F-16.7
sg492
g493
ssS'mobley_6474572'
p5519
(dp5520
g3
S'C=CCl'
p5521
sg27
g28
sg29
F0.02
sg8
S' chloroethylene'
p5522
sg10
(lp5523
g32
asg33
S'chloroethylene'
p5524
sg15
I6338
sg16
F0.6
sg35
F-0.59
sg18
(lp5525
S'halogen derivative'
p5526
aS'alkene'
p5527
asg40
F1.22
sg41
g42
ssS'mobley_6988468'
p5528
(dp5529
g3
S'CCc1ccccn1'
p5530
sg27
g28
sg29
F0.02
sg8
S' 2-ethylpyridine'
p5531
sg10
(lp5532
g32
asg33
S'2-ethylpyridine'
p5533
sg15
I7523
sg16
F0.6
sg35
F-4.33
sg18
(lp5534
S'aromatic'
p5535
aS'heterocyclic'
p5536
asg40
F-3.21
sg41
g42
ssS'mobley_7150646'
p5537
(dp5538
g3
S'c1cc(ccc1Br)Br'
p5539
sg27
g28
sg29
F0.02
sg8
S' 1,4-dibromobenzene'
p5540
sg10
(lp5541
g32
asg33
S'1,4-dibromobenzene'
p5542
sg15
I7804
sg16
F0.6
sg35
F-2.3
sg18
(lp5543
S'aryl bromide'
p5544
aS'aromatic'
p5545
asg40
F-0.01
sg41
g42
ssS'mobley_3425174'
p5546
(dp5547
g3
S'C(F)Cl'
p5548
sg27
g28
sg29
F0.01
sg8
S' chloro-fluoro-methane'
p5549
sg10
(lp5550
g32
asg33
S'chloro-fluoro-methane'
p5551
sg15
I11643
sg16
F0.6
sg35
F-0.77
sg18
(lp5552
S'alkyl fluoride'
p5553
aS'alkyl chloride'
p5554
asg40
F-0.22
sg41
g42
ssS'mobley_6688723'
p5555
(dp5556
g3
S'COc1c(cc(c(c1O)OC)Cl)Cl'
p5557
sg296
g297
sg298
F0.023
sg8
S' 3,5-Dichlorosyringol'
p5558
sg10
(lp5559
g32
asg301
S'3,5-dichloro-2,6-dimethoxyphenol'
p5560
sg15
I93462
sg303
g304
(g308
S'R\xb8\x1e\x85\xebQ\xd8?'
p5561
tp5562
Rp5563
sg314
F-6.44
sg18
(lp5564
S'phenol or hydroxyhetarene'
p5565
aS'alkyl aryl ether'
p5566
aS'aryl chloride'
p5567
aS'aromatic'
p5568
asg322
F-6.13
sg323
g324
ssS'mobley_4252724'
p5569
(dp5570
g3
S'CC(C)Cc1ccccc1'
p5571
sg27
g28
sg29
F0.02
sg8
S' isobutylbenzene'
p5572
sg10
(lp5573
g32
asg33
S'isobutylbenzene'
p5574
sg15
I10870
sg16
F0.6
sg35
F0.16
sg18
(lp5575
S'aromatic'
p5576
asg40
F0.0
sg41
g42
ssS'mobley_8983100'
p5577
(dp5578
g3
S'CBr'
p5579
sg27
g28
sg29
F0.01
sg8
S' bromomethane'
p5580
sg10
(lp5581
g32
asg33
S'bromomethane'
p5582
sg15
I6323
sg16
F0.6
sg35
F-0.82
sg18
(lp5583
S'alkyl bromide'
p5584
asg40
F1.09
sg41
g42
ssS'mobley_1952272'
p5585
(dp5586
g3
S'C[N+](=O)[O-]'
p5587
sg27
g28
sg29
F0.01
sg8
S' nitromethane'
p5588
sg10
(lp5589
g32
asg33
S'nitromethane'
p5590
sg15
I6375
sg16
F0.6
sg35
F-4.02
sg18
(lp5591
S'nitro'
p5592
asg40
F-2.03
sg41
g42
ssS'mobley_9007496'
p5593
(dp5594
g3
S'CNC(=O)Oc1cccc2c1cccc2'
p5595
sg200
g201
sg202
F0.04
sg8
S' carbaryl'
p5596
sg10
(lp5597
g32
aS'Changed IUPAC name from carbaryl to naphthalen-1-yl N-methylcarbamate for better handling/standardization.'
p5598
asg205
S'naphthalen-1-yl N-methylcarbamate'
p5599
sg15
I6129
sg207
F0.1
sg208
F-9.45
sg18
(lp5600
S'carbamic acid ester (urethane)'
p5601
aS'aromatic'
p5602
asg211
F-10.92
sg212
g213
ssS'mobley_8124669'
p5603
(dp5604
g3
S'CCc1cccc(c1N(COC)C(=O)CCl)CC'
p5605
sg200
g201
sg202
F0.05
sg8
S' alachlor'
p5606
sg10
(lp5607
g32
asg205
S'alachlor'
p5608
sg15
I2078
sg207
F0.29
sg208
F-8.21
sg18
(lp5609
S'hemiaminal'
p5610
aS'alkyl chloride'
p5611
aS'tertiary carboxylic acid amide'
p5612
aS'aromatic'
p5613
asg211
F-7.28
sg212
g213
ssS'mobley_1728386'
p5614
(dp5615
g3
S'c1ccc(cc1)C(=O)N'
p5616
sg5
g6
sg7
F0.1
sg8
S' benzamide'
p5617
sg10
(lp5618
g12
asg13
S'benzamide'
p5619
sg15
I2331
sg16
F0.2
sg17
F-11.0
sg18
(lp5620
S'primary carboxylic acid amide'
p5621
aS'aromatic'
p5622
asg21
F-9.9
sg22
g23
ssS'mobley_9100956'
p5623
(dp5624
g3
S'CC1CCCCC1'
p5625
sg27
g28
sg29
F0.02
sg8
S' methylcyclohexane'
p5626
sg10
(lp5627
g32
asg33
S'methylcyclohexane'
p5628
sg15
I7962
sg16
F0.6
sg35
F1.7
sg18
(lp5629
g69
asg40
F1.82
sg41
g42
ssS'mobley_7768165'
p5630
(dp5631
g3
S'C(CBr)Cl'
p5632
sg27
g28
sg29
F0.02
sg8
S' 1-bromo-2-chloro-ethane'
p5633
sg10
(lp5634
g32
asg33
S'1-bromo-2-chloro-ethane'
p5635
sg15
I7849
sg16
F0.6
sg35
F-1.95
sg18
(lp5636
S'alkyl chloride'
p5637
aS'alkyl bromide'
p5638
asg40
F0.02
sg41
g42
ssS'mobley_664966'
p5639
(dp5640
g3
S'C(I)I'
p5641
sg27
g28
sg29
F0.02
sg8
S' diiodomethane'
p5642
sg10
(lp5643
g32
asg33
S'diiodomethane'
p5644
sg15
I6346
sg16
F0.6
sg35
F-2.49
sg18
(lp5645
S'alkyl iodide'
p5646
asg40
F-0.74
sg41
g42
ssS'mobley_852937'
p5647
(dp5648
g3
S'c1cc(ccc1O)F'
p5649
sg27
g28
sg29
F0.03
sg8
S' 4-fluorophenol'
p5650
sg10
(lp5651
g32
asg33
S'4-fluorophenol'
p5652
sg15
I9732
sg16
F0.6
sg35
F-6.19
sg18
(lp5653
S'phenol or hydroxyhetarene'
p5654
aS'aryl fluoride'
p5655
aS'aromatic'
p5656
asg40
F-4.99
sg41
g42
ssS'mobley_8789864'
p5657
(dp5658
g3
S'COC(CC#N)(OC)OC'
p5659
sg27
g46
sg29
F0.04
sg8
S' 3,3,3-trimethoxypropanenitrile'
p5660
sg10
(lp5661
g32
asg33
S'3,3,3-trimethoxypropanenitrile'
p5662
sg15
I144381
sg16
F0.6
sg35
F-6.4
sg18
(lp5663
S'carbonitrile'
p5664
aS'orthocarboxylic acid derivative'
p5665
aS'orthoester'
p5666
asg40
F-5.74
sg41
g42
ssS'mobley_7364468'
p5667
(dp5668
g3
S'CC1=CC(=O)CC(C1)(C)C'
p5669
sg200
g201
sg202
F0.03
sg8
S' 3,5,5-trimethylcyclohex-2-en-1-one'
p5670
sg10
(lp5671
g32
aS'Changed IUPAC name from isophorone to 3,5,5-trimethylcyclohex-2-en-1-one for better handling/standardization.'
p5672
asg205
S'3,5,5-trimethylcyclohex-2-en-1-one'
p5673
sg15
I6544
sg207
F1.37
sg208
F-5.18
sg18
(lp5674
S'ketone'
p5675
aS'alkene'
p5676
asg211
F-3.82
sg212
g213
ssS'mobley_3414356'
p5677
(dp5678
g3
S'CCCC(C)(C)O'
p5679
sg27
g28
sg29
F0.02
sg8
S' 2-methylpentan-2-ol'
p5680
sg10
(lp5681
g32
asg33
S'2-methylpentan-2-ol'
p5682
sg15
I11543
sg16
F0.6
sg35
F-3.92
sg18
(lp5683
S'tertiary alcohol'
p5684
asg40
F-2.79
sg41
g42
ssS'mobley_778352'
p5685
(dp5686
g3
S'CC=C(C)C'
p5687
sg27
g4925
sg29
F0.02
sg8
S' 2-methylbut-2-ene'
p5688
sg10
(lp5689
g32
asg33
S'2-methylbut-2-ene'
p5690
sg15
I10553
sg16
F0.6
sg35
F1.31
sg18
(lp5691
S'alkene'
p5692
asg40
F2.28
sg41
g42
ssS'mobley_7708038'
p5693
(dp5694
g3
S'CCCBr'
p5695
sg27
g28
sg29
F0.02
sg8
S' 1-bromopropane'
p5696
sg10
(lp5697
g32
asg33
S'1-bromopropane'
p5698
sg15
I7840
sg16
F0.6
sg35
F-0.56
sg18
(lp5699
S'alkyl bromide'
p5700
asg40
F1.29
sg41
g42
ssS'mobley_1424265'
p5701
(dp5702
g3
S'Cc1cccc(c1)C'
p5703
sg27
g28
sg29
F0.02
sg8
S' m-xylene'
p5704
sg10
(lp5705
g32
asg33
S'm-xylene'
p5706
sg15
I7929
sg16
F0.6
sg35
F-0.83
sg18
(lp5707
S'aromatic'
p5708
asg40
F-0.17
sg41
g42
ssS'mobley_7610437'
p5709
(dp5710
g3
S'CC[C@H](C(C)C)O'
p5711
sg27
g28
sg29
F0.03
sg8
S' 2-methylpentan-3-ol'
p5712
sg10
(lp5713
S'Renamed mobley_7610437 from 2-methylpentan-3-ol to (3R)-2-methylpentan-3-ol (the name from the 3D structure) since the former did not completely specify stereochemistry.\n'
p5714
asg33
S'2-methylpentan-3-ol'
p5715
sg15
I11264
sg16
F0.6
sg35
F-3.88
sg18
(lp5716
S'secondary alcohol'
p5717
asg40
F-2.19
sg41
g42
ssS'mobley_4609460'
p5718
(dp5719
g3
S'CCOC(=O)c1ccc(cc1)O'
p5720
sg477
g478
sg479
F0.06
sg8
S' ethyl paraben'
p5721
sg10
(lp5722
g32
asg482
S'ethyl paraben'
p5723
sg15
I8434
sg484
F0.3
sg485
F-9.2
sg18
(lp5724
S'phenol or hydroxyhetarene'
p5725
aS'carboxylic acid ester'
p5726
aS'aromatic'
p5727
asg491
F-9.57
sg492
g493
ssS'mobley_8713762'
p5728
(dp5729
g3
S'CCCN(CCC)C(=O)SCCC'
p5730
sg200
g201
sg202
F0.04
sg8
S' vernolate'
p5731
sg10
(lp5732
g32
aS'Changed IUPAC name from vernolate to N,N-dipropyl(propylsulfanyl)formamide for better handling/standardization.'
p5733
asg205
S'N,N-dipropyl(propylsulfanyl)formamide'
p5734
sg15
I16003
sg207
F1.36
sg208
F-4.13
sg18
(lp5735
S'thiocarbamic acid ester'
p5736
asg211
F-4.17
sg212
g213
ssS'mobley_2178600'
p5737
(dp5738
g3
S'CCCCCCl'
p5739
sg5
g6
sg7
F0.1
sg8
S' 1-chloro-pentane'
p5740
sg10
(lp5741
g12
asg13
S'1-chloro-pentane'
p5742
sg15
I10977
sg16
F0.2
sg17
F-0.1
sg18
(lp5743
S'alkyl chloride'
p5744
asg21
F1.1
sg22
g23
ssS'mobley_4936555'
p5745
(dp5746
g3
S'Cc1cccc(c1C)Nc2ccccc2C(=O)O'
p5747
sg296
g297
sg298
F0.025
sg8
S' mefenamic acid'
p5748
sg10
(lp5749
g32
asg301
S'2-(2,3-dimethylphenyl)aminobenzoic acid'
p5750
sg15
I4044
sg303
g304
(g308
S'\x9a\x99\x99\x99\x99\x99\xb9?'
p5751
tp5752
Rp5753
sg314
g304
(g308
S'\x1f\x85\xebQ\xb8\x1e\x1b\xc0'
p5754
tp5755
Rp5756
sg18
(lp5757
S'secondary amine'
p5758
aS'secondary aromatic amine (diarylamine)'
p5759
aS'carboxylic acid'
p5760
aS'aromatic'
p5761
asg322
F-7.69
sg323
g324
ssS'mobley_1760914'
p5762
(dp5763
g3
S'Cc1ccccc1Cl'
p5764
sg27
g28
sg29
F0.02
sg8
S' 1-chloro-2-methyl-benzene'
p5765
sg10
(lp5766
g32
asg33
S'1-chloro-2-methyl-benzene'
p5767
sg15
I7238
sg16
F0.6
sg35
F-1.14
sg18
(lp5768
S'aryl chloride'
p5769
aS'aromatic'
p5770
asg40
F-0.51
sg41
g42
ssS'mobley_9883303'
p5771
(dp5772
g3
S'CCC[C@H](C)CC'
p5773
sg27
g28
sg29
F0.02
sg8
S' 3-methylhexane'
p5774
sg10
(lp5775
S'Renamed mobley_9883303 from 3-methylhexane to (3R)-3-methylhexane (the name from the 3D structure) since the former did not completely specify stereochemistry.\n'
p5776
asg33
S'3-methylhexane'
p5777
sg15
I11507
sg16
F0.6
sg35
F2.71
sg18
(lp5778
g69
asg40
F2.76
sg41
g42
ssS'mobley_9029594'
p5779
(dp5780
g3
S'CF'
p5781
sg27
g28
sg29
F0.01
sg8
S' fluoromethane'
p5782
sg10
(lp5783
g32
asg33
S'fluoromethane'
p5784
sg15
I11638
sg16
F0.6
sg35
F-0.22
sg18
(lp5785
S'alkyl fluoride'
p5786
asg40
F0.79
sg41
g42
ssS'mobley_1502181'
p5787
(dp5788
g3
S'CCCCCCCC(=O)C'
p5789
sg27
g28
sg29
F0.03
sg8
S' nonan-2-one'
p5790
sg10
(lp5791
g32
asg33
S'nonan-2-one'
p5792
sg15
I13187
sg16
F0.6
sg35
F-2.49
sg18
(lp5793
S'ketone'
p5794
asg40
F-2.51
sg41
g42
ssS'mobley_9478823'
p5795
(dp5796
g3
S'Cc1ccccc1C'
p5797
sg27
g28
sg29
F0.02
sg8
S' o-xylene'
p5798
sg10
(lp5799
g32
asg33
S'o-xylene'
p5800
sg15
I7237
sg16
F0.6
sg35
F-0.9
sg18
(lp5801
S'aromatic'
p5802
asg40
F-0.52
sg41
g42
ssS'mobley_9201263'
p5803
(dp5804
g3
S'COS(=O)(=O)C'
p5805
sg27
g1510
sg29
F0.03
sg8
S' methyl methanesulfonate'
p5806
sg10
(lp5807
g32
asg33
S'methyl methanesulfonate'
p5808
sg15
I4156
sg16
F0.6
sg35
F-4.87
sg18
(lp5809
S'sulfonic acid ester'
p5810
asg40
F-8.29
sg41
g42
ssS'mobley_2613240'
p5811
(dp5812
g3
S'COc1ccccc1OC'
p5813
sg296
g297
sg298
F0.021
sg8
S' 1,2-dimethoxybenzene'
p5814
sg10
(lp5815
g32
asg301
S'1,2-dimethoxybenzene'
p5816
sg15
I7043
sg303
g304
(g308
S'\x9a\x99\x99\x99\x99\x99\xb9?'
p5817
tp5818
Rp5819
sg314
g304
(g308
S'R\xb8\x1e\x85\xebQ\x15\xc0'
p5820
tp5821
Rp5822
sg18
(lp5823
S'alkyl aryl ether'
p5824
aS'aromatic'
p5825
asg322
F-3.52
sg323
g324
ssS'mobley_7769613'
p5826
(dp5827
g3
S'CC(C)(C)Br'
p5828
sg27
g28
sg29
F0.02
sg8
S' 2-bromo-2-methyl-propane'
p5829
sg10
(lp5830
g32
asg33
S'2-bromo-2-methyl-propane'
p5831
sg15
I10485
sg16
F0.6
sg35
F0.84
sg18
(lp5832
S'alkyl bromide'
p5833
asg40
F0.89
sg41
g42
ssS'mobley_4434915'
p5834
(dp5835
g3
S'CCl'
p5836
sg27
g28
sg29
F0.01
sg8
S' chloromethane'
p5837
sg10
(lp5838
g32
asg33
S'chloromethane'
p5839
sg15
I6327
sg16
F0.6
sg35
F-0.55
sg18
(lp5840
S'alkyl chloride'
p5841
asg40
F0.81
sg41
g42
ssS'mobley_2410897'
p5842
(dp5843
g3
S'CCN'
p5844
sg27
g28
sg29
F0.02
sg8
S' ethanamine'
p5845
sg10
(lp5846
g32
asg33
S'ethanamine'
p5847
sg15
I6341
sg16
F0.6
sg35
F-4.5
sg18
(lp5848
S'primary amine'
p5849
aS'primary aliphatic amine (alkylamine)'
p5850
asg40
F-3.14
sg41
g42
ssS'mobley_5003962'
p5851
(dp5852
g3
S'c1ccc2c(c1)C(=O)c3ccc(cc3C2=O)N'
p5853
sg296
g297
sg298
F0.026
sg8
S' 2-amino-9,10-anthraquinone'
p5854
sg10
(lp5855
g32
asg301
S'2-amino-9,10-anthraquinone'
p5856
sg15
I8341
sg303
g304
(g308
S'\x8f\xc2\xf5(\\\x8f\xd2?'
p5857
tp5858
Rp5859
sg314
g304
(g308
S"\x8f\xc2\xf5(\\\x0f'\xc0"
p5860
tp5861
Rp5862
sg18
(lp5863
S'ketone'
p5864
aS'primary amine'
p5865
aS'primary aromatic amine'
p5866
aS'aromatic'
p5867
asg322
F-13.71
sg323
g324
ssS'mobley_1929982'
p5868
(dp5869
g3
S'S'
p5870
sg27
g28
sg29
F0.01
sg8
S' hydrogen sulfide'
p5871
sg10
(lp5872
g32
asg33
S'hydrogen sulfide'
p5873
sg15
I402
sg16
F0.6
sg35
F-0.7
sg18
(lp5874
g69
asg40
F-1.17
sg41
g42
ssS'mobley_1650157'
p5875
(dp5876
g3
S'CC(C)(C)O'
p5877
sg27
g28
sg29
F0.02
sg8
S' 2-methylpropan-2-ol'
p5878
sg10
(lp5879
g32
asg33
S'2-methylpropan-2-ol'
p5880
sg15
I6386
sg16
F0.6
sg35
F-4.47
sg18
(lp5881
S'tertiary alcohol'
p5882
asg40
F-3.09
sg41
g42
ssS'mobley_5935995'
p5883
(dp5884
g3
S'CCC(C)(C)C'
p5885
sg27
g28
sg29
F0.02
sg8
S' 2,2-dimethylbutane'
p5886
sg10
(lp5887
g32
asg33
S'2,2-dimethylbutane'
p5888
sg15
I6403
sg16
F0.6
sg35
F2.51
sg18
(lp5889
g69
asg40
F2.53
sg41
g42
ssS'mobley_8048190'
p5890
(dp5891
g3
S'CC(=O)N'
p5892
sg27
g28
sg29
F0.03
sg8
S' acetamide'
p5893
sg10
(lp5894
g32
asg33
S'acetamide'
p5895
sg15
I178
sg16
F0.6
sg35
F-9.71
sg18
(lp5896
S'primary carboxylic acid amide'
p5897
asg40
F-8.62
sg41
g42
ssS'mobley_5917842'
p5898
(dp5899
g3
S'Cc1ccc(c(c1)OC)O'
p5900
sg296
g297
sg298
F0.021
sg8
S' 4-methyl-2-methoxyphenol'
p5901
sg10
(lp5902
g32
asg301
S'4-methyl-2-methoxyphenol'
p5903
sg15
I7144
sg303
g304
(g308
S'\x9a\x99\x99\x99\x99\x99\xb9?'
p5904
tp5905
Rp5906
sg314
g304
(g308
S'333333\x17\xc0'
p5907
tp5908
Rp5909
sg18
(lp5910
S'phenol or hydroxyhetarene'
p5911
aS'alkyl aryl ether'
p5912
aS'aromatic'
p5913
asg322
F-4.46
sg323
g324
ssS'mobley_7106722'
p5914
(dp5915
g3
S'CCCC(C)C'
p5916
sg27
g28
sg29
F0.02
sg8
S' isohexane'
p5917
sg10
(lp5918
g32
asg33
S'isohexane'
p5919
sg15
I7892
sg16
F0.6
sg35
F2.51
sg18
(lp5920
g69
asg40
F2.78
sg41
g42
ssS'mobley_8883511'
p5921
(dp5922
g3
S'Cc1ccccc1C=O'
p5923
sg296
g297
sg298
F0.019
sg8
S' 2-methylbenzaldehyde'
p5924
sg10
(lp5925
g32
asg301
S'2-methylbenzaldehyde'
p5926
sg15
I10722
sg303
g304
(g308
S'\x9a\x99\x99\x99\x99\x99\xb9?'
p5927
tp5928
Rp5929
sg314
g304
(g308
S'q=\n\xd7\xa3p\x0f\xc0'
p5930
tp5931
Rp5932
sg18
(lp5933
S'aldehyde'
p5934
aS'aromatic'
p5935
asg322
F-4.64
sg323
g324
ssS'mobley_7732703'
p5936
(dp5937
g3
S'C(F)(F)(F)Br'
p5938
sg27
g28
sg29
F0.02
sg8
S' bromo-trifluoro-methane'
p5939
sg10
(lp5940
g32
asg33
S'bromo-trifluoro-methane'
p5941
sg15
I6384
sg16
F0.6
sg35
F1.79
sg18
(lp5942
S'halogen derivative'
p5943
asg40
F2.03
sg41
g42
ssS'mobley_3639400'
p5944
(dp5945
g3
S'CCCCCl'
p5946
sg27
g28
sg29
F0.02
sg8
S' 1-chlorobutane'
p5947
sg10
(lp5948
g32
asg33
S'1-chlorobutane'
p5949
sg15
I8005
sg16
F0.6
sg35
F-0.16
sg18
(lp5950
S'alkyl chloride'
p5951
asg40
F0.99
sg41
g42
ssS'mobley_9185328'
p5952
(dp5953
g3
S'CCCN'
p5954
sg27
g28
sg29
F0.02
sg8
S' propan-1-amine'
p5955
sg10
(lp5956
g32
asg33
S'propan-1-amine'
p5957
sg15
I7852
sg16
F0.6
sg35
F-4.39
sg18
(lp5958
S'primary amine'
p5959
aS'primary aliphatic amine (alkylamine)'
p5960
asg40
F-3.05
sg41
g42
ssS'mobley_3105103'
p5961
(dp5962
g3
S'Cc1c(c(=O)n(c(=O)[nH]1)C(C)(C)C)Cl'
p5963
sg200
g201
sg202
F0.04
sg8
S' terbacil'
p5964
sg10
(lp5965
g32
asg205
S'terbacil'
p5966
sg15
I22188
sg207
F1.93
sg208
F-11.14
sg18
(lp5967
S'aryl chloride'
p5968
aS'oxo(het)arene'
p5969
aS'aromatic'
p5970
aS'heterocyclic'
p5971
asg211
F-13.33
sg212
g213
ssS'mobley_8337977'
p5972
(dp5973
g3
S'CC(C)CC(=O)C'
p5974
sg27
g28
sg29
F0.02
sg8
S' 4-methylpentan-2-one'
p5975
sg10
(lp5976
g32
asg33
S'4-methylpentan-2-one'
p5977
sg15
I7909
sg16
F0.6
sg35
F-3.05
sg18
(lp5978
S'ketone'
p5979
asg40
F-2.96
sg41
g42
ssS'mobley_5347550'
p5980
(dp5981
g3
S'COC(C(Cl)Cl)(F)F'
p5982
sg27
g28
sg29
F0.02
sg8
S' methoxyflurane'
p5983
sg10
(lp5984
g32
asg33
S'2,2-dichloro-1,1-difluoro-1-methoxy-ethane'
p5985
sg15
I4116
sg16
F0.6
sg35
F-1.12
sg18
(lp5986
S'alkyl chloride'
p5987
aS'orthocarboxylic acid derivative'
p5988
asg40
F-0.71
sg41
g42
ssS'mobley_1733799'
p5989
(dp5990
g3
S'c1cc(ccc1O)Br'
p5991
sg27
S'10.1039/J29710000533 and 10.1007/BF00646936'
p5992
sg29
F0.02
sg8
S' 4-bromophenol'
p5993
sg10
(lp5994
g32
aS'Experimental value updated 10/22/13 from J. Peter Guthrie (University of Western Ontario) taken as a weighted average of the values -7.13 from a Cabani review, and -5.24 from experimental data from Parsons, Rochester, and Wood (see reference). The weighting gives preference to the latter since it gives source data.\n'
p5995
asg33
S'4-bromophenol'
p5996
sg15
I7808
sg16
F0.83
sg35
F-5.85
sg18
(lp5997
S'phenol or hydroxyhetarene'
p5998
aS'aryl bromide'
p5999
aS'aromatic'
p6000
asg40
F-5.47
sg41
g42
ssS'mobley_5494918'
p6001
(dp6002
g3
S'C(=C(F)F)(C(F)(F)F)F'
p6003
sg27
S'10.1021/cr60306a003'
p6004
sg29
F0.02
sg8
S' 1,1,2,3,3,3-hexafluoroprop-1-ene'
p6005
sS'notes'
p6006
(lp6007
S'Updated correcting an error in the Rizzo/Mobley sets that had arisen from confusing the abbreviation HFP with hexafluoropropan-2-ol versus hexafluoropropene. Reference: Wilhelm, E., Battino, R., Wilcock, R. J., Chem. Rev. 1977, 77, 223-262.\n'
p6008
ag32
asg33
S'1,1,2,3,3,3-hexafluoroprop-1-ene'
p6009
sg15
I83439
sg16
F0.6
sg35
F2.93
sg18
(lp6010
S'halogen derivative'
p6011
asg40
F2.29
sg41
g42
ssS'mobley_7010316'
p6012
(dp6013
g3
S'C1CCC(CC1)O'
p6014
sg27
g28
sg29
F0.02
sg8
S' cyclohexanol'
p6015
sg10
(lp6016
g32
asg33
S'cyclohexanol'
p6017
sg15
I7966
sg16
F0.6
sg35
F-5.46
sg18
(lp6018
S'secondary alcohol'
p6019
asg40
F-4.26
sg41
g42
ssS'mobley_8320545'
p6020
(dp6021
g3
S'CC[N+](=O)[O-]'
p6022
sg27
g28
sg29
F0.02
sg8
S' 1-nitroethane'
p6023
sg10
(lp6024
g32
asg33
S'1-nitroethane'
p6025
sg15
I6587
sg16
F0.6
sg35
F-3.71
sg18
(lp6026
S'nitro'
p6027
asg40
F-1.73
sg41
g42
ssS'mobley_3775790'
p6028
(dp6029
g3
S'Cn1cccc1'
p6030
sg27
g28
sg29
F0.02
sg8
S' 1-methylpyrrole'
p6031
sg10
(lp6032
g32
asg33
S'1-methylpyrrole'
p6033
sg15
I7304
sg16
F0.6
sg35
F-2.89
sg18
(lp6034
S'aromatic'
p6035
aS'heterocyclic'
p6036
asg40
F-2.59
sg41
g42
ssS'mobley_7157427'
p6037
(dp6038
g3
S'CCCCCCCCl'
p6039
sg27
g28
sg29
F0.03
sg8
S' 1-chloroheptane'
p6040
sg10
(lp6041
g32
asg33
S'1-chloroheptane'
p6042
sg15
I12371
sg16
F0.6
sg35
F0.29
sg18
(lp6043
S'alkyl chloride'
p6044
asg40
F1.53
sg41
g42
ssS'mobley_2782339'
p6045
(dp6046
g3
S'c1ccc2c(c1)C(=O)NC2=O'
p6047
sg477
g478
sg479
F0.05
sg8
S' phthalimide'
p6048
sg10
(lp6049
g32
asg482
S'phthalimide'
p6050
sg15
I6809
sg484
F0.5
sg485
F-9.61
sg18
(lp6051
S'carboxylic acid imide, N-unsubstituted'
p6052
aS'aromatic'
p6053
aS'heterocyclic'
p6054
asg491
F-11.74
sg492
g493
ssS'mobley_3715043'
p6055
(dp6056
g3
S'Cc1ccc(c2c1cccc2)C'
p6057
sg27
g28
sg29
F0.03
sg8
S' 1,4-dimethylnaphthalene'
p6058
sg10
(lp6059
g32
asg33
S'1,4-dimethylnaphthalene'
p6060
sg15
I11304
sg16
F0.6
sg35
F-2.82
sg18
(lp6061
S'aromatic'
p6062
asg40
F-3.29
sg41
g42
ssS'mobley_5263791'
p6063
(dp6064
g3
S'CCc1cccc2c1cccc2'
p6065
sg27
g28
sg29
F0.03
sg8
S' 1-ethylnaphthalene'
p6066
sg10
(lp6067
g32
asg33
S'1-ethylnaphthalene'
p6068
sg15
I14315
sg16
F0.6
sg35
F-2.4
sg18
(lp6069
S'aromatic'
p6070
asg40
F-3.0
sg41
g42
ss.