(dp0
S'mobley_1323538'
p1
(dp2
S'smiles'
p3
S'CCOP(=O)(OCC)OCC'
p4
sS'expt_reference'
p5
S'10.1039/P29900000291'
p6
sS'd_calc'
p7
F0.1
sS'notes'
p8
(lp9
S'Experimental uncertainty as suggested by 10.1039/P29900000291 -- 0.2 kcal/mol.'
p10
asS'iupac'
p11
S'triethylphosphate'
p12
sS'PubChemID'
p13
I6535
sS'd_expt'
p14
F0.2
sS'expt'
p15
F-7.5
sS'groups'
p16
(lp17
S'phosphoric acid ester'
p18
asS'calc'
p19
F-10.8
sS'nickname'
p20
S' triethylphosphate'
p21
sS'calc_reference'
p22
S'10.1021/jp0667442'
p23
ssS'mobley_2661134'
p24
(dp25
g3
S'c1cc(cc(c1)O)C#N'
p26
sS'expt_reference'
p27
S'10.1021/ct050097l'
p28
sS'd_calc'
p29
F0.03
sg8
(lp30
S'Experimental uncertainty not presently available, so assigned a default value.'
p31
asS'iupac'
p32
S'3-hydroxybenzonitrile'
p33
sg13
I13394
sg14
F0.6
sS'expt'
p34
F-9.65
sg16
(lp35
S'phenol or hydroxyhetarene'
p36
aS'carbonitrile'
p37
aS'aromatic'
p38
asS'calc'
p39
F-6.99
sg20
S' 3-hydroxybenzonitrile'
p40
sS'calc_reference'
p41
S'10.1021/ct800409d'
p42
ssS'mobley_6929123'
p43
(dp44
g3
S'COC(=O)CCl'
p45
sg27
S'10.1139/v80-201'
p46
sg29
F0.02
sg8
(lp47
g31
asg32
S'methyl 2-chloroacetate'
p48
sg13
I7295
sg14
F0.6
sg34
F-4.0
sg16
(lp49
S'alkyl chloride'
p50
aS'carboxylic acid ester'
p51
asg39
F-3.92
sg20
S' methyl 2-chloroacetate'
p52
sg41
g42
ssS'mobley_3395921'
p53
(dp54
g3
S'C1CCOCC1'
p55
sg27
g28
sg29
F0.02
sg8
(lp56
g31
asg32
S'tetrahydropyran'
p57
sg13
I8894
sg14
F0.6
sg34
F-3.12
sg16
(lp58
S'dialkyl ether'
p59
aS'heterocyclic'
p60
asg39
F-1.78
sg20
S' tetrahydropyran'
p61
sg41
g42
ssS'mobley_5449201'
p62
(dp63
g3
S'CCCCC'
p64
sg5
g6
sg7
F0.1
sg8
(lp65
g10
asg11
S'n-pentane'
p66
sg13
I8003
sg14
F0.2
sg15
F2.3
sg16
(lp67
S''
p68
asg19
F2.6
sg20
S' n-pentane'
p69
sg22
g23
ssS'mobley_5631798'
p70
(dp71
g3
S'N'
p72
sg27
g28
sg29
F0.01
sg8
(lp73
g31
asg32
S'ammonia'
p74
sg13
I222
sg14
F0.6
sg34
F-4.29
sg16
(lp75
g68
asg39
F-4.04
sg20
S' ammonia'
p76
sg41
g42
ssS'mobley_1674094'
p77
(dp78
g3
S'CCCCC#C'
p79
sg27
g28
sg29
F0.02
sg8
(lp80
g31
asg32
S'hex-1-yne'
p81
sg13
I12732
sg14
F0.6
sg34
F0.29
sg16
(lp82
S'alkyne'
p83
asg39
F0.79
sg20
S' hex-1-yne'
p84
sg41
g42
ssS'mobley_9838013'
p85
(dp86
g3
S'CCC(C)(C)O'
p87
sg27
g28
sg29
F0.03
sg8
(lp88
g31
asg32
S'2-methylbutan-2-ol'
p89
sg13
I6405
sg14
F0.6
sg34
F-4.43
sg16
(lp90
S'tertiary alcohol'
p91
asg39
F-2.96
sg20
S' 2-methylbutan-2-ol'
p92
sg41
g42
ssS'mobley_1735893'
p93
(dp94
g3
S'CCCCCC(=O)O'
p95
sg27
g28
sg29
F0.03
sg8
(lp96
g31
asg32
S'hexanoic acid'
p97
sg13
I8892
sg14
F0.6
sg34
F-6.21
sg16
(lp98
S'carboxylic acid'
p99
asg39
F-5.08
sg20
S' hexanoic acid'
p100
sg41
g42
ssS'mobley_2198613'
p101
(dp102
g3
S'CCCl'
p103
sg27
g28
sg29
F0.02
sg8
(lp104
g31
asg32
S'chloroethane'
p105
sg13
I6337
sg14
F0.6
sg34
F-0.63
sg16
(lp106
S'alkyl chloride'
p107
asg39
F0.78
sg20
S' chloroethane'
p108
sg41
g42
ssS'mobley_1449384'
p109
(dp110
g3
S'Cc1ccc(cc1)C(C)C'
p111
sg27
g28
sg29
F0.03
sg8
(lp112
g31
asg32
S'1-isopropyl-4-methyl-benzene'
p113
sg13
I7463
sg14
F0.6
sg34
F-0.68
sg16
(lp114
S'aromatic'
p115
asg39
F0.2
sg20
S' 1-isopropyl-4-methyl-benzene'
p116
sg41
g42
ssS'mobley_3682850'
p117
(dp118
g3
S'C1CCC(=O)CC1'
p119
sg27
g28
sg29
F0.02
sg8
(lp120
g31
asg32
S'cyclohexanone'
p121
sg13
I7967
sg14
F0.6
sg34
F-4.91
sg16
(lp122
S'ketone'
p123
asg39
F-3.84
sg20
S' cyclohexanone'
p124
sg41
g42
ssS'mobley_3264884'
p125
(dp126
g3
S'c1ccc2cc(ccc2c1)N'
p127
sg27
g28
sg29
F0.03
sg8
(lp128
g31
asg32
S'naphthalen-2-amine'
p129
sg13
I7057
sg14
F0.6
sg34
F-7.47
sg16
(lp130
S'primary amine'
p131
aS'primary aromatic amine'
p132
aS'aromatic'
p133
asg39
F-7.87
sg20
S' naphthalen-2-amine'
p134
sg41
g42
ssS'mobley_8614858'
p135
(dp136
g3
S'CCCCCCC'
p137
sg27
g28
sg29
F0.02
sg8
(lp138
g31
asg32
S'heptane'
p139
sg13
I8900
sg14
F0.6
sg34
F2.67
sg16
(lp140
g68
asg39
F3.2
sg20
S' heptane'
p141
sg41
g42
ssS'mobley_4043987'
p142
(dp143
g3
S'CCCCC(C)C'
p144
sg27
g28
sg29
F0.03
sg8
(lp145
g31
asg32
S'2-methylhexane'
p146
sg13
I11582
sg14
F0.6
sg34
F2.93
sg16
(lp147
g68
asg39
F3.0
sg20
S' 2-methylhexane'
p148
sg41
g42
ssS'mobley_2864987'
p149
(dp150
g3
S'CCC[C@@H](C)O'
p151
sg27
g28
sg29
F0.02
sg8
(lp152
S'Renamed mobley_2864987 from pentan-2-ol to (2R)-pentan-2-ol (the name from the 3D structure) since the former did not completely specify stereochemistry.\n'
p153
asg32
S'pentan-2-ol'
p154
sg13
I22386
sg14
F0.6
sg34
F-4.39
sg16
(lp155
S'secondary alcohol'
p156
asg39
F-2.87
sg20
S' pentan-2-ol'
p157
sg41
g42
ssS'mobley_859464'
p158
(dp159
g3
S'CC(C)COC(=O)C'
p160
sg27
g28
sg29
F0.02
sg8
(lp161
g31
asg32
S'isobutyl acetate'
p162
sg13
I8038
sg14
F0.6
sg34
F-2.36
sg16
(lp163
S'carboxylic acid ester'
p164
asg39
F-2.8
sg20
S' isobutyl acetate'
p165
sg41
g42
ssS'mobley_3053621'
p166
(dp167
g3
S'c1ccccc1'
p168
sg5
g6
sg7
F0.1
sg8
(lp169
g10
asg11
S'benzene'
p170
sg13
I241
sg14
F0.2
sg15
F-0.9
sg16
(lp171
S'aromatic'
p172
asg19
F-0.6
sg20
S' benzene'
p173
sg22
g23
ssS'mobley_1352110'
p174
(dp175
g3
S'CCCCN(CC)C(=O)SCCC'
p176
sS'expt_reference'
p177
S'10.1021/jp806724u'
p178
sS'd_calc'
p179
F0.04
sg8
(lp180
g31
asS'iupac'
p181
S'pebulate'
p182
sg13
I14215
sS'd_expt'
p183
F1.93
sS'expt'
p184
F-3.64
sg16
(lp185
S'thiocarbamic acid ester'
p186
asS'calc'
p187
F-4.85
sg20
S' pebulate'
p188
sS'calc_reference'
p189
S'10.1021/jp806838b'
p190
ssS'mobley_4291494'
p191
(dp192
g3
S'c1ccnc(c1)Cl'
p193
sg27
g28
sg29
F0.02
sg8
(lp194
g31
asg32
S'2-chloropyridine'
p195
sg13
I7977
sg14
F0.6
sg34
F-4.39
sg16
(lp196
S'aryl chloride'
p197
aS'aromatic'
p198
aS'heterocyclic'
p199
asg39
F-3.36
sg20
S' 2-chloropyridine'
p200
sg41
g42
ssS'mobley_2364370'
p201
(dp202
g3
S'CCCCOC(=O)C'
p203
sg27
g28
sg29
F0.02
sg8
(lp204
g31
asg32
S'butyl acetate'
p205
sg13
I31272
sg14
F0.6
sg34
F-2.64
sg16
(lp206
S'carboxylic acid ester'
p207
asg39
F-3.17
sg20
S' butyl acetate'
p208
sg41
g42
ssS'mobley_1893815'
p209
(dp210
g3
S'C(C(Cl)(Cl)Cl)Cl'
p211
sS'expt_reference'
p212
S'10.1007/s10822-012-9568-8'
p213
sS'd_calc'
p214
F0.02
sg8
(lp215
g31
asS'iupac'
p216
S'1,1,1,2-tetrachloroethane'
p217
sg13
I12418
sS'd_expt'
p218
F0.1
sS'expt'
p219
F-1.43
sg16
(lp220
S'alkyl chloride'
p221
asS'calc'
p222
F-0.11
sg20
S' 1,1,1,2-tetrachloroethane'
p223
sS'calc_reference'
p224
S'10.1007/s10822-011-9528-8'
p225
ssS'mobley_5200358'
p226
(dp227
g3
S'CC(C)(/C=N\\OC(=O)NC)SC'
p228
sg177
g178
sg179
F0.05
sg8
(lp229
S'Renamed mobley_5200358 from aldicarb to [(Z)-(2-methyl-2-methylsulfanyl-propylidene)amino] N-methylcarbamate (the name from the 3D structure) since the former did not completely specify stereochemistry.\n'
p230
asg181
S'aldicarb'
p231
sg13
I9570071
sg183
F0.1
sg184
F-9.84
sg16
(lp232
S'thioether'
p233
aS'carbamic acid'
p234
asg187
F-10.27
sg20
S' aldicarb'
p235
sg189
g190
ssS'mobley_9246215'
p236
(dp237
g3
S'C=CCC=C'
p238
sg27
g28
sg29
F0.02
sg8
(lp239
g31
asg32
S'penta-1,4-diene'
p240
sg13
I11587
sg14
F0.6
sg34
F0.93
sg16
(lp241
S'alkene'
p242
asg39
F2.18
sg20
S' penta-1,4-diene'
p243
sg41
g42
ssS'mobley_5110043'
p244
(dp245
g3
S'Cc1ccc2cc(ccc2c1)C'
p246
sg27
g28
sg29
F0.03
sg8
(lp247
g31
asg32
S'2,6-dimethylnaphthalene'
p248
sg13
I11387
sg14
F0.6
sg34
F-2.63
sg16
(lp249
S'aromatic'
p250
asg39
F-2.65
sg20
S' 2,6-dimethylnaphthalene'
p251
sg41
g42
ssS'mobley_6190089'
p252
(dp253
g3
S'C(C(Cl)Cl)(Cl)Cl'
p254
sg212
g213
sg214
F0.02
sg8
(lp255
g31
asg216
S'1,1,2,2-tetrachloroethane'
p256
sg13
I6591
sg218
F0.1
sg219
F-2.37
sg16
(lp257
S'alkyl chloride'
p258
asg222
F-0.53
sg20
S' 1,1,2,2-tetrachloroethane'
p259
sg224
g225
ssS'mobley_6266306'
p260
(dp261
g3
S'C1CNC1'
p262
sg27
g28
sg29
F0.02
sg8
(lp263
g31
asg32
S'azetidine'
p264
sg13
I10422
sg14
F0.6
sg34
F-5.56
sg16
(lp265
S'secondary amine'
p266
aS'secondary aliphatic amine (dialkylamine)'
p267
aS'heterocyclic'
p268
asg39
F-3.41
sg20
S' azetidine'
p269
sg41
g42
ssS'mobley_2850833'
p270
(dp271
g3
S'c1ccc(c(c1)C=O)O'
p272
sS'expt_reference'
p273
S'SAMPL4_Guthrie'
p274
sS'd_calc'
p275
F0.018
sg8
(lp276
g31
asS'iupac'
p277
S'2-hydroxybenzaldehyde'
p278
sg13
I6998
sS'd_expt'
p279
cnumpy.core.multiarray
scalar
p280
(cnumpy
dtype
p281
(S'f8'
p282
I0
I1
tp283
Rp284
(I3
S'<'
p285
NNNI-1
I-1
I0
tp286
bS'\x9a\x99\x99\x99\x99\x99\xb9?'
p287
tp288
Rp289
sS'expt'
p290
g280
(g284
S'\xb8\x1e\x85\xebQ\xb8\x12\xc0'
p291
tp292
Rp293
sg16
(lp294
S'aldehyde'
p295
aS'phenol or hydroxyhetarene'
p296
aS'aromatic'
p297
asS'calc'
p298
F-4.89
sg20
S' 2-hydroxybenzaldehyde'
p299
sS'calc_reference'
p300
S'SAMPL4_Mobley'
p301
ssS'mobley_9246351'
p302
(dp303
g3
S'C(Br)Br'
p304
sg27
g28
sg29
F0.02
sg8
(lp305
g31
asg32
S'dibromomethane'
p306
sg13
I3024
sg14
F0.6
sg34
F-1.96
sg16
(lp307
S'alkyl bromide'
p308
asg39
F0.87
sg20
S' dibromomethane'
p309
sg41
g42
ssS'mobley_8011706'
p310
(dp311
g3
S'CN(C)C=O'
p312
sg27
g28
sg29
F0.03
sg8
(lp313
g31
asg32
S'N,N-dimethylformamide'
p314
sg13
I6228
sg14
F0.6
sg34
F-7.81
sg16
(lp315
S'tertiary carboxylic acid amide'
p316
asg39
F-6.86
sg20
S' N,N-dimethylformamide'
p317
sg41
g42
ssS'mobley_4924862'
p318
(dp319
g3
S'CC(C)CCOC=O'
p320
sg27
g28
sg29
F0.02
sg8
(lp321
g31
asg32
S'isopentyl formate'
p322
sg13
I8052
sg14
F0.6
sg34
F-2.13
sg16
(lp323
S'carboxylic acid ester'
p324
asg39
F-3.39
sg20
S' isopentyl formate'
p325
sg41
g42
ssS'mobley_9942801'
p326
(dp327
g3
S'CCc1ccc(cc1)C'
p328
sg27
g28
sg29
F0.02
sg8
(lp329
g31
asg32
S'1-ethyl-4-methyl-benzene'
p330
sg13
I12160
sg14
F0.6
sg34
F-0.95
sg16
(lp331
S'aromatic'
p332
asg39
F-0.05
sg20
S' 1-ethyl-4-methyl-benzene'
p333
sg41
g42
ssS'mobley_7578802'
p334
(dp335
g3
S'C(Br)(Br)Br'
p336
sg27
g28
sg29
F0.02
sg8
(lp337
g31
asg32
S'bromoform'
p338
sg13
I5558
sg14
F0.6
sg34
F-2.13
sg16
(lp339
S'halogen derivative'
p340
asg39
F0.88
sg20
S' bromoform'
p341
sg41
g42
ssS'mobley_8861672'
p342
(dp343
g3
S'Cc1ccnc(c1)C'
p344
sg27
g28
sg29
F0.02
sg8
(lp345
g31
asg32
S'2,4-dimethylpyridine'
p346
sg13
I7936
sg14
F0.6
sg34
F-4.86
sg16
(lp347
S'aromatic'
p348
aS'heterocyclic'
p349
asg39
F-3.18
sg20
S' 2,4-dimethylpyridine'
p350
sg41
g42
ssS'mobley_194273'
p351
(dp352
g3
S'CC[C@H](C)n1c(=O)c(c([nH]c1=O)C)Br'
p353
sg177
g178
sg179
F0.04
sg8
(lp354
S'Renamed mobley_194273 from bromacil to 5-bromo-6-methyl-3-[(1S)-1-methylpropyl]-1H-pyrimidine-2,4-dione (the name from the 3D structure) since the former did not completely specify stereochemistry.\n'
p355
asg181
S'bromacil'
p356
sg13
I9411
sg183
F1.93
sg184
F-9.73
sg16
(lp357
S'aryl bromide'
p358
aS'oxo(het)arene'
p359
aS'aromatic'
p360
aS'heterocyclic'
p361
asg187
F-13.74
sg20
S' bromacil'
p362
sg189
g190
ssS'mobley_1244778'
p363
(dp364
g3
S'C1CCCC(CC1)O'
p365
sg27
g28
sg29
F0.05
sg8
(lp366
g31
asg32
S'cycloheptanol'
p367
sg13
I10399
sg14
F0.6
sg34
F-5.48
sg16
(lp368
S'secondary alcohol'
p369
asg39
F-4.15
sg20
S' cycloheptanol'
p370
sg41
g42
ssS'mobley_468867'
p371
(dp372
g3
S'C1=C[C@@H]([C@@H]2[C@H]1[C@@]3(C(=C([C@]2(C3(Cl)Cl)Cl)Cl)Cl)Cl)Cl'
p373
sg177
g178
sg179
F0.03
sg8
(lp374
g31
asg181
S'heptachlor'
p375
sg13
I3589
sg183
F0.1
sg184
F-2.55
sg16
(lp376
S'alkyl chloride'
p377
aS'alkene'
p378
asg187
F-0.98
sg20
S' heptachlor'
p379
sg189
g190
ssS'mobley_8827942'
p380
(dp381
g3
S'c1ccc2c(c1)Oc3c(cc(c(c3O2)Cl)Cl)Cl'
p382
sg212
g213
sg214
F0.03
sg8
(lp383
g31
asg216
S'1,2,4-trichlorodibenzo-p-dioxin'
p384
sg13
I38253
sg218
F0.1
sg219
F-4.05
sg16
(lp385
S'diaryl ether'
p386
aS'aryl chloride'
p387
aS'aromatic'
p388
aS'heterocyclic'
p389
asg222
F-3.29
sg20
S' 1,2,4-trichlorodibenzo-p-dioxin'
p390
sg224
g225
ssS'mobley_3738859'
p391
(dp392
g3
S'CCCCCBr'
p393
sg5
g6
sg7
F0.1
sg8
(lp394
g10
asg11
S'1-bromo-pentane'
p395
sg13
I8057
sg14
F0.2
sg15
F-0.1
sg16
(lp396
S'alkyl bromide'
p397
asg19
F1.5
sg20
S' 1-bromo-pentane'
p398
sg22
g23
ssS'mobley_8427539'
p399
(dp400
g3
S'CCC(=O)N'
p401
sg5
g6
sg7
F0.1
sg8
(lp402
g10
asg11
S'propionamide'
p403
sg13
I6578
sg14
F0.2
sg15
F-9.4
sg16
(lp404
S'primary carboxylic acid amide'
p405
asg19
F-9.3
sg20
S' propionamide'
p406
sg22
g23
ssS'mobley_1107178'
p407
(dp408
g3
S'CCI'
p409
sg27
g28
sg29
F0.02
sg8
(lp410
g31
asg32
S'iodoethane'
p411
sg13
I6340
sg14
F0.6
sg34
F-0.74
sg16
(lp412
S'alkyl iodide'
p413
asg39
F-0.1
sg20
S' iodoethane'
p414
sg41
g42
ssS'mobley_2789243'
p415
(dp416
g3
S'c1cc(cnc1)Cl'
p417
sg27
g28
sg29
F0.02
sg8
(lp418
g31
asg32
S'3-chloropyridine'
p419
sg13
I12287
sg14
F0.6
sg34
F-4.01
sg16
(lp420
S'aryl chloride'
p421
aS'aromatic'
p422
aS'heterocyclic'
p423
asg39
F-2.5
sg20
S' 3-chloropyridine'
p424
sg41
g42
ssS'mobley_2008055'
p425
(dp426
g3
S'CC'
p427
sg27
g28
sg29
F0.01
sg8
(lp428
g31
asg32
S'ethane'
p429
sg13
I6324
sg14
F0.6
sg34
F1.83
sg16
(lp430
g68
asg39
F2.58
sg20
S' ethane'
p431
sg41
g42
ssS'mobley_1873346'
p432
(dp433
g3
S'Cc1ccccc1'
p434
sg5
g6
sg7
F0.1
sg8
(lp435
g10
asg11
S'toluene'
p436
sg13
I1140
sg14
F0.2
sg15
F-0.9
sg16
(lp437
S'aromatic'
p438
asg19
F-0.7
sg20
S' toluene'
p439
sg22
g23
ssS'mobley_7794077'
p440
(dp441
g3
S'c1c(c(=O)[nH]c(=O)[nH]1)C(F)(F)F'
p442
sS'expt_reference'
p443
S'10.1007/s10822-010-9350-8'
p444
sS'd_calc'
p445
F0.07
sg8
(lp446
g31
asS'iupac'
p447
S'5-trifluoromethyluracil'
p448
sg13
I5899
sS'd_expt'
p449
F0.16
sS'expt'
p450
F-15.46
sg16
(lp451
S'halogen derivative'
p452
aS'oxo(het)arene'
p453
aS'aromatic'
p454
aS'heterocyclic'
p455
asS'calc'
p456
F-17.17
sg20
S' 5-trifluoromethyluracil'
p457
sS'calc_reference'
p458
S'10.1007/s10822-010-9343-7'
p459
ssS'mobley_1849020'
p460
(dp461
g3
S'CCOP(=S)(OCC)SCSc1ccc(cc1)Cl'
p462
sg177
g178
sg179
F0.05
sg8
(lp463
g31
aS'Changed IUPAC name from carbophenothion to 4-chlorophenyl)sulfanylmethylsulfanyl-diethoxy-thioxo-$l^{5}-phosphane for better handling/standardization.'
p464
asg181
S'4-chlorophenyl)sulfanylmethylsulfanyl-diethoxy-thioxo-$l^{5}-phosphane'
p465
sg13
I13081
sg183
F0.83
sg184
F-6.5
sg16
(lp466
S'aryl chloride'
p467
aS'thiophosphoric acid ester'
p468
aS'aromatic'
p469
asg187
F-8.34
sg20
S' carbophenothion'
p470
sg189
g190
ssS'mobley_8798016'
p471
(dp472
g3
S'c1cnccc1C=O'
p473
sg27
g28
sg29
F0.03
sg8
(lp474
g31
asg32
S'pyridine-4-carbaldehyde'
p475
sg13
I13389
sg14
F0.6
sg34
F-7.0
sg16
(lp476
S'aldehyde'
p477
aS'aromatic'
p478
aS'heterocyclic'
p479
asg39
F-7.31
sg20
S' pyridine-4-carbaldehyde'
p480
sg41
g42
ssS'mobley_5157661'
p481
(dp482
g3
S'CC(C)C'
p483
sg5
g6
sg7
F0.1
sg8
(lp484
g10
asg11
S'isobutane'
p485
sg13
I6360
sg14
F0.2
sg15
F2.3
sg16
(lp486
g68
asg19
F2.7
sg20
S' isobutane'
p487
sg22
g23
ssS'mobley_6201330'
p488
(dp489
g3
S'CCCOC(=O)c1ccc(cc1)O'
p490
sg443
g444
sg445
F0.06
sg8
(lp491
g31
asg447
S'propyl paraben'
p492
sg13
I7175
sg449
F0.22
sg450
F-9.37
sg16
(lp493
S'phenol or hydroxyhetarene'
p494
aS'carboxylic acid ester'
p495
aS'aromatic'
p496
asg456
F-9.34
sg20
S' propyl paraben'
p497
sg458
g459
ssS'mobley_4620651'
p498
(dp499
g3
S'COC(=O)C1CC1'
p500
sg27
g28
sg29
F0.04
sg8
(lp501
g31
asg32
S'methyl cyclopropanecarboxylate'
p502
sg13
I76122
sg14
F0.6
sg34
F-4.1
sg16
(lp503
S'carboxylic acid ester'
p504
asg39
F-4.49
sg20
S' methyl cyclopropanecarboxylate'
p505
sg41
g42
ssS'mobley_9717937'
p506
(dp507
g3
S'c1ccc(cc1)c2ccccc2Cl'
p508
sg212
g213
sg214
F0.03
sg8
(lp509
g31
asg216
S'1-chloro-2-phenyl-benzene'
p510
sg13
I249266
sg218
F0.1
sg219
F-2.69
sg16
(lp511
S'aryl chloride'
p512
aS'aromatic'
p513
asg222
F-2.42
sg20
S' 1-chloro-2-phenyl-benzene'
p514
sg224
g225
ssS'mobley_6861308'
p515
(dp516
g3
S'CN(C)C(=O)Nc1ccccc1'
p517
sg177
g178
sg179
F0.04
sg8
(lp518
g31
asg181
S'fenuron'
p519
sg13
I7560
sg183
F1.93
sg184
F-9.13
sg16
(lp520
S'urea'
p521
aS'aromatic'
p522
asg187
F-12.08
sg20
S' fenuron'
p523
sg189
g190
ssS'mobley_4630641'
p524
(dp525
g3
S'COCCOC'
p526
sg27
g28
sg29
F0.02
sg8
(lp527
g31
asg32
S'1,2-dimethoxyethane'
p528
sg13
I8071
sg14
F0.6
sg34
F-4.84
sg16
(lp529
S'dialkyl ether'
p530
asg39
F-3.36
sg20
S' 1,2-dimethoxyethane'
p531
sg41
g42
ssS'mobley_2636578'
p532
(dp533
g3
S'C(CO[N+](=O)[O-])CO[N+](=O)[O-]'
p534
sg273
g274
sg275
F0.02
sg8
(lp535
g31
aS'IUPAC name and SMILES standardized in v0.2 to match PubChem.\n'
p536
asg277
S'3-nitrooxypropyl nitrate'
p537
sg13
I96257
sg279
g280
(g284
S'\xf6(\\\x8f\xc2\xf5\xd8?'
p538
tp539
Rp540
sg290
g280
(g284
S'333333\x13\xc0'
p541
tp542
Rp543
sg16
(lp544
S'anion'
p545
asg298
F-5.53
sg20
S' 3-nitrooxypropyl nitrate'
p546
sg300
g301
ssS'mobley_5571660'
p547
(dp548
g3
S'Cc1cccc(c1N)C'
p549
sg27
g28
sg29
F0.03
sg8
(lp550
g31
asg32
S'2,6-dimethylaniline'
p551
sg13
I6896
sg14
F0.6
sg34
F-5.21
sg16
(lp552
S'primary amine'
p553
aS'primary aromatic amine'
p554
aS'aromatic'
p555
asg39
F-4.87
sg20
S' 2,6-dimethylaniline'
p556
sg41
g42
ssS'mobley_7690440'
p557
(dp558
g3
S'CSSC'
p559
sg27
g28
sg29
F0.02
sg8
(lp560
g31
asg32
S'methyldisulfanylmethane'
p561
sg13
I12232
sg14
F0.6
sg34
F-1.83
sg16
(lp562
S'disulfide'
p563
asg39
F1.48
sg20
S' methyldisulfanylmethane'
p564
sg41
g42
ssS'mobley_2523689'
p565
(dp566
g3
S'c1ccc(cc1)n2c(=O)c(c(cn2)N)Cl'
p567
sg177
g178
sg179
F0.04
sg8
(lp568
g31
aS'Changed IUPAC name from pyrazon to 5-Amino-4-chloro-2-phenylpyridazin-3(2H)-one for better handling/standardization.'
p569
asg181
S'5-Amino-4-chloro-2-phenylpyridazin-3(2H)-one'
p570
sg13
I15546
sg183
F1.93
sg184
F-16.43
sg16
(lp571
S'primary amine'
p572
aS'primary aromatic amine'
p573
aS'aryl chloride'
p574
aS'oxo(het)arene'
p575
aS'aromatic'
p576
aS'heterocyclic'
p577
asg187
F-16.62
sg20
S' pyrazon'
p578
sg189
g190
ssS'mobley_4479135'
p579
(dp580
g3
S'C=C(c1ccccc1)c2ccccc2'
p581
sg273
g274
sg275
F0.023
sg8
(lp582
g31
asg277
S'1,1-diphenylethene'
p583
sg13
I10740
sg279
g280
(g284
S'\x9a\x99\x99\x99\x99\x99\xb9?'
p584
tp585
Rp586
sg290
g280
(g284
S'=\n\xd7\xa3p=\x06\xc0'
p587
tp588
Rp589
sg16
(lp590
S'alkene'
p591
aS'aromatic'
p592
asg298
F-3.92
sg20
S' 1,1-diphenylethene'
p593
sg300
g301
ssS'mobley_7176248'
p594
(dp595
g3
S'CCCN(CCC)c1c(cc(cc1[N+](=O)[O-])C(F)(F)F)[N+](=O)[O-]'
p596
sg177
g178
sg179
F0.04
sg8
(lp597
g31
aS'Changed IUPAC name from trifluralin to 2,6-Dinitro-N,N-dipropyl-4-(trifluoromethyl)aniline for better handling/standardization.'
p598
asg181
S'trifluralin'
p599
sg13
I5569
sg183
F0.1
sg184
F-3.25
sg16
(lp600
S'tertiary amine'
p601
aS'tertiary aliphatic/aromatic amine (alkylarylamine)'
p602
aS'halogen derivative'
p603
aS'nitro'
p604
aS'aromatic'
p605
asg187
F-2.58
sg20
S' trifluralin'
p606
sg189
g190
ssS'mobley_2295058'
p607
(dp608
g3
S'COC(=O)c1ccc(cc1)O'
p609
sg443
g444
sg445
F0.05
sg8
(lp610
g31
asg447
S'methyl paraben'
p611
sg13
I7456
sg449
F0.26
sg450
F-9.51
sg16
(lp612
S'phenol or hydroxyhetarene'
p613
aS'carboxylic acid ester'
p614
aS'aromatic'
p615
asg456
F-9.94
sg20
S' methyl paraben'
p616
sg458
g459
ssS'mobley_819018'
p617
(dp618
g3
S'CC(=CCC/C(=C/CO)/C)C'
p619
sg273
g274
sg275
F0.021
sg8
(lp620
g31
aS'IUPAC name standardized in v0.2 to match PubChem.\n'
p621
asg277
S'(2E)-3,7-dimethylocta-2,6-dien-1-ol'
p622
sg13
I637566
sg279
g280
(g284
S'\xb8\x1e\x85\xebQ\xb8\xce?'
p623
tp624
Rp625
sg290
g280
(g284
S'\xcd\xcc\xcc\xcc\xcc\xcc\x11\xc0'
p626
tp627
Rp628
sg16
(lp629
S'primary alcohol'
p630
aS'alkene'
p631
asg298
F-2.54
sg20
S' (2E)-3,7-dimethylocta-2,6-dien-1-ol'
p632
sg300
g301
ssS'mobley_1976156'
p633
(dp634
g3
S'CCCCCCCCC=O'
p635
sg27
g28
sg29
F0.03
sg8
(lp636
g31
asg32
S'nonanal'
p637
sg13
I31289
sg14
F0.6
sg34
F-2.07
sg16
(lp638
S'aldehyde'
p639
asg39
F-2.51
sg20
S' nonanal'
p640
sg41
g42
ssS'mobley_2197088'
p641
(dp642
g3
S'CCCCCCCCCC'
p643
sg27
g28
sg29
F0.03
sg8
(lp644
g31
asg32
S'decane'
p645
sg13
I15600
sg14
F0.6
sg34
F3.16
sg16
(lp646
g68
asg39
F3.43
sg20
S' decane'
p647
sg41
g42
ssS'mobley_627267'
p648
(dp649
g3
S'CC(C)CBr'
p650
sg27
g28
sg29
F0.02
sg8
(lp651
g31
asg32
S'1-bromo-2-methyl-propane'
p652
sg13
I6555
sg14
F0.6
sg34
F-0.03
sg16
(lp653
S'alkyl bromide'
p654
asg39
F1.24
sg20
S' 1-bromo-2-methyl-propane'
p655
sg41
g42
ssS'mobley_7415647'
p656
(dp657
g3
S'CN(C)C(=O)c1ccc(cc1)[N+](=O)[O-]'
p658
sg27
S'10.1139/v92-210'
p659
sg29
F0.04
sg8
(lp660
g31
asg32
S'N,N-dimethyl-4-nitro-benzamide'
p661
sg13
I138975
sg14
F0.6
sg34
F-11.95
sg16
(lp662
S'tertiary carboxylic acid amide'
p663
aS'nitro'
p664
aS'aromatic'
p665
asg39
F-9.92
sg20
S' N,N-dimethyl-4-nitro-benzamide'
p666
sg41
g42
ssS'mobley_6812653'
p667
(dp668
g3
S'CCCCCC'
p669
sg27
g28
sg29
F0.02
sg8
(lp670
g31
asg32
S'hexane'
p671
sg13
I8058
sg14
F0.6
sg34
F2.48
sg16
(lp672
g68
asg39
F3.05
sg20
S' hexane'
p673
sg41
g42
ssS'mobley_5052949'
p674
(dp675
g3
S'CCCSCCC'
p676
sg27
g28
sg29
F0.02
sg8
(lp677
g31
asg32
S'1-propylsulfanylpropane'
p678
sg13
I8118
sg14
F0.6
sg34
F-1.28
sg16
(lp679
S'thioether'
p680
asg39
F0.49
sg20
S' 1-propylsulfanylpropane'
p681
sg41
g42
ssS'mobley_3151666'
p682
(dp683
g3
S'CCCCCCCCCCO'
p684
sg27
g28
sg29
F0.03
sg8
(lp685
g31
asg32
S'decan-1-ol'
p686
sg13
I8174
sg14
F0.6
sg34
F-3.64
sg16
(lp687
S'primary alcohol'
p688
asg39
F-2.49
sg20
S' decan-1-ol'
p689
sg41
g42
ssS'mobley_1659169'
p690
(dp691
g3
S'C1COCCN1'
p692
sg27
g28
sg29
F0.02
sg8
(lp693
g31
asg32
S'morpholine'
p694
sg13
I8083
sg14
F0.6
sg34
F-7.17
sg16
(lp695
S'dialkyl ether'
p696
aS'secondary amine'
p697
aS'secondary aliphatic amine (dialkylamine)'
p698
aS'heterocyclic'
p699
asg39
F-6.28
sg20
S' morpholine'
p700
sg41
g42
ssS'mobley_9534740'
p701
(dp702
g3
S'C([C@@H]1[C@H]([C@@H]([C@H]([C@@H](O1)O)O)O)O)O'
p703
sg443
g444
sg445
F0.09
sg8
(lp704
g31
aS'Changed IUPAC name from d-glucose to (2R,3R,4S,5S,6R)-6-(hydroxymethyl)tetrahydropyran-2,3,4,5-tetrol for better handling/standardization.'
p705
asg447
S'(2R,3R,4S,5S,6R)-6-(hydroxymethyl)tetrahydropyran-2,3,4,5-tetrol'
p706
sg13
I64689
sg449
F0.22
sg450
F-25.47
sg16
(lp707
S'hemiacetal'
p708
aS'primary alcohol'
p709
aS'secondary alcohol'
p710
aS'1,2-diol'
p711
aS'heterocyclic'
p712
asg456
F-17.01
sg20
S' d-glucose'
p713
sg458
g459
ssS'mobley_994483'
p714
(dp715
g3
S'CCBr'
p716
sg27
g28
sg29
F0.02
sg8
(lp717
g31
asg32
S'bromoethane'
p718
sg13
I6332
sg14
F0.6
sg34
F-0.74
sg16
(lp719
S'alkyl bromide'
p720
asg39
F0.93
sg20
S' bromoethane'
p721
sg41
g42
ssS'mobley_1189457'
p722
(dp723
g3
S'CSc1ccccc1'
p724
sg27
g28
sg29
F0.02
sg8
(lp725
g31
asg32
S'methylsulfanylbenzene'
p726
sg13
I7520
sg14
F0.6
sg34
F-2.73
sg16
(lp727
S'thioether'
p728
aS'aromatic'
p729
asg39
F-1.21
sg20
S' methylsulfanylbenzene'
p730
sg41
g42
ssS'mobley_8260524'
p731
(dp732
g3
S'CC#C'
p733
sg27
g28
sg29
F0.01
sg8
(lp734
g31
asg32
S'prop-1-yne'
p735
sg13
I6335
sg14
F0.6
sg34
F-0.48
sg16
(lp736
S'alkyne'
p737
asg39
F0.2
sg20
S' prop-1-yne'
p738
sg41
g42
ssS'mobley_646007'
p739
(dp740
g3
S'C1CCNC1'
p741
sg27
g28
sg29
F0.02
sg8
(lp742
g31
asg32
S'pyrrolidine'
p743
sg13
I31268
sg14
F0.6
sg34
F-5.48
sg16
(lp744
S'secondary amine'
p745
aS'secondary aliphatic amine (dialkylamine)'
p746
aS'heterocyclic'
p747
asg39
F-3.91
sg20
S' pyrrolidine'
p748
sg41
g42
ssS'mobley_8436428'
p749
(dp750
g3
S'CC(C)CC(C)C'
p751
sg27
g28
sg29
F0.03
sg8
(lp752
g31
asg32
S'2,4-dimethylpentane'
p753
sg13
I7907
sg14
F0.6
sg34
F2.83
sg16
(lp754
g68
asg39
F2.89
sg20
S' 2,4-dimethylpentane'
p755
sg41
g42
ssS'mobley_6804509'
p756
(dp757
g3
S'c1c(c(cc(c1Cl)Cl)Cl)Cl'
p758
sg27
g28
sg29
F0.02
sg8
(lp759
g31
asg32
S'1,2,4,5-tetrachlorobenzene'
p760
sg13
I7270
sg14
F0.6
sg34
F-1.34
sg16
(lp761
S'aryl chloride'
p762
aS'aromatic'
p763
asg39
F0.25
sg20
S' 1,2,4,5-tetrachlorobenzene'
p764
sg41
g42
ssS'mobley_6843802'
p765
(dp766
g3
S'c1ccc(cc1)O[C@@H](C(F)F)F'
p767
sg27
S'J. Lu, 1994, Ph.D. Thesis, University of Western Ontario'
p768
sg29
F0.02
sg8
(lp769
S'Renamed mobley_6843802 from 1,2,2-trifluoroethoxybenzene to [(1R)-1,2,2-trifluoroethoxy]benzene (the name from the 3D structure) since the former did not completely specify stereochemistry.\n'
p770
asg32
S'1,2,2-trifluoroethoxybenzene'
p771
sg13
I21269179
sg14
F0.6
sg34
F-1.29
sg16
(lp772
S'alkyl fluoride'
p773
aS'aromatic'
p774
asg39
F-2.93
sg20
S' 1,2,2-trifluoroethoxybenzene'
p775
sg41
g42
ssS'mobley_1922649'
p776
(dp777
g3
S'COP(=S)(OC)Oc1ccc(cc1)[N+](=O)[O-]'
p778
sg177
g178
sg179
F0.04
sg8
(lp779
g31
aS'Changed IUPAC name from methyparathion to methylparathion for better handling/standardization.'
p780
asg181
S'methylparathion'
p781
sg13
I4130
sg183
F0.1
sg184
F-7.19
sg16
(lp782
S'nitro'
p783
aS'thiophosphoric acid ester'
p784
aS'aromatic'
p785
asg187
F-9.87
sg20
S' methylparathion'
p786
sg189
g190
ssS'mobley_632905'
p787
(dp788
g3
S'CC(=O)c1ccc(cc1)OC'
p789
sg27
g28
sg29
F0.03
sg8
(lp790
g31
asg32
S'1-(4-methoxyphenyl)ethanone'
p791
sg13
I7476
sg14
F0.6
sg34
F-4.4
sg16
(lp792
S'ketone'
p793
aS'alkyl aryl ether'
p794
aS'aromatic'
p795
asg39
F-6.29
sg20
S' 4-acetylanisole'
p796
sg41
g42
ssS'mobley_4039055'
p797
(dp798
g3
S'c1c(c(=O)[nH]c(=O)[nH]1)Br'
p799
sg443
g444
sg445
F0.06
sg8
(lp800
g31
asg447
S'5-bromouracil'
p801
sg13
I5802
sg449
F0.55
sg450
F-18.17
sg16
(lp802
S'aryl bromide'
p803
aS'oxo(het)arene'
p804
aS'aromatic'
p805
aS'heterocyclic'
p806
asg456
F-16.61
sg20
S' 5-bromouracil'
p807
sg458
g459
ssS'mobley_5346580'
p808
(dp809
g3
S'CC(=O)C(C)(C)C'
p810
sg27
g28
sg29
F0.02
sg8
(lp811
g31
asg32
S'3,3-dimethylbutan-2-one'
p812
sg13
I6416
sg14
F0.6
sg34
F-3.11
sg16
(lp813
S'ketone'
p814
asg39
F-2.91
sg20
S' 3,3-dimethylbutan-2-one'
p815
sg41
g42
ssS'mobley_4683624'
p816
(dp817
g3
S'CCCc1ccc(cc1)O'
p818
sg27
S'10.1021/je00018a020 and Terres, E., Gebert, F., Hulsemann, H., Petereit, H., Toepsch, H., Ruppert, W., Brennstoff-Chemie 1955, 36, 272-274'
p819
sg29
F0.02
sg8
(lp820
g31
aS'Experimental value updated 10/22/13 as the average of -5.90 and -4.52, which are measured experimental values from Varhanickova, D., Shiu, W., Mackay, D., J. Chem. Eng. Data 1995, 40, 448-451 and Terres, E., Gebert, F., Hulsemann, H., Petereit, H., Toepsch, H., Ruppert, W., Brennstoff-Chemie 1955, 36, 272-274., respectively. The uncertainty was taken as the standard deviation across these two measurements.\n'
p821
asg32
S'4-propylphenol'
p822
sg13
I12580
sg14
F0.69
sg34
g280
(g284
S'\xd7\xa3p=\n\xd7\x14\xc0'
p823
tp824
Rp825
sg16
(lp826
S'phenol or hydroxyhetarene'
p827
aS'aromatic'
p828
asg39
F-5.5
sg20
S' 4-propylphenol'
p829
sg41
g42
ssS'mobley_6619554'
p830
(dp831
g3
S'CCCCC(=O)OCC'
p832
sg27
g28
sg29
F0.03
sg8
(lp833
g31
asg32
S'ethyl pentanoate'
p834
sg13
I10882
sg14
F0.6
sg34
F-2.49
sg16
(lp835
S'carboxylic acid ester'
p836
asg39
F-3.09
sg20
S' ethyl pentanoate'
p837
sg41
g42
ssS'mobley_3034976'
p838
(dp839
g3
S'CC(=O)O'
p840
sg27
g28
sg29
F0.02
sg8
(lp841
g31
asg32
S'acetic acid'
p842
sg13
I176
sg14
F0.6
sg34
F-6.69
sg16
(lp843
S'carboxylic acid'
p844
asg39
F-5.95
sg20
S' acetic acid'
p845
sg41
g42
ssS'mobley_8426916'
p846
(dp847
g3
S'CCNCC'
p848
sg27
g28
sg29
F0.02
sg8
(lp849
g31
asg32
S'N-ethylethanamine'
p850
sg13
I8021
sg14
F0.6
sg34
F-4.07
sg16
(lp851
S'secondary amine'
p852
aS'secondary aliphatic amine (dialkylamine)'
p853
asg39
F-2.72
sg20
S' N-ethylethanamine'
p854
sg41
g42
ssS'mobley_550662'
p855
(dp856
g3
S'CC(OC)(OC)OC'
p857
sg27
S'10.1021/ja00802a021'
p858
sg29
F0.02
sg8
(lp859
g31
asg32
S'1,1,1-trimethoxyethane'
p860
sg13
I15050
sg14
F0.6
sg34
F-4.42
sg16
(lp861
S'orthocarboxylic acid derivative'
p862
aS'orthoester'
p863
asg39
F-3.89
sg20
S' 1,1,1-trimethoxyethane'
p864
sg41
g42
ssS'mobley_755351'
p865
(dp866
g3
S'COc1cccc(c1)N'
p867
sg27
g28
sg29
F0.03
sg8
(lp868
g31
asg32
S'3-methoxyaniline'
p869
sg13
I10824
sg14
F0.6
sg34
F-7.29
sg16
(lp870
S'alkyl aryl ether'
p871
aS'primary amine'
p872
aS'primary aromatic amine'
p873
aS'aromatic'
p874
asg39
F-7.45
sg20
S' 3-methoxyaniline'
p875
sg41
g42
ssS'mobley_2751110'
p876
(dp877
g3
S'c1cc(ccc1[N+](=O)[O-])O'
p878
sg27
g28
sg29
F0.02
sg8
(lp879
g31
asg32
S'4-nitrophenol'
p880
sg13
I980
sg14
F0.6
sg34
F-10.64
sg16
(lp881
S'phenol or hydroxyhetarene'
p882
aS'nitro'
p883
aS'aromatic'
p884
asg39
F-8.22
sg20
S' 4-nitrophenol'
p885
sg41
g42
ssS'mobley_5977084'
p886
(dp887
g3
S'Cc1cccnc1'
p888
sg27
g28
sg29
F0.02
sg8
(lp889
g31
asg32
S'3-methylpyridine'
p890
sg13
I7970
sg14
F0.6
sg34
F-4.77
sg16
(lp891
S'aromatic'
p892
aS'heterocyclic'
p893
asg39
F-3.19
sg20
S' 3-methylpyridine'
p894
sg41
g42
ssS'mobley_5816127'
p895
(dp896
g3
S'COCCO'
p897
sg27
S'10.1007/BF00646936 and 10.1136/oem.45.8.561'
p898
sg29
F0.03
sg8
(lp899
g31
aS'Updated 10/22/13 using the mean of experimental data from two sources listed as experimental references.\n'
p900
asg32
S'2-methoxyethanol'
p901
sg13
I8019
sg14
F0.4
sg34
g280
(g284
S'z\x14\xaeG\xe1z\x1a\xc0'
p902
tp903
Rp904
sg16
(lp905
S'primary alcohol'
p906
aS'dialkyl ether'
p907
asg39
F-5.37
sg20
S' 2-methoxyethanol'
p908
sg41
g42
ssS'mobley_6257907'
p909
(dp910
g3
S'c1cc(cc(c1)Cl)N'
p911
sg27
g28
sg29
F0.02
sg8
(lp912
g31
asg32
S'3-chloroaniline'
p913
sg13
I7932
sg14
F0.6
sg34
F-5.82
sg16
(lp914
S'primary amine'
p915
aS'primary aromatic amine'
p916
aS'aryl chloride'
p917
aS'aromatic'
p918
asg39
F-5.37
sg20
S' 3-chloroaniline'
p919
sg41
g42
ssS'mobley_1963873'
p920
(dp921
g3
S'CC(=O)NC'
p922
sg27
g28
sg29
F0.03
sg8
(lp923
g31
asg32
S'N-methylacetamide'
p924
sg13
I6582
sg14
F0.6
sg34
F-10.0
sg16
(lp925
S'secondary carboxylic acid amide'
p926
asg39
F-8.39
sg20
S' N-methylacetamide'
p927
sg41
g42
ssS'mobley_7015518'
p928
(dp929
g3
S'COC'
p930
sg27
g28
sg29
F0.02
sg8
(lp931
g31
asg32
S'methoxymethane'
p932
sg13
I8254
sg14
F0.6
sg34
F-1.91
sg16
(lp933
S'dialkyl ether'
p934
asg39
F-0.85
sg20
S' methoxymethane'
p935
sg41
g42
ssS'mobley_6195751'
p936
(dp937
g3
S'COc1c(c(c(c(c1Cl)C=O)Cl)OC)O'
p938
sg273
g274
sg275
F0.024
sg8
(lp939
g31
asg277
S'2,6-dichlorosyringaldehyde'
p940
sg13
I53476
sg279
g280
(g284
S'R\xb8\x1e\x85\xebQ\xe8?'
p941
tp942
Rp943
sg290
F-8.68
sg16
(lp944
S'aldehyde'
p945
aS'phenol or hydroxyhetarene'
p946
aS'alkyl aryl ether'
p947
aS'aryl chloride'
p948
aS'aromatic'
p949
asg298
F-9.94
sg20
S' 2,6-dichlorosyringaldehyde'
p950
sg300
g301
ssS'mobley_5390332'
p951
(dp952
g3
S'CCCC(=O)OC'
p953
sg27
g28
sg29
F0.02
sg8
(lp954
g31
asg32
S'methyl butanoate'
p955
sg13
I12180
sg14
F0.6
sg34
F-2.83
sg16
(lp956
S'carboxylic acid ester'
p957
asg39
F-3.32
sg20
S' methyl butanoate'
p958
sg41
g42
ssS'mobley_1017962'
p959
(dp960
g3
S'CCCCCC(=O)OC'
p961
sg27
g28
sg29
F0.03
sg8
(lp962
g31
asg32
S'methyl hexanoate'
p963
sg13
I7824
sg14
F0.6
sg34
F-2.49
sg16
(lp964
S'carboxylic acid ester'
p965
asg39
F-3.02
sg20
S' methyl hexanoate'
p966
sg41
g42
ssS'mobley_5538249'
p967
(dp968
g3
S'c1ccc(cc1)c2c(cc(cc2Cl)Cl)Cl'
p969
sg212
g213
sg214
F0.03
sg8
(lp970
g31
asg216
S'1,3,5-trichloro-2-phenyl-benzene'
p971
sg13
I37247
sg218
F0.1
sg219
F-2.16
sg16
(lp972
S'aryl chloride'
p973
aS'aromatic'
p974
asg222
F-1.14
sg20
S' 1,3,5-trichloro-2-phenyl-benzene'
p975
sg224
g225
ssS'mobley_9741965'
p976
(dp977
g3
S'CC(CCO[N+](=O)[O-])O[N+](=O)[O-]'
p978
sg273
g274
sg275
F0.021
sg8
(lp979
g31
asg277
S'1,3-bis-(nitrooxy)butane'
p980
sg13
I138747
sg279
g280
(g284
S'\xf6(\\\x8f\xc2\xf5\xd8?'
p981
tp982
Rp983
sg290
g280
(g284
S')\\\x8f\xc2\xf5(\x11\xc0'
p984
tp985
Rp986
sg16
(lp987
S'nitrate'
p988
asg298
F-5.35
sg20
S' 1,3-bis-(nitrooxy)butane'
p989
sg300
g301
ssS'mobley_5616693'
p990
(dp991
g3
S'C[C@@H]1CC[C@H](C(=O)C1)C(C)C'
p992
sg273
g274
sg275
F0.021
sg8
(lp993
g31
asg277
S'(2S,5R)-2-isopropyl-5-methylcyclohexanone'
p994
sg13
I26447
sg279
F0.25
sg290
F-2.53
sg16
(lp995
S'ketone'
p996
asg298
F-3.42
sg20
S' i-menthone'
p997
sg300
g301
ssS'mobley_9114381'
p998
(dp999
g3
S'COC(=O)CC#N'
p1000
sg27
g46
sg29
F0.02
sg8
(lp1001
g31
asg32
S'methyl 2-cyanoacetate'
p1002
sg13
I7747
sg14
F0.6
sg34
F-6.72
sg16
(lp1003
S'carboxylic acid ester'
p1004
aS'carbonitrile'
p1005
asg39
F-6.34
sg20
S' methyl 2-cyanoacetate'
p1006
sg41
g42
ssS'mobley_9209581'
p1007
(dp1008
g3
S'CN(C)C'
p1009
sg27
g28
sg29
F0.02
sg8
(lp1010
g31
asg32
S'N,N-dimethylmethanamine'
p1011
sg13
I1146
sg14
F0.6
sg34
F-3.2
sg16
(lp1012
S'tertiary amine'
p1013
aS'tertiary aliphatic amine (trialkylamine)'
p1014
asg39
F-2.32
sg20
S' N,N-dimethylmethanamine'
p1015
sg41
g42
ssS'mobley_1160109'
p1016
(dp1017
g3
S'C[C@@H]1CC[C@H](CC1=O)C(=C)C'
p1018
sg273
g274
sg275
F0.021
sg8
(lp1019
g31
asg277
S'(2R,5R)-2-methyl-5-(1-methylethenyl)-cyclohexanone'
p1020
sg13
I22227
sg279
F0.21
sg290
F-3.75
sg16
(lp1021
S'ketone'
p1022
aS'alkene'
p1023
asg298
F-3.31
sg20
S' (E)-dihydrocarvone'
p1024
sg300
g301
ssS'mobley_3515580'
p1025
(dp1026
g3
S'COc1ccccc1O'
p1027
sg273
g274
sg275
F0.018
sg8
(lp1028
g31
asg277
S'2-methoxyphenol'
p1029
sg13
I460
sg279
g280
(g284
S'\x9a\x99\x99\x99\x99\x99\xb9?'
p1030
tp1031
Rp1032
sg290
g280
(g284
S'\xc3\xf5(\\\x8f\xc2\x17\xc0'
p1033
tp1034
Rp1035
sg16
(lp1036
S'phenol or hydroxyhetarene'
p1037
aS'alkyl aryl ether'
p1038
aS'aromatic'
p1039
asg298
F-4.62
sg20
S' 2-methoxyphenol'
p1040
sg300
g301
ssS'mobley_1571523'
p1041
(dp1042
g3
S'Cc1cccc(c1C)O'
p1043
sg27
g28
sg29
F0.03
sg8
(lp1044
g31
asg32
S'2,3-dimethylphenol'
p1045
sg13
I10687
sg14
F0.6
sg34
F-6.16
sg16
(lp1046
S'phenol or hydroxyhetarene'
p1047
aS'aromatic'
p1048
asg39
F-4.67
sg20
S' 2,3-dimethylphenol'
p1049
sg41
g42
ssS'mobley_2023925'
p1050
(dp1051
g3
S'[C@@H](C(F)(F)F)(OC(F)F)Cl'
p1052
sg27
g28
sg29
F0.02
sg8
(lp1053
S'Renamed mobley_2023925 from 2-chloro-2-(difluoromethoxy)-1,1,1-trifluoro-ethane to (2R)-2-chloro-2-(difluoromethoxy)-1,1,1-trifluoro-ethane (the name from the 3D structure) since the former did not completely specify stereochemistry.\n'
p1054
asg32
S'2-chloro-2-(difluoromethoxy)-1,1,1-trifluoro-ethane'
p1055
sg13
I11095291
sg14
F0.6
sg34
F0.1
sg16
(lp1056
S'alkyl chloride'
p1057
aS'orthocarboxylic acid derivative'
p1058
asg39
F-1.38
sg20
S' isoflurane'
p1059
sg41
g42
ssS'mobley_2771569'
p1060
(dp1061
g3
S'CN1CCNCC1'
p1062
sg27
g28
sg29
F0.03
sg8
(lp1063
g31
asg32
S'1-methylpiperazine'
p1064
sg13
I53167
sg14
F0.6
sg34
F-7.77
sg16
(lp1065
S'secondary amine'
p1066
aS'secondary aliphatic amine (dialkylamine)'
p1067
aS'tertiary amine'
p1068
aS'tertiary aliphatic amine (trialkylamine)'
p1069
aS'heterocyclic'
p1070
asg39
F-8.3
sg20
S' 1-methylpiperazine'
p1071
sg41
g42
ssS'mobley_8785107'
p1072
(dp1073
g3
S'C[C@H]1CC[C@@H](O1)C'
p1074
sg27
g28
sg29
F0.02
sg8
(lp1075
S'Renamed mobley_8785107 from 2,5-dimethyltetrahydrofuran to (2S,5S)-2,5-dimethyltetrahydrofuran (the name from the 3D structure) since the former did not completely specify stereochemistry.\n'
p1076
asg32
S'2,5-dimethyltetrahydrofuran'
p1077
sg13
I13855
sg14
F0.6
sg34
F-2.92
sg16
(lp1078
S'dialkyl ether'
p1079
aS'heterocyclic'
p1080
asg39
F-1.89
sg20
S' 2,5-dimethyltetrahydrofuran'
p1081
sg41
g42
ssS'mobley_2881590'
p1082
(dp1083
g3
S'CC(C)CO[N+](=O)[O-]'
p1084
sg177
g178
sg179
F0.03
sg8
(lp1085
g31
asg181
S'isobutyl nitrate'
p1086
sg13
I10974
sg183
F0.1
sg184
F-1.88
sg16
(lp1087
S'nitrate'
p1088
asg187
F-1.72
sg20
S' isobutyl nitrate'
p1089
sg189
g190
ssS'mobley_313406'
p1090
(dp1091
g3
S'CCCO'
p1092
sg27
g28
sg29
F0.02
sg8
(lp1093
g31
asg32
S'propan-1-ol'
p1094
sg13
I1031
sg14
F0.6
sg34
F-4.85
sg16
(lp1095
S'primary alcohol'
p1096
asg39
F-3.12
sg20
S' propan-1-ol'
p1097
sg41
g42
ssS'mobley_3274817'
p1098
(dp1099
g3
S'CC[C@@H](C)c1cc(cc(c1O)[N+](=O)[O-])[N+](=O)[O-]'
p1100
sg177
g178
sg179
F0.04
sg8
(lp1101
g31
aS'Changed IUPAC name from dinoseb to 2-[(1R)-1-methylpropyl]-4,6-dinitro-phenolate for better handling/standardization.'
p1102
asg181
S'2-[(1R)-1-methylpropyl]-4,6-dinitro-phenolate'
p1103
sg13
I688400
sg183
F1.93
sg184
F-6.23
sg16
(lp1104
S'phenol or hydroxyhetarene'
p1105
aS'nitro'
p1106
aS'aromatic'
p1107
asg187
F-5.76
sg20
S' dinoseb'
p1108
sg189
g190
ssS'mobley_9979854'
p1109
(dp1110
g3
S'C[C@H](C(F)(F)F)O'
p1111
sg5
g6
sg7
F0.1
sg8
(lp1112
S'Renamed mobley_9979854 from 1,1,1-trifluoropropan-2-ol to (2R)-1,1,1-trifluoropropan-2-ol (the name from the 3D structure) since the former did not completely specify stereochemistry.\n'
p1113
asg11
S'111-trifluoropropan-2-ol'
p1114
sg13
I6993809
sg14
F0.2
sg15
F-4.2
sg16
(lp1115
S'secondary alcohol'
p1116
aS'halogen derivative'
p1117
asg19
F-3.8
sg20
S' 111-trifluoropropan-2-ol'
p1118
sg22
g23
ssS'mobley_2126135'
p1119
(dp1120
g3
S'CCc1ccccc1O'
p1121
sg273
g274
sg275
F0.019
sg8
(lp1122
g31
asg277
S'2-ethylphenol'
p1123
sg13
I6997
sg279
g280
(g284
S'\x9a\x99\x99\x99\x99\x99\xb9?'
p1124
tp1125
Rp1126
sg290
g280
(g284
S'\xa4p=\n\xd7\xa3\x16\xc0'
p1127
tp1128
Rp1129
sg16
(lp1130
S'phenol or hydroxyhetarene'
p1131
aS'aromatic'
p1132
asg298
F-4.7
sg20
S' 2-ethylphenol'
p1133
sg300
g301
ssS'mobley_6743808'
p1134
(dp1135
g3
S'Cc1ccc(cc1C)O'
p1136
sg27
g28
sg29
F0.03
sg8
(lp1137
g31
asg32
S'3,4-dimethylphenol'
p1138
sg13
I7249
sg14
F0.6
sg34
F-6.5
sg16
(lp1139
S'phenol or hydroxyhetarene'
p1140
aS'aromatic'
p1141
asg39
F-5.33
sg20
S' 3,4-dimethylphenol'
p1142
sg41
g42
ssS'mobley_2493732'
p1143
(dp1144
g3
S'C=C(Cl)Cl'
p1145
sg27
g28
sg29
F0.02
sg8
(lp1146
g31
asg32
S'1,1-dichloroethylene'
p1147
sg13
I6366
sg14
F0.6
sg34
F0.25
sg16
(lp1148
S'ketene acetal or derivative'
p1149
aS'halogen derivative'
p1150
asg39
F1.24
sg20
S' 1,1-dichloroethylene'
p1151
sg41
g42
ssS'mobley_9407874'
p1152
(dp1153
g3
S'CCCCCCC(=O)C'
p1154
sg27
g28
sg29
F0.03
sg8
(lp1155
g31
asg32
S'octan-2-one'
p1156
sg13
I8093
sg14
F0.6
sg34
F-2.88
sg16
(lp1157
S'ketone'
p1158
asg39
F-2.3
sg20
S' octan-2-one'
p1159
sg41
g42
ssS'mobley_7142697'
p1160
(dp1161
g3
S'CCCCCN'
p1162
sg27
g28
sg29
F0.02
sg8
(lp1163
g31
asg32
S'pentan-1-amine'
p1164
sg13
I8060
sg14
F0.6
sg34
F-4.09
sg16
(lp1165
S'primary amine'
p1166
aS'primary aliphatic amine (alkylamine)'
p1167
asg39
F-2.99
sg20
S' pentan-1-amine'
p1168
sg41
g42
ssS'mobley_1896013'
p1169
(dp1170
g3
S'C1[C@H]([C@@H]([C@H]([C@H](O1)O)O)O)O'
p1171
sg443
g444
sg445
F0.1
sg8
(lp1172
g31
aS'Changed IUPAC name from d-xylose to (2S,3R,4S,5R)-oxane-2,3,4,5-tetrol for better handling/standardization.'
p1173
asg447
S'(2S,3R,4S,5R)-oxane-2,3,4,5-tetrol'
p1174
sg13
I6027
sg449
F0.27
sg450
F-20.52
sg16
(lp1175
S'hemiacetal'
p1176
aS'secondary alcohol'
p1177
aS'1,2-diol'
p1178
aS'heterocyclic'
p1179
asg456
F-13.7
sg20
S' xylose'
p1180
sg458
g459
ssS'mobley_49274'
p1181
(dp1182
g3
S'CCCCCC#C'
p1183
sg27
g28
sg29
F0.02
sg8
(lp1184
g31
asg32
S'hept-1-yne'
p1185
sg13
I12350
sg14
F0.6
sg34
F0.6
sg16
(lp1186
S'alkyne'
p1187
asg39
F0.84
sg20
S' hept-1-yne'
p1188
sg41
g42
ssS'mobley_4694328'
p1189
(dp1190
g3
S'CCCCCCCC=O'
p1191
sg27
g28
sg29
F0.03
sg8
(lp1192
g31
asg32
S'octanal'
p1193
sg13
I454
sg14
F0.6
sg34
F-2.29
sg16
(lp1194
S'aldehyde'
p1195
asg39
F-2.57
sg20
S' octanal'
p1196
sg41
g42
ssS'mobley_7913234'
p1197
(dp1198
g3
S'CCCCOC[C@H](C)O'
p1199
sg273
g274
sg275
F0.023
sg8
(lp1200
S'Renamed mobley_7913234 from 1-butoxy-2-propanol to (2S)-1-butoxypropan-2-ol (the name from the 3D structure) since the former did not completely specify stereochemistry.\n'
p1201
asg277
S'1-butoxy-2-propanol'
p1202
sg13
I21210
sg279
g280
(g284
S'333333\xc3?'
p1203
tp1204
Rp1205
sg290
g280
(g284
S'\xecQ\xb8\x1e\x85\xeb\x16\xc0'
p1206
tp1207
Rp1208
sg16
(lp1209
S'secondary alcohol'
p1210
aS'dialkyl ether'
p1211
asg298
F-3.78
sg20
S' 1-butoxy-2-propanol'
p1212
sg300
g301
ssS'mobley_1178614'
p1213
(dp1214
g3
S'c1ccc(c(c1)O)Cl'
p1215
sg27
g28
sg29
F0.03
sg8
(lp1216
g31
asg32
S'2-chlorophenol'
p1217
sg13
I7245
sg14
F0.6
sg34
F-4.55
sg16
(lp1218
S'phenol or hydroxyhetarene'
p1219
aS'aryl chloride'
p1220
aS'aromatic'
p1221
asg39
F-3.23
sg20
S' 2-chlorophenol'
p1222
sg41
g42
ssS'mobley_951560'
p1223
(dp1224
g3
S'C1CNCCN1'
p1225
sg27
g28
sg29
F0.03
sg8
(lp1226
g31
asg32
S'piperazine'
p1227
sg13
I4837
sg14
F0.6
sg34
F-7.4
sg16
(lp1228
S'secondary amine'
p1229
aS'secondary aliphatic amine (dialkylamine)'
p1230
aS'heterocyclic'
p1231
asg39
F-8.34
sg20
S' piperazine'
p1232
sg41
g42
ssS'mobley_3211679'
p1233
(dp1234
g3
S'C1CCC=CC1'
p1235
sg273
g274
sg275
F0.017
sg8
(lp1236
g31
asg277
S'cyclohexene'
p1237
sg13
I8079
sg279
g280
(g284
S'\x9a\x99\x99\x99\x99\x99\xb9?'
p1238
tp1239
Rp1240
sg290
g280
(g284
S'\xecQ\xb8\x1e\x85\xeb\xc1?'
p1241
tp1242
Rp1243
sg16
(lp1244
S'alkene'
p1245
asg298
F1.14
sg20
S' cyclohexene'
p1246
sg300
g301
ssS'mobley_6359156'
p1247
(dp1248
g3
S'c1ccc(cc1)c2cc(ccc2Cl)Cl'
p1249
sg212
g213
sg214
F0.03
sg8
(lp1250
g31
asg216
S'1,4-dichloro-2-phenyl-benzene'
p1251
sg13
I36980
sg218
F0.1
sg219
F-2.46
sg16
(lp1252
S'aryl chloride'
p1253
aS'aromatic'
p1254
asg222
F-1.77
sg20
S' 1,4-dichloro-2-phenyl-benzene'
p1255
sg224
g225
ssS'mobley_3234716'
p1256
(dp1257
g3
S'Cc1ccc(cc1)C'
p1258
sg27
g28
sg29
F0.02
sg8
(lp1259
g31
asg32
S'p-xylene'
p1260
sg13
I7809
sg14
F0.6
sg34
F-0.8
sg16
(lp1261
S'aromatic'
p1262
asg39
F-0.67
sg20
S' p-xylene'
p1263
sg41
g42
ssS'mobley_5286200'
p1264
(dp1265
g3
S'C(CCCl)CCl'
p1266
sg27
g28
sg29
F0.02
sg8
(lp1267
g31
asg32
S'1,4-dichlorobutane'
p1268
sg13
I8059
sg14
F0.6
sg34
F-2.32
sg16
(lp1269
S'alkyl chloride'
p1270
asg39
F-0.27
sg20
S' 1,4-dichlorobutane'
p1271
sg41
g42
ssS'mobley_7988076'
p1272
(dp1273
g3
S'c1cc(ccc1C=O)O'
p1274
sg27
g28
sg29
F0.03
sg8
(lp1275
g31
asg32
S'4-hydroxybenzaldehyde'
p1276
sg13
I126
sg14
F0.6
sg34
F-8.83
sg16
(lp1277
S'aldehyde'
p1278
aS'phenol or hydroxyhetarene'
p1279
aS'aromatic'
p1280
asg39
F-10.0
sg20
S' 4-hydroxybenzaldehyde'
p1281
sg41
g42
ssS'mobley_6854178'
p1282
(dp1283
g3
S'CC(C)OC=O'
p1284
sg27
g28
sg29
F0.02
sg8
(lp1285
g31
asg32
S'isopropyl formate'
p1286
sg13
I12257
sg14
F0.6
sg34
F-2.02
sg16
(lp1287
S'carboxylic acid ester'
p1288
asg39
F-2.64
sg20
S' isopropyl formate'
p1289
sg41
g42
ssS'mobley_9617923'
p1290
(dp1291
g3
S'CCCCCCCCC(=O)C'
p1292
sg27
g28
sg29
F0.03
sg8
(lp1293
g31
asg32
S'decan-2-one'
p1294
sg13
I12741
sg14
F0.6
sg34
F-2.34
sg16
(lp1295
S'ketone'
p1296
asg39
F-1.98
sg20
S' decan-2-one'
p1297
sg41
g42
ssS'mobley_2402487'
p1298
(dp1299
g3
S'CCOC(=O)CC(=O)OCC'
p1300
sg27
S'10.1139/v91-2'
p1301
sg29
F0.04
sg8
(lp1302
g31
asg32
S'diethyl propanedioate'
p1303
sg13
I7761
sg14
F0.6
sg34
F-6.0
sg16
(lp1304
S'carboxylic acid ester'
p1305
asg39
F-6.45
sg20
S' diethyl propanedioate'
p1306
sg41
g42
ssS'mobley_1235151'
p1307
(dp1308
g3
S'CCCCC[N+](=O)[O-]'
p1309
sg27
g28
sg29
F0.02
sg8
(lp1310
g31
asg32
S'1-nitropentane'
p1311
sg13
I220639
sg14
F0.6
sg34
F-2.82
sg16
(lp1312
S'nitro'
p1313
asg39
F-1.29
sg20
S' 1-nitropentane'
p1314
sg41
g42
ssS'mobley_2689721'
p1315
(dp1316
g3
S'C1CCCCC1'
p1317
sg27
g28
sg29
F0.02
sg8
(lp1318
g31
asg32
S'cyclohexane'
p1319
sg13
I8078
sg14
F0.6
sg34
F1.23
sg16
(lp1320
g68
asg39
F1.67
sg20
S' cyclohexane'
p1321
sg41
g42
ssS'mobley_4613090'
p1322
(dp1323
g3
S'c1ccc(cc1)Cn2ccnc2'
p1324
sg273
g274
sg275
F0.022
sg8
(lp1325
g31
asg277
S'1-benzylimidazole'
p1326
sg13
I77918
sg279
g280
(g284
S'\xb8\x1e\x85\xebQ\xb8\xbe?'
p1327
tp1328
Rp1329
sg290
g280
(g284
S'\x85\xebQ\xb8\x1e\x85\x1e\xc0'
p1330
tp1331
Rp1332
sg16
(lp1333
S'aromatic'
p1334
aS'heterocyclic'
p1335
asg298
F-7.94
sg20
S' 1-benzylimidazole'
p1336
sg300
g301
ssS'mobley_1838110'
p1337
(dp1338
g3
S'C(C(F)(Cl)Cl)(F)(F)Cl'
p1339
sg27
g28
sg29
F0.02
sg8
(lp1340
g31
asg32
S'1,1,2-trichloro-1,2,2-trifluoro-ethane'
p1341
sg13
I6428
sg14
F0.6
sg34
F1.77
sg16
(lp1342
S'halogen derivative'
p1343
asg39
F1.53
sg20
S' 1,1,2-Trichlorotrifluoroethane'
p1344
sg41
g42
ssS'mobley_3083321'
p1345
(dp1346
g3
S'COCOC'
p1347
sS'expt_reference'
p1348
S'10.1021/jm070549+'
p1349
sS'd_calc'
p1350
F0.1
sS'notes'
p1351
(lp1352
S'Topology and coordinate files re-generated 10/9/13 from original .mol2 files.'
p1353
ag31
aS'Experimental uncertainty estimate updated to 0.2 as of v0.2 to match uncertainty estimate given in Nicholls et al. paper.\n'
p1354
asS'iupac'
p1355
S'dimethoxymethane'
p1356
sg13
I8020
sg14
F0.2
sS'expt'
p1357
F-2.93
sg16
(lp1358
S'acetal'
p1359
asS'calc'
p1360
F-3.2
sg20
S' dimethoxymethane'
p1361
sS'calc_reference'
p1362
g1349
ssS'mobley_3572203'
p1363
(dp1364
g3
S'CCCCCOC(=O)CC'
p1365
sg27
g28
sg29
F0.03
sg8
(lp1366
g31
asg32
S'pentyl propanoate'
p1367
sg13
I12217
sg14
F0.6
sg34
F-2.11
sg16
(lp1368
S'carboxylic acid ester'
p1369
asg39
F-3.36
sg20
S' pentyl propanoate'
p1370
sg41
g42
ssS'mobley_3843583'
p1371
(dp1372
g3
S'c1ccc2c(c1)cccc2N'
p1373
sg27
g28
sg29
F0.03
sg8
(lp1374
g31
asg32
S'naphthalen-1-amine'
p1375
sg13
I8640
sg14
F0.6
sg34
F-7.28
sg16
(lp1376
S'primary amine'
p1377
aS'primary aromatic amine'
p1378
aS'aromatic'
p1379
asg39
F-7.76
sg20
S' naphthalen-1-amine'
p1380
sg41
g42
ssS'mobley_8127829'
p1381
(dp1382
g3
S'CCc1ccccc1'
p1383
sg27
g28
sg29
F0.02
sg8
(lp1384
g31
asg32
S'ethylbenzene'
p1385
sg13
I7500
sg14
F0.6
sg34
F-0.79
sg16
(lp1386
S'aromatic'
p1387
asg39
F-0.59
sg20
S' ethylbenzene'
p1388
sg41
g42
ssS'mobley_7983227'
p1389
(dp1390
g3
S'CC[C@@H](C)CO'
p1391
sg27
g28
sg29
F0.02
sg8
(lp1392
S'Renamed mobley_7983227 from 2-methylbutan-1-ol to (2R)-2-methylbutan-1-ol (the name from the 3D structure) since the former did not completely specify stereochemistry.\n'
p1393
asg32
S'2-methylbutan-1-ol'
p1394
sg13
I8723
sg14
F0.6
sg34
F-4.42
sg16
(lp1395
S'primary alcohol'
p1396
asg39
F-2.78
sg20
S' 2-methylbutan-1-ol'
p1397
sg41
g42
ssS'mobley_2390199'
p1398
(dp1399
g3
S'CCCC(=O)CCC'
p1400
sg27
g28
sg29
F0.02
sg8
(lp1401
g31
asg32
S'heptan-4-one'
p1402
sg13
I31246
sg14
F0.6
sg34
F-2.92
sg16
(lp1403
S'ketone'
p1404
asg39
F-2.68
sg20
S' heptan-4-one'
p1405
sg41
g42
ssS'mobley_2960202'
p1406
(dp1407
g3
S'c1c2c(cc(c1Cl)Cl)Oc3c(c(c(c(c3Cl)Cl)Cl)Cl)O2'
p1408
sg212
g213
sg214
F0.03
sg8
(lp1409
g31
asg216
S'1,2,3,4,7,8-hexachlorodibenzo-p-dioxin'
p1410
sg13
I38251
sg218
F1.0
sg219
F-3.71
sg16
(lp1411
S'diaryl ether'
p1412
aS'aryl chloride'
p1413
aS'aromatic'
p1414
aS'heterocyclic'
p1415
asg222
F-1.9
sg20
S' 1,2,3,4,7,8-hexachlorodibenzo-p-dioxin'
p1416
sg224
g225
ssS'mobley_5326154'
p1417
(dp1418
g3
S'CN(C)c1ccccc1'
p1419
sg27
g28
sg29
F0.02
sg8
(lp1420
g31
asg32
S'N,N-dimethylaniline'
p1421
sg13
I949
sg14
F0.6
sg34
F-3.45
sg16
(lp1422
S'tertiary amine'
p1423
aS'tertiary aliphatic/aromatic amine (alkylarylamine)'
p1424
aS'aromatic'
p1425
asg39
F-4.7
sg20
S' N,N-dimethylaniline'
p1426
sg41
g42
ssS'mobley_7176290'
p1427
(dp1428
g3
S'c1cc(cc(c1)O)[N+](=O)[O-]'
p1429
sg27
g28
sg29
F0.03
sg8
(lp1430
g31
asg32
S'3-nitrophenol'
p1431
sg13
I11137
sg14
F0.6
sg34
F-9.62
sg16
(lp1432
S'phenol or hydroxyhetarene'
p1433
aS'nitro'
p1434
aS'aromatic'
p1435
asg39
F-7.66
sg20
S' 3-nitrophenol'
p1436
sg41
g42
ssS'mobley_6334915'
p1437
(dp1438
g3
S'COP(=O)([C@H](C(Cl)(Cl)Cl)O)OC'
p1439
sg177
g178
sg179
F0.04
sg8
(lp1440
g31
aS'Changed IUPAC name from trichlorfon to (1R)-2,2,2-trichloro-1-dimethoxyphosphoryl-ethanol for better handling/standardization.'
p1441
asg181
S'(1R)-2,2,2-trichloro-1-dimethoxyphosphoryl-ethanol'
p1442
sg13
I6604183
sg183
F1.93
sg184
F-12.74
sg16
(lp1443
S'halogen derivative'
p1444
aS'phosphonic acid derivative'
p1445
aS'phosphonic acid ester'
p1446
asg187
F-14.03
sg20
S' trichlorfon'
p1447
sg189
g190
ssS'mobley_6497672'
p1448
(dp1449
g3
S'C/C=C/C=O'
p1450
sg27
g28
sg29
F0.02
sg8
(lp1451
S'Renamed mobley_6497672 from but-2-enal to (E)-but-2-enal (the name from the 3D structure) since the former did not completely specify stereochemistry.\n'
p1452
asg32
S'but-2-enal'
p1453
sg13
I447466
sg14
F0.6
sg34
F-4.22
sg16
(lp1454
S'aldehyde'
p1455
aS'alkene'
p1456
asg39
F-3.66
sg20
S' but-2-enal'
p1457
sg41
g42
ssS'mobley_5665561'
p1458
(dp1459
g3
S'Cc1cc(c2ccccc2c1)C'
p1460
sg27
g28
sg29
F0.03
sg8
(lp1461
g31
asg32
S'1,3-dimethylnaphthalene'
p1462
sg13
I11327
sg14
F0.6
sg34
F-2.47
sg16
(lp1463
S'aromatic'
p1464
asg39
F-2.79
sg20
S' 1,3-dimethylnaphthalene'
p1465
sg41
g42
ssS'mobley_4850657'
p1466
(dp1467
g3
S'CS(=O)(=O)Cl'
p1468
sg27
S'10.1139/v98-084'
p1469
sg29
F0.02
sg8
(lp1470
g31
asg32
S'methanesulfonyl chloride'
p1471
sg13
I31297
sg14
F0.6
sg34
F-4.87
sg16
(lp1472
S'sulfonyl halide'
p1473
asg39
F-6.33
sg20
S' methanesulfonyl chloride'
p1474
sg41
g42
ssS'mobley_8809190'
p1475
(dp1476
g3
S'CCCCc1ccccc1'
p1477
sg27
g28
sg29
F0.02
sg8
(lp1478
g31
asg32
S'butylbenzene'
p1479
sg13
I7705
sg14
F0.6
sg34
F-0.4
sg16
(lp1480
S'aromatic'
p1481
asg39
F-0.3
sg20
S' butylbenzene'
p1482
sg41
g42
ssS'mobley_1743409'
p1483
(dp1484
g3
S'CCOC(=O)CCC(=O)OCC'
p1485
sg27
g1301
sg29
F0.04
sg8
(lp1486
g31
asg32
S'diethyl butanedioate'
p1487
sg13
I31249
sg14
F0.6
sg34
F-5.71
sg16
(lp1488
S'carboxylic acid ester'
p1489
asg39
F-8.47
sg20
S' diethyl butanedioate'
p1490
sg41
g42
ssS'mobley_900088'
p1491
(dp1492
g3
S'CC(=C)C(=C)C'
p1493
sg27
g28
sg29
F0.02
sg8
(lp1494
g31
asg32
S'2,3-dimethylbuta-1,3-diene'
p1495
sg13
I10566
sg14
F0.6
sg34
F0.4
sg16
(lp1496
S'alkene'
p1497
asg39
F1.69
sg20
S' 2,3-dimethylbuta-1,3-diene'
p1498
sg41
g42
ssS'mobley_5759258'
p1499
(dp1500
g3
S'CCCCCO'
p1501
sg27
g28
sg29
F0.02
sg8
(lp1502
g31
asg32
S'pentan-1-ol'
p1503
sg13
I6276
sg14
F0.6
sg34
F-4.57
sg16
(lp1504
S'primary alcohol'
p1505
asg39
F-3.14
sg20
S' pentan-1-ol'
p1506
sg41
g42
ssS'mobley_7608435'
p1507
(dp1508
g3
S'CCCCCCCC(=O)OC'
p1509
sg27
g28
sg29
F0.03
sg8
(lp1510
g31
asg32
S'methyl octanoate'
p1511
sg13
I8091
sg14
F0.6
sg34
F-2.04
sg16
(lp1512
S'carboxylic acid ester'
p1513
asg39
F-2.94
sg20
S' methyl octanoate'
p1514
sg41
g42
ssS'mobley_3006808'
p1515
(dp1516
g3
S'C(C(F)(F)F)O'
p1517
sg27
S'10.1039/F19736901577'
p1518
sg29
F0.03
sg8
(lp1519
g31
asg32
S'2,2,2-trifluoroethanol'
p1520
sg13
I6409
sg14
F0.6
sg34
F-4.31
sg16
(lp1521
S'primary alcohol'
p1522
aS'halogen derivative'
p1523
asg39
F-3.95
sg20
S' 2,2,2-trifluoroethanol'
p1524
sg41
g42
ssS'mobley_6303022'
p1525
(dp1526
g3
S'CCc1ccncc1'
p1527
sg27
g28
sg29
F0.02
sg8
(lp1528
g31
asg32
S'4-ethylpyridine'
p1529
sg13
I10822
sg14
F0.6
sg34
F-4.73
sg16
(lp1530
S'aromatic'
p1531
aS'heterocyclic'
p1532
asg39
F-2.87
sg20
S' 4-ethylpyridine'
p1533
sg41
g42
ssS'mobley_7047032'
p1534
(dp1535
g3
S'CC(C)(C)Cl'
p1536
sg27
g28
sg29
F0.02
sg8
(lp1537
g31
asg32
S'2-chloro-2-methyl-propane'
p1538
sg13
I10486
sg14
F0.6
sg34
F1.09
sg16
(lp1539
S'alkyl chloride'
p1540
asg39
F0.82
sg20
S' 2-chloro-2-methyl-propane'
p1541
sg41
g42
ssS'mobley_1708457'
p1542
(dp1543
g3
S'CS(=O)(=O)C'
p1544
sg27
S'J. Peter Guthrie, unpublished data, as provided to D. Mobley 2007/2008, and as cited in 10.1021/jp0764384'
p1545
sg29
F0.03
sg8
(lp1546
g31
asg32
S'methylsulfonylmethane'
p1547
sg13
I6213
sg14
F0.6
sg34
F-10.08
sg16
(lp1548
S'sulfone'
p1549
asg39
F-10.36
sg20
S' methylsulfonylmethane'
p1550
sg41
g42
ssS'mobley_1079207'
p1551
(dp1552
g3
S'c1cc(cc(c1)Cl)Cl'
p1553
sg27
g28
sg29
F0.02
sg8
(lp1554
g31
asg32
S'1,3-dichlorobenzene'
p1555
sg13
I10943
sg14
F0.6
sg34
F-0.98
sg16
(lp1556
S'aryl chloride'
p1557
aS'aromatic'
p1558
asg39
F0.01
sg20
S' 1,3-dichlorobenzene'
p1559
sg41
g42
ssS'mobley_486214'
p1560
(dp1561
g3
S'COc1cccc(c1O)OC'
p1562
sg273
g274
sg275
F0.022
sg8
(lp1563
g31
asg277
S'2,6-dimethoxyphenol'
p1564
sg13
I7041
sg279
g280
(g284
S'\x9a\x99\x99\x99\x99\x99\xb9?'
p1565
tp1566
Rp1567
sg290
g280
(g284
S'\xd7\xa3p=\n\xd7\x1b\xc0'
p1568
tp1569
Rp1570
sg16
(lp1571
S'phenol or hydroxyhetarene'
p1572
aS'alkyl aryl ether'
p1573
aS'aromatic'
p1574
asg298
F-7.05
sg20
S' 2,6-dimethoxyphenol'
p1575
sg300
g301
ssS'mobley_8573194'
p1576
(dp1577
g3
S'CCCC=O'
p1578
sg27
g28
sg29
F0.02
sg8
(lp1579
g31
asg32
S'butanal'
p1580
sg13
I261
sg14
F0.6
sg34
F-3.18
sg16
(lp1581
S'aldehyde'
p1582
asg39
F-3.01
sg20
S' butanal'
p1583
sg41
g42
ssS'mobley_7375018'
p1584
(dp1585
g3
S'CCCCCCCCCC(=O)C'
p1586
sg27
g28
sg29
F0.03
sg8
(lp1587
g31
asg32
S'undecan-2-one'
p1588
sg13
I8163
sg14
F0.6
sg34
F-2.15
sg16
(lp1589
S'ketone'
p1590
asg39
F-2.12
sg20
S' undecan-2-one'
p1591
sg41
g42
ssS'mobley_4792268'
p1592
(dp1593
g3
S'CCCCC(=O)O'
p1594
sg27
g28
sg29
F0.06
sg8
(lp1595
g31
asg32
S'pentanoic acid'
p1596
sg13
I7991
sg14
F0.6
sg34
F-6.16
sg16
(lp1597
S'carboxylic acid'
p1598
asg39
F-5.37
sg20
S' pentanoic acid'
p1599
sg41
g42
ssS'mobley_1520842'
p1600
(dp1601
g3
S'Cc1ccncc1'
p1602
sg27
g28
sg29
F0.02
sg8
(lp1603
g31
asg32
S'4-methylpyridine'
p1604
sg13
I7963
sg14
F0.6
sg34
F-4.93
sg16
(lp1605
S'aromatic'
p1606
aS'heterocyclic'
p1607
asg39
F-3.41
sg20
S' 4-methylpyridine'
p1608
sg41
g42
ssS'mobley_5520946'
p1609
(dp1610
g3
S'c1ccc(cc1)S'
p1611
sg27
g28
sg29
F0.02
sg8
(lp1612
g31
asg32
S'benzenethiol'
p1613
sg13
I7969
sg14
F0.6
sg34
F-2.55
sg16
(lp1614
S'thiol (sulfanyl)'
p1615
aS'arylthiol (thiophenol)'
p1616
aS'aromatic'
p1617
asg39
F-1.43
sg20
S' benzenethiol'
p1618
sg41
g42
ssS'mobley_2005792'
p1619
(dp1620
g3
S'c1ccc(cc1)c2ccccc2'
p1621
sg5
g6
sg7
F0.1
sg8
(lp1622
g10
aS'Changed IUPAC name from biphenyle to biphenyl for better handling/standardization.'
p1623
asg11
S'biphenyl'
p1624
sg13
I7095
sg14
F0.2
sg15
F-2.7
sg16
(lp1625
S'aromatic'
p1626
asg19
F-3.5
sg20
S' biphenyl'
p1627
sg22
g23
ssS'mobley_7688753'
p1628
(dp1629
g3
S'c1cc(cc(c1)O)C=O'
p1630
sg27
g28
sg29
F0.03
sg8
(lp1631
g31
aS"Experimental value updated 10/22/13 from J. Peter Guthrie's examination of published data. A range of values -7.48 to -9.52 seem possible, but the original experimental data has not yet been located. More work is needed.\n"
p1632
asg32
S'3-hydroxybenzaldehyde'
p1633
sg13
I101
sg14
F1.9
sg34
F-9.52
sg16
(lp1634
S'aldehyde'
p1635
aS'phenol or hydroxyhetarene'
p1636
aS'aromatic'
p1637
asg39
F-9.24
sg20
S' 3-hydroxybenzaldehyde'
p1638
sg41
g42
ssS'mobley_7860938'
p1639
(dp1640
g3
S'CCCCNCCCC'
p1641
sg27
g28
sg29
F0.03
sg8
(lp1642
g31
asg32
S'N-butylbutan-1-amine'
p1643
sg13
I8148
sg14
F0.6
sg34
F-3.24
sg16
(lp1644
S'secondary amine'
p1645
aS'secondary aliphatic amine (dialkylamine)'
p1646
asg39
F-1.63
sg20
S' N-butylbutan-1-amine'
p1647
sg41
g42
ssS'mobley_4780078'
p1648
(dp1649
g3
S'Cc1ccc(c(c1)C)O'
p1650
sg27
g28
sg29
F0.03
sg8
(lp1651
g31
asg32
S'2,4-dimethylphenol'
p1652
sg13
I7771
sg14
F0.6
sg34
F-6.01
sg16
(lp1653
S'phenol or hydroxyhetarene'
p1654
aS'aromatic'
p1655
asg39
F-4.55
sg20
S' 2,4-dimethylphenol'
p1656
sg41
g42
ssS'mobley_3709920'
p1657
(dp1658
g3
S'CCCCCCCC=C'
p1659
sg27
g28
sg29
F0.03
sg8
(lp1660
g31
asg32
S'non-1-ene'
p1661
sg13
I31285
sg14
F0.6
sg34
F2.06
sg16
(lp1662
S'alkene'
p1663
asg39
F2.91
sg20
S' non-1-ene'
p1664
sg41
g42
ssS'mobley_7542832'
p1665
(dp1666
g3
S'CCCOCCC'
p1667
sg27
g28
sg29
F0.02
sg8
(lp1668
g31
asg32
S'1-propoxypropane'
p1669
sg13
I8114
sg14
F0.6
sg34
F-1.16
sg16
(lp1670
S'dialkyl ether'
p1671
asg39
F0.21
sg20
S' 1-propoxypropane'
p1672
sg41
g42
ssS'mobley_2492140'
p1673
(dp1674
g3
S'C(C(Cl)(Cl)Cl)(Cl)Cl'
p1675
sg212
g213
sg214
F0.02
sg8
(lp1676
g31
asg216
S'1,1,1,2,2-pentachloroethane'
p1677
sg13
I6419
sg218
F0.1
sg219
F-1.23
sg16
(lp1678
S'alkyl chloride'
p1679
asg222
F0.13
sg20
S' 1,1,1,2,2-pentachloroethane'
p1680
sg224
g225
ssS'mobley_8899867'
p1681
(dp1682
g3
S'C1CCC(C1)O'
p1683
sg27
g28
sg29
F0.02
sg8
(lp1684
g31
asg32
S'cyclopentanol'
p1685
sg13
I7298
sg14
F0.6
sg34
F-5.49
sg16
(lp1686
S'secondary alcohol'
p1687
asg39
F-4.15
sg20
S' cyclopentanol'
p1688
sg41
g42
ssS'mobley_5371840'
p1689
(dp1690
g3
S'c1ccc2c(c1)Oc3ccc(cc3O2)Cl'
p1691
sg212
g213
sg214
F0.02
sg8
(lp1692
g31
asg216
S'2-chlorodibenzo-p-dioxin'
p1693
sg13
I38252
sg218
F0.1
sg219
F-3.1
sg16
(lp1694
S'diaryl ether'
p1695
aS'aryl chloride'
p1696
aS'aromatic'
p1697
aS'heterocyclic'
p1698
asg222
F-3.99
sg20
S' 2-chlorodibenzo-p-dioxin'
p1699
sg224
g225
ssS'mobley_2929847'
p1700
(dp1701
g3
S'CC(C)CC(=O)O'
p1702
sg27
g28
sg29
F0.03
sg8
(lp1703
g31
asg32
S'3-methylbutanoic acid'
p1704
sg13
I10430
sg14
F0.6
sg34
F-6.09
sg16
(lp1705
S'carboxylic acid'
p1706
asg39
F-5.51
sg20
S' 3-methylbutanoic acid'
p1707
sg41
g42
ssS'mobley_8006582'
p1708
(dp1709
g3
S'C1CCCC1'
p1710
sg27
g28
sg29
F0.02
sg8
(lp1711
g31
asg32
S'cyclopentane'
p1712
sg13
I9253
sg14
F0.6
sg34
F1.2
sg16
(lp1713
g68
asg39
F1.53
sg20
S' cyclopentane'
p1714
sg41
g42
ssS'mobley_2146331'
p1715
(dp1716
g3
S'C=O'
p1717
sg27
g28
sg29
F0.01
sg8
(lp1718
g31
aS'Formaldehyde is covalently hydrated in water. Our value here is the true free energy of hydration (based on the concentration of formaldehyde in gas vs in water) as opposed to the apparent one. See Guthrie, J. P., J. Am. Chem. Soc. 2000, 122, 5529-5538.\n'
p1719
asg32
S'formaldehyde'
p1720
sg13
I712
sg14
F0.6
sg34
F-2.75
sg16
(lp1721
S'aldehyde'
p1722
asg39
F-3.22
sg20
S' formaldehyde'
p1723
sg41
g42
ssS'mobley_2099370'
p1724
(dp1725
g3
S'C[C@@H](c1cccc(c1)C(=O)c2ccccc2)C(=O)O'
p1726
sg443
g444
sg445
F0.1
sg8
(lp1727
S'Renamed mobley_2099370 from ketoprofen to (2S)-2-(3-benzoylphenyl)propanoic acid (the name from the 3D structure) since the former did not completely specify stereochemistry.\n'
p1728
asg447
S'ketoprofen'
p1729
sg13
I3825
sg449
F0.18
sg450
F-10.78
sg16
(lp1730
S'ketone'
p1731
aS'carboxylic acid'
p1732
aS'aromatic'
p1733
asg456
F-11.9
sg20
S' ketoprofen'
p1734
sg458
g459
ssS'mobley_1781152'
p1735
(dp1736
g3
S'CC(C)(C)C(=O)OC'
p1737
sg27
g28
sg29
F0.02
sg8
(lp1738
g31
asg32
S'methyl 2,2-dimethylpropanoate'
p1739
sg13
I69027
sg14
F0.6
sg34
F-2.4
sg16
(lp1740
S'carboxylic acid ester'
p1741
asg39
F-2.99
sg20
S' methyl 2,2-dimethylpropanoate'
p1742
sg41
g42
ssS'mobley_3968043'
p1743
(dp1744
g3
S'C1CCC(=O)C1'
p1745
sg27
g28
sg29
F0.02
sg8
(lp1746
g31
asg32
S'cyclopentanone'
p1747
sg13
I8452
sg14
F0.6
sg34
F-4.7
sg16
(lp1748
S'ketone'
p1749
asg39
F-3.71
sg20
S' cyclopentanone'
p1750
sg41
g42
ssS'mobley_3323117'
p1751
(dp1752
g3
S'C1CC[S+2](C1)([O-])[O-]'
p1753
sg443
g444
sg445
F0.05
sg8
(lp1754
g31
asg447
S'sulfolane'
p1755
sg13
I31347
sg449
F0.31
sg450
F-8.61
sg16
(lp1756
S'cation'
p1757
aS'heterocyclic'
p1758
asg456
F-9.45
sg20
S' sulfolane'
p1759
sg458
g459
ssS'mobley_4043951'
p1760
(dp1761
g3
S'CCCC=C'
p1762
sg27
g28
sg29
F0.02
sg8
(lp1763
g31
asg32
S'pent-1-ene'
p1764
sg13
I8004
sg14
F0.6
sg34
F1.68
sg16
(lp1765
S'alkene'
p1766
asg39
F2.44
sg20
S' pent-1-ene'
p1767
sg41
g42
ssS'mobley_8705848'
p1768
(dp1769
g3
S'CC(C)NC(C)C'
p1770
sg27
g28
sg29
F0.02
sg8
(lp1771
g31
asg32
S'N-isopropylpropan-2-amine'
p1772
sg13
I7912
sg14
F0.6
sg34
F-3.22
sg16
(lp1773
S'secondary amine'
p1774
aS'secondary aliphatic amine (dialkylamine)'
p1775
asg39
F-1.97
sg20
S' 2-Propanamine'
p1776
sg41
g42
ssS'mobley_2484519'
p1777
(dp1778
g3
S'c1ccc(cc1)CCl'
p1779
sg1348
g1349
sg1350
F0.08
sg1351
(lp1780
g1353
ag31
ag1354
asg1355
S'benzyl chloride'
p1781
sg13
I7503
sg14
F0.2
sg1357
F-1.93
sg16
(lp1782
S'alkyl chloride'
p1783
aS'aromatic'
p1784
asg1360
F-1.5
sg20
S' benzyl chloride'
p1785
sg1362
g1349
ssS'mobley_547634'
p1786
(dp1787
g3
S'Cc1cc2ccccc2cc1C'
p1788
sg27
g28
sg29
F0.02
sg8
(lp1789
g31
asg32
S'2,3-dimethylnaphthalene'
p1790
sg13
I11386
sg14
F0.6
sg34
F-2.78
sg16
(lp1791
S'aromatic'
p1792
asg39
F-2.59
sg20
S' 2,3-dimethylnaphthalene'
p1793
sg41
g42
ssS'mobley_8311321'
p1794
(dp1795
g3
S'C(F)(F)Cl'
p1796
sg27
g28
sg29
F0.02
sg8
(lp1797
g31
asg32
S'chloro-difluoro-methane'
p1798
sg13
I6372
sg14
F0.6
sg34
F-0.5
sg16
(lp1799
S'halogen derivative'
p1800
asg39
F-0.04
sg20
S' chloro-difluoro-methane'
p1801
sg41
g42
ssS'mobley_3318135'
p1802
(dp1803
g3
S'CCCCC(=O)CCCC'
p1804
sg27
g28
sg29
F0.03
sg8
(lp1805
g31
asg32
S'nonan-5-one'
p1806
sg13
I10405
sg14
F0.6
sg34
F-2.64
sg16
(lp1807
S'ketone'
p1808
asg39
F-2.34
sg20
S' nonan-5-one'
p1809
sg41
g42
ssS'mobley_3761215'
p1810
(dp1811
g3
S'CC(Cl)(Cl)Cl'
p1812
sg27
g28
sg29
F0.02
sg8
(lp1813
g31
asg32
S'1,1,1-trichloroethane'
p1814
sg13
I6278
sg14
F0.6
sg34
F-0.19
sg16
(lp1815
S'halogen derivative'
p1816
asg39
F0.75
sg20
S' 1,1,1-trichloroethane'
p1817
sg41
g42
ssS'mobley_3047364'
p1818
(dp1819
g3
S'CCNc1nc(nc(n1)SC)NC(C)C'
p1820
sg177
g178
sg179
F0.04
sg8
(lp1821
g31
aS'Changed IUPAC name from ametryn to 2-N-ethyl-6-(methylsulfanyl)-4-N-(propan-2-yl)-1,3,5-triazine-2,4-diamine for better handling/standardization.'
p1822
asg181
S'2-N-ethyl-6-(methylsulfanyl)-4-N-(propan-2-yl)-1,3,5-triazine-2,4-diamine'
p1823
sg13
I13263
sg183
F0.45
sg184
F-7.65
sg16
(lp1824
S'thioether'
p1825
aS'secondary amine'
p1826
aS'secondary aliphatic/aromatic amine (alkylarylamine)'
p1827
aS'aromatic'
p1828
aS'heterocyclic'
p1829
asg187
F-9.24
sg20
S' ametryne'
p1830
sg189
g190
ssS'mobley_3183805'
p1831
(dp1832
g3
S'Cc1ccc(c(c1)C)C'
p1833
sg27
g28
sg29
F0.02
sg8
(lp1834
g31
asg32
S'1,2,4-trimethylbenzene'
p1835
sg13
I7247
sg14
F0.6
sg34
F-0.86
sg16
(lp1836
S'aromatic'
p1837
asg39
F-0.36
sg20
S' 1,2,4-trimethylbenzene'
p1838
sg41
g42
ssS'mobley_1717215'
p1839
(dp1840
g3
S'COC=O'
p1841
sg27
g28
sg29
F0.02
sg8
(lp1842
g31
asg32
S'methyl formate'
p1843
sg13
I7865
sg14
F0.6
sg34
F-2.78
sg16
(lp1844
S'carboxylic acid ester'
p1845
asg39
F-3.17
sg20
S' methyl formate'
p1846
sg41
g42
ssS'mobley_5600967'
p1847
(dp1848
g3
S'CN(C)C(=O)c1ccc(cc1)OC'
p1849
sg27
g659
sg29
F0.04
sg8
(lp1850
g31
asg32
S'4-methoxy-N,N-dimethyl-benzamide'
p1851
sg13
I81713
sg14
F0.6
sg34
F-11.01
sg16
(lp1852
S'alkyl aryl ether'
p1853
aS'tertiary carboxylic acid amide'
p1854
aS'aromatic'
p1855
asg39
F-9.29
sg20
S' 4-methoxy-N,N-dimethyl-benzamide'
p1856
sg41
g42
ssS'mobley_6794076'
p1857
(dp1858
g3
S'CC(=O)c1ccncc1'
p1859
sg27
g28
sg29
F0.03
sg8
(lp1860
g31
asg32
S'1-(4-pyridyl)ethanone'
p1861
sg13
I14282
sg14
F0.6
sg34
F-7.62
sg16
(lp1862
S'ketone'
p1863
aS'aromatic'
p1864
aS'heterocyclic'
p1865
asg39
F-7.63
sg20
S' 1-(4-pyridyl)ethanone'
p1866
sg41
g42
ssS'mobley_6055410'
p1867
(dp1868
g3
S'c1cc(c(cc1c2ccc(cc2F)F)C(=O)O)O'
p1869
sg443
g444
sg445
F0.1
sg8
(lp1870
g31
asg447
S'diflunisal'
p1871
sg13
I3059
sg449
F0.2
sg450
F-9.4
sg16
(lp1872
S'phenol or hydroxyhetarene'
p1873
aS'aryl fluoride'
p1874
aS'carboxylic acid'
p1875
aS'aromatic'
p1876
asg456
F-6.5
sg20
S' diflunisal'
p1877
sg458
g459
ssS'mobley_7455579'
p1878
(dp1879
g3
S'CC(C)COC=O'
p1880
sg27
g28
sg29
F0.02
sg8
(lp1881
g31
asg32
S'isobutyl formate'
p1882
sg13
I10957
sg14
F0.6
sg34
F-2.22
sg16
(lp1883
S'carboxylic acid ester'
p1884
asg39
F-3.21
sg20
S' isobutyl formate'
p1885
sg41
g42
ssS'mobley_7393673'
p1886
(dp1887
g3
S'COc1ccc(cc1)C(=O)OC'
p1888
sg27
g659
sg29
F0.03
sg8
(lp1889
g31
asg32
S'methyl 4-methoxybenzoate'
p1890
sg13
I8499
sg14
F0.6
sg34
F-5.33
sg16
(lp1891
S'alkyl aryl ether'
p1892
aS'carboxylic acid ester'
p1893
aS'aromatic'
p1894
asg39
F-6.32
sg20
S' methyl 4-methoxybenzoate'
p1895
sg41
g42
ssS'mobley_7676709'
p1896
(dp1897
g3
S'CC1=CC(=O)[C@@H](CC1)C(C)C'
p1898
sg273
g274
sg275
F0.022
sg8
(lp1899
S'Renamed mobley_7676709 from 6-isopropyl-3-methyl-1-cyclohex-2-enone to (6S)-6-isopropyl-3-methyl-cyclohex-2-en-1-one (the name from the 3D structure) since the former did not completely specify stereochemistry.\n'
p1900
asg277
S'6-isopropyl-3-methyl-1-cyclohex-2-enone'
p1901
sg13
I61362
sg279
F0.1
sg290
F-4.51
sg16
(lp1902
S'ketone'
p1903
aS'alkene'
p1904
asg298
F-3.81
sg20
S' d-piperitone'
p1905
sg300
g301
ssS'mobley_2845466'
p1906
(dp1907
g3
S'c1c2c(cc(c1Cl)Cl)Oc3cc(c(cc3O2)Cl)Cl'
p1908
sg212
g213
sg214
F0.03
sg8
(lp1909
g31
asg216
S'2,3,7,8-tetrachlorodibenzo-p-dioxin'
p1910
sg13
I15625
sg218
F1.0
sg219
F-3.37
sg16
(lp1911
S'diaryl ether'
p1912
aS'aryl chloride'
p1913
aS'aromatic'
p1914
aS'heterocyclic'
p1915
asg222
F-2.49
sg20
S' 2,3,7,8-tetrachlorodibenzo-p-dioxin'
p1916
sg224
g225
ssS'mobley_9197172'
p1917
(dp1918
g3
S'CCCCCCC=C'
p1919
sg27
g28
sg29
F0.03
sg8
(lp1920
g31
asg32
S'oct-1-ene'
p1921
sg13
I8125
sg14
F0.6
sg34
F1.92
sg16
(lp1922
S'alkene'
p1923
asg39
F2.77
sg20
S' oct-1-ene'
p1924
sg41
g42
ssS'mobley_9055303'
p1925
(dp1926
g3
S'C'
p1927
sg5
g6
sg7
F0.1
sg8
(lp1928
g10
asg11
S'methane'
p1929
sg13
I297
sg14
F0.2
sg15
F2.0
sg16
(lp1930
g68
asg19
F2.6
sg20
S' methane'
p1931
sg22
g23
ssS'mobley_6935906'
p1932
(dp1933
g3
S'CC(=CCC[C@](C)(C=C)OC(=O)C)C'
p1934
sg273
g274
sg275
F0.024
sg8
(lp1935
g31
asg277
S'(3R)-3,7-Dimethylocta-1,6-dien-3-yl acetate'
p1936
sg13
I442474
sg279
g280
(g284
S'333333\xeb?'
p1937
tp1938
Rp1939
sg290
g280
(g284
S'\xecQ\xb8\x1e\x85\xeb\x03\xc0'
p1940
tp1941
Rp1942
sg16
(lp1943
S'carboxylic acid ester'
p1944
aS'alkene'
p1945
asg298
F-2.58
sg20
S' AC1L9CWH'
p1946
sg300
g301
ssS'mobley_7239499'
p1947
(dp1948
g3
S'c1ccc2c(c1)Oc3cccc(c3O2)Cl'
p1949
sg212
g213
sg214
F0.02
sg8
(lp1950
g31
asg216
S'1-chlorodibenzo-p-dioxin'
p1951
sg13
I37207
sg218
F0.1
sg219
F-3.52
sg16
(lp1952
S'diaryl ether'
p1953
aS'aryl chloride'
p1954
aS'aromatic'
p1955
aS'heterocyclic'
p1956
asg222
F-4.38
sg20
S' 1-chlorodibenzo-p-dioxin'
p1957
sg224
g225
ssS'mobley_4193752'
p1958
(dp1959
g3
S'c1ccc(cc1)[N+](=O)[O-]'
p1960
sg27
g28
sg29
F0.02
sg8
(lp1961
g31
asg32
S'nitrobenzene'
p1962
sg13
I7416
sg14
F0.6
sg34
F-4.12
sg16
(lp1963
S'nitro'
p1964
aS'aromatic'
p1965
asg39
F-3.4
sg20
S' nitrobenzene'
p1966
sg41
g42
ssS'mobley_2844990'
p1967
(dp1968
g3
S'c1cc2c(cc1Cl)Oc3cc(c(c(c3O2)Cl)Cl)Cl'
p1969
sg212
g213
sg214
F0.03
sg8
(lp1970
g31
asg216
S'1,2,3,7-tetrachlorodibenzo-p-dioxin'
p1971
sg13
I48889
sg218
F1.0
sg219
F-3.84
sg16
(lp1972
S'diaryl ether'
p1973
aS'aryl chloride'
p1974
aS'aromatic'
p1975
aS'heterocyclic'
p1976
asg222
F-2.58
sg20
S' 1,2,3,7-tetrachlorodibenzo-p-dioxin'
p1977
sg224
g225
ssS'mobley_2925352'
p1978
(dp1979
g3
S'Cc1ccc(cc1)O'
p1980
sg27
g28
sg29
F0.02
sg8
(lp1981
g31
asg32
S'p-cresol'
p1982
sg13
I2879
sg14
F0.6
sg34
F-6.13
sg16
(lp1983
S'phenol or hydroxyhetarene'
p1984
aS'aromatic'
p1985
asg39
F-5.36
sg20
S' p-cresol'
p1986
sg41
g42
ssS'mobley_4934872'
p1987
(dp1988
g3
S'CCOC(OCC)Oc1ccccc1'
p1989
sg27
g1545
sg29
F0.04
sg8
(lp1990
g31
asg32
S'diethoxymethoxybenzene'
p1991
sg13
I84440
sg14
F0.6
sg34
F-5.23
sg16
(lp1992
S'orthocarboxylic acid derivative'
p1993
aS'orthoester'
p1994
aS'aromatic'
p1995
asg39
F-4.44
sg20
S' diethoxymethoxybenzene'
p1996
sg41
g42
ssS'mobley_1923244'
p1997
(dp1998
g3
S'CCCC'
p1999
sg5
g6
sg7
F0.1
sg8
(lp2000
g10
asg11
S'n-butane'
p2001
sg13
I7843
sg14
F0.2
sg15
F2.1
sg16
(lp2002
g68
asg19
F3.1
sg20
S' n-butane'
p2003
sg22
g23
ssS'mobley_3690931'
p2004
(dp2005
g3
S'CCCC(=O)OCCC'
p2006
sg27
g28
sg29
F0.03
sg8
(lp2007
g31
asg32
S'propyl butanoate'
p2008
sg13
I7770
sg14
F0.6
sg34
F-2.28
sg16
(lp2009
S'carboxylic acid ester'
p2010
asg39
F-2.88
sg20
S' propyl butanoate'
p2011
sg41
g42
ssS'mobley_6359135'
p2012
(dp2013
g3
S'C(Cl)(Cl)(Cl)Cl'
p2014
sg27
g28
sg29
F0.02
sg8
(lp2015
g31
asg32
S'carbon tetrachloride'
p2016
sg13
I5943
sg14
F0.6
sg34
F0.08
sg16
(lp2017
S'halogen derivative'
p2018
asg39
F1.41
sg20
S' carbon tetrachloride'
p2019
sg41
g42
ssS'mobley_1857976'
p2020
(dp2021
g3
S'C(CCl)Cl'
p2022
sg27
g28
sg29
F0.02
sg8
(lp2023
g31
asg32
S'1,2-dichloroethane'
p2024
sg13
I11
sg14
F0.6
sg34
F-1.79
sg16
(lp2025
S'alkyl chloride'
p2026
asg39
F-0.52
sg20
S' 1,2-dichloroethane'
p2027
sg41
g42
ssS'mobley_2068538'
p2028
(dp2029
g3
S'CCC'
p2030
sg5
g6
sg7
F0.1
sg8
(lp2031
g10
asg11
S'propane'
p2032
sg13
I6334
sg14
F0.2
sg15
F2.0
sg16
(lp2033
g68
asg19
F2.4
sg20
S' propane'
p2034
sg22
g23
ssS'mobley_52782'
p2035
(dp2036
g3
S'C(CO[N+](=O)[O-])O[N+](=O)[O-]'
p2037
sg177
g178
sg179
F0.02
sg8
(lp2038
g31
aS'Changed IUPAC name from nitroglycol to 1,2-dinitroxyethane for better handling/standardization.'
p2039
asg181
S'1,2-dinitroxyethane'
p2040
sg13
I40818
sg183
F0.1
sg184
F-5.73
sg16
(lp2041
S'nitrate'
p2042
asg187
F-5.97
sg20
S' 1,2-dinitroxyethane'
p2043
sg189
g190
ssS'mobley_4584540'
p2044
(dp2045
g3
S'Cc1cccc(n1)C'
p2046
sg27
g28
sg29
F0.02
sg8
(lp2047
g31
asg32
S'2,6-dimethylpyridine'
p2048
sg13
I7937
sg14
F0.6
sg34
F-4.59
sg16
(lp2049
S'aromatic'
p2050
aS'heterocyclic'
p2051
asg39
F-3.36
sg20
S' 2,6-dimethylpyridine'
p2052
sg41
g42
ssS'mobley_7573149'
p2053
(dp2054
g3
S'CCCOC(=O)C'
p2055
sg27
g28
sg29
F0.02
sg8
(lp2056
g31
asg32
S'propyl acetate'
p2057
sg13
I7997
sg14
F0.6
sg34
F-2.79
sg16
(lp2058
S'carboxylic acid ester'
p2059
asg39
F-3.33
sg20
S' propyl acetate'
p2060
sg41
g42
ssS'mobley_7758918'
p2061
(dp2062
g3
S'CCC(=O)O'
p2063
sg27
g28
sg29
F0.03
sg8
(lp2064
g31
asg32
S'propionic acid'
p2065
sg13
I1032
sg14
F0.6
sg34
F-6.46
sg16
(lp2066
S'carboxylic acid'
p2067
asg39
F-6.41
sg20
S' propionic acid'
p2068
sg41
g42
ssS'mobley_2763835'
p2069
(dp2070
g3
S'CCOc1ccccc1'
p2071
sg27
g28
sg29
F0.02
sg8
(lp2072
g31
asg32
S'ethoxybenzene'
p2073
sg13
I7674
sg14
F0.6
sg34
F-2.22
sg16
(lp2074
S'alkyl aryl ether'
p2075
aS'aromatic'
p2076
asg39
F-2.01
sg20
S' ethoxybenzene'
p2077
sg41
g42
ssS'mobley_4218209'
p2078
(dp2079
g3
S'COc1ccc(cc1)N'
p2080
sg27
g28
sg29
F0.03
sg8
(lp2081
g31
asg32
S'4-methoxyaniline'
p2082
sg13
I7732
sg14
F0.6
sg34
F-7.48
sg16
(lp2083
S'alkyl aryl ether'
p2084
aS'primary amine'
p2085
aS'primary aromatic amine'
p2086
aS'aromatic'
p2087
asg39
F-6.92
sg20
S' 4-methoxyaniline'
p2088
sg41
g42
ssS'mobley_2727678'
p2089
(dp2090
g3
S'c1c(c(=O)[nH]c(=O)[nH]1)I'
p2091
sg443
g444
sg445
F0.06
sg8
(lp2092
g31
asg447
S'5-iodouracil'
p2093
sg13
I69672
sg449
F0.64
sg450
F-18.72
sg16
(lp2094
S'aryl iodide'
p2095
aS'oxo(het)arene'
p2096
aS'aromatic'
p2097
aS'heterocyclic'
p2098
asg456
F-17.14
sg20
S' 5-iodouracil'
p2099
sg458
g459
ssS'mobley_6973347'
p2100
(dp2101
g3
S'CCOC(=O)C'
p2102
sg27
g28
sg29
F0.02
sg8
(lp2103
g31
asg32
S'ethyl acetate'
p2104
sg13
I8857
sg14
F0.6
sg34
F-2.94
sg16
(lp2105
S'carboxylic acid ester'
p2106
asg39
F-3.23
sg20
S' ethyl acetate'
p2107
sg41
g42
ssS'mobley_6175884'
p2108
(dp2109
g3
S'Cc1ccc(cc1)C=O'
p2110
sg27
g28
sg29
F0.03
sg8
(lp2111
g31
asg32
S'4-methylbenzaldehyde'
p2112
sg13
I7725
sg14
F0.6
sg34
F-4.27
sg16
(lp2113
S'aldehyde'
p2114
aS'aromatic'
p2115
asg39
F-4.9
sg20
S' 4-methylbenzaldehyde'
p2116
sg41
g42
ssS'mobley_6235784'
p2117
(dp2118
g3
S'CC[C@H](C)Cl'
p2119
sg27
g28
sg29
F0.02
sg8
(lp2120
S'Renamed mobley_6235784 from 2-chlorobutane to (2S)-2-chlorobutane (the name from the 3D structure) since the former did not completely specify stereochemistry.\n'
p2121
asg32
S'2-chlorobutane'
p2122
sg13
I6563
sg14
F0.6
sg34
F0.0
sg16
(lp2123
S'alkyl chloride'
p2124
asg39
F1.21
sg20
S' 2-chlorobutane'
p2125
sg41
g42
ssS'mobley_5026370'
p2126
(dp2127
g3
S'c1cnccc1C#N'
p2128
sg27
g28
sg29
F0.02
sg8
(lp2129
g31
asg32
S'pyridine-4-carbonitrile'
p2130
sg13
I7506
sg14
F0.6
sg34
F-6.02
sg16
(lp2131
S'carbonitrile'
p2132
aS'aromatic'
p2133
aS'heterocyclic'
p2134
asg39
F-5.01
sg20
S' pyridine-4-carbonitrile'
p2135
sg41
g42
ssS'mobley_3762186'
p2136
(dp2137
g3
S'C(Cl)Cl'
p2138
sg27
g28
sg29
F0.01
sg8
(lp2139
g31
asg32
S'dichloromethane'
p2140
sg13
I6344
sg14
F0.6
sg34
F-1.31
sg16
(lp2141
S'alkyl chloride'
p2142
asg39
F0.23
sg20
S' dichloromethane'
p2143
sg41
g42
ssS'mobley_1977493'
p2144
(dp2145
g3
S'CCCCl'
p2146
sg27
g28
sg29
F0.02
sg8
(lp2147
g31
asg32
S'1-chloropropane'
p2148
sg13
I10899
sg14
F0.6
sg34
F-0.33
sg16
(lp2149
S'alkyl chloride'
p2150
asg39
F0.92
sg20
S' 1-chloropropane'
p2151
sg41
g42
ssS'mobley_1396156'
p2152
(dp2153
g3
S'c1(c(c(c(c(c1Cl)Cl)Cl)Cl)Cl)N(=O)=O'
p2154
sg443
g444
sg445
F0.05
sg8
(lp2155
g31
asg447
S'pentachloronitrobenzene'
p2156
sg13
I6720
sg449
F0.25
sg450
F-5.22
sg16
(lp2157
S'aryl chloride'
p2158
aS'nitro'
p2159
aS'aromatic'
p2160
asg456
F-2.26
sg20
S' pentachloronitrobenzene'
p2161
sg458
g459
ssS'mobley_9507933'
p2162
(dp2163
g3
S'Cc1ccc(nc1)C'
p2164
sg27
g28
sg29
F0.02
sg8
(lp2165
g31
asg32
S'2,5-dimethylpyridine'
p2166
sg13
I11526
sg14
F0.6
sg34
F-4.72
sg16
(lp2167
S'aromatic'
p2168
aS'heterocyclic'
p2169
asg39
F-2.83
sg20
S' 2,5-dimethylpyridine'
p2170
sg41
g42
ssS'mobley_9913368'
p2171
(dp2172
g3
S'C(=C/Cl)\\Cl'
p2173
sg27
g28
sg29
F0.02
sg8
(lp2174
S'Renamed mobley_9913368 from (E)-1,2-dichloroethylene to (E)-1,2-dichloroethylene (the name from the 3D structure) since the former did not completely specify stereochemistry.\n'
p2175
asg32
S'(E)-1,2-dichloroethylene'
p2176
sg13
I638186
sg14
F0.6
sg34
F-0.78
sg16
(lp2177
S'halogen derivative'
p2178
aS'alkene'
p2179
asg39
F1.2
sg20
S' (E)-1,2-dichloroethylene'
p2180
sg41
g42
ssS'mobley_3167746'
p2181
(dp2182
g3
S'CCCCCCCC'
p2183
sg27
g28
sg29
F0.03
sg8
(lp2184
g31
asg32
S'octane'
p2185
sg13
I356
sg14
F0.6
sg34
F2.88
sg16
(lp2186
g68
asg39
F3.13
sg20
S' octane'
p2187
sg41
g42
ssS'mobley_2725802'
p2188
(dp2189
g3
S'CC(=O)N1CCCC1'
p2190
sg27
g28
sg29
F0.02
sg8
(lp2191
g31
asg32
S'1-pyrrolidin-1-ylethanone'
p2192
sg13
I77650
sg14
F0.6
sg34
F-9.8
sg16
(lp2193
S'tertiary carboxylic acid amide'
p2194
aS'heterocyclic'
p2195
asg39
F-7.97
sg20
S' 1-pyrrolidin-1-ylethanone'
p2196
sg41
g42
ssS'mobley_7912193'
p2197
(dp2198
g3
S'CCCCOC(=O)c1ccc(cc1)O'
p2199
sg443
g444
sg445
F0.06
sg8
(lp2200
g31
asg447
S'butyl paraben'
p2201
sg13
I7184
sg449
F0.27
sg450
F-8.72
sg16
(lp2202
S'phenol or hydroxyhetarene'
p2203
aS'carboxylic acid ester'
p2204
aS'aromatic'
p2205
asg456
F-9.19
sg20
S' butyl paraben'
p2206
sg458
g459
ssS'mobley_242480'
p2207
(dp2208
g3
S'c1ccc2c(c1)C(=O)c3c(ccc(c3C2=O)N)N'
p2209
sg273
g274
sg275
F0.024
sg8
(lp2210
g31
asg277
S'1,4-diamino-9,10-anthracenedione'
p2211
sg13
I31420
sg279
g280
(g284
S'ffffff\xd6?'
p2212
tp2213
Rp2214
sg290
g280
(g284
S"33333\xb3'\xc0"
p2215
tp2216
Rp2217
sg16
(lp2218
S'ketone'
p2219
aS'primary amine'
p2220
aS'primary aromatic amine'
p2221
aS'aromatic'
p2222
asg298
F-14.2
sg20
S' disperse violet'
p2223
sg300
g301
ssS'mobley_5445548'
p2224
(dp2225
g3
S'CC(C)c1ccccc1'
p2226
sg27
g28
sg29
F0.02
sg8
(lp2227
g31
asg32
S'cumene'
p2228
sg13
I7406
sg14
F0.6
sg34
F-0.3
sg16
(lp2229
S'aromatic'
p2230
asg39
F-0.31
sg20
S' cumene'
p2231
sg41
g42
ssS'mobley_8823527'
p2232
(dp2233
g3
S'c1cc(c(cc1Cl)c2cc(c(c(c2)Cl)Cl)Cl)Cl'
p2234
sg212
g213
sg214
F0.03
sg8
(lp2235
g31
asg216
S'1,2,3-trichloro-5-(2,5-dichlorophenyl)benzene'
p2236
sg13
I63088
sg218
F0.13
sg219
F-3.61
sg16
(lp2237
S'aryl chloride'
p2238
aS'aromatic'
p2239
asg222
F-0.86
sg20
S" 2,3',4',5,5'-pentachloro-biphenyl"
p2240
sg224
g225
ssS'mobley_1019269'
p2241
(dp2242
g3
S'CCCCO'
p2243
sg27
g28
sg29
F0.02
sg8
(lp2244
g31
asg32
S'butan-1-ol'
p2245
sg13
I263
sg14
F0.6
sg34
F-4.72
sg16
(lp2246
S'primary alcohol'
p2247
asg39
F-3.14
sg20
S' butan-1-ol'
p2248
sg41
g42
ssS'mobley_1755375'
p2249
(dp2250
g3
S'Cc1cccc(c1O)C'
p2251
sg27
g28
sg29
F0.03
sg8
(lp2252
g31
asg32
S'2,6-dimethylphenol'
p2253
sg13
I11335
sg14
F0.6
sg34
F-5.26
sg16
(lp2254
S'phenol or hydroxyhetarene'
p2255
aS'aromatic'
p2256
asg39
F-4.09
sg20
S' 2,6-dimethylphenol'
p2257
sg41
g42
ssS'mobley_4371692'
p2258
(dp2259
g3
S'c1ccc2c(c1)C(=O)c3c(ccc(c3C2=O)O)N'
p2260
sg273
g274
sg275
F0.022
sg8
(lp2261
g31
asg277
S'1-amino-4-hydroxy-9,10-anthracenedione'
p2262
sg13
I8323
sg279
g280
(g284
S'\xecQ\xb8\x1e\x85\xeb\xd1?'
p2263
tp2264
Rp2265
sg290
g280
(g284
S'\x8f\xc2\xf5(\\\x0f#\xc0'
p2266
tp2267
Rp2268
sg16
(lp2269
S'ketone'
p2270
aS'phenol or hydroxyhetarene'
p2271
aS'primary amine'
p2272
aS'primary aromatic amine'
p2273
aS'aromatic'
p2274
asg298
F-11.22
sg20
S' 1-amino-4-hydroxyanthraquinone'
p2275
sg300
g301
ssS'mobley_1139153'
p2276
(dp2277
g3
S'CC(C)CC(C)(C)C'
p2278
sg27
g28
sg29
F0.03
sg8
(lp2279
g31
asg32
S'2,2,4-trimethylpentane'
p2280
sg13
I10907
sg14
F0.6
sg34
F2.89
sg16
(lp2281
g68
asg39
F2.93
sg20
S' 2,2,4-trimethylpentane'
p2282
sg41
g42
ssS'mobley_5471704'
p2283
(dp2284
g3
S'CC(C)CCOC(=O)C'
p2285
sg27
g28
sg29
F0.03
sg8
(lp2286
g31
asg32
S'isopentyl acetate'
p2287
sg13
I31276
sg14
F0.6
sg34
F-2.21
sg16
(lp2288
S'carboxylic acid ester'
p2289
asg39
F-3.05
sg20
S' isopentyl acetate'
p2290
sg41
g42
ssS'mobley_6060301'
p2291
(dp2292
g3
S'CCCCCCN'
p2293
sg27
g28
sg29
F0.02
sg8
(lp2294
g31
asg32
S'hexan-1-amine'
p2295
sg13
I8102
sg14
F0.6
sg34
F-3.95
sg16
(lp2296
S'primary amine'
p2297
aS'primary aliphatic amine (alkylamine)'
p2298
asg39
F-2.54
sg20
S' hexan-1-amine'
p2299
sg41
g42
ssS'mobley_588781'
p2300
(dp2301
g3
S'CCCCCCc1ccccc1'
p2302
sg27
g28
sg29
F0.03
sg8
(lp2303
g31
asg32
S'hexylbenzene'
p2304
sg13
I14109
sg14
F0.6
sg34
F-0.04
sg16
(lp2305
S'aromatic'
p2306
asg39
F0.24
sg20
S' hexylbenzene'
p2307
sg41
g42
ssS'mobley_2354112'
p2308
(dp2309
g3
S'CCc1cccc(c1)O'
p2310
sg27
g28
sg29
F0.03
sg8
(lp2311
g31
asg32
S'3-ethylphenol'
p2312
sg13
I12101
sg14
F0.6
sg34
F-6.25
sg16
(lp2313
S'phenol or hydroxyhetarene'
p2314
aS'aromatic'
p2315
asg39
F-5.02
sg20
S' 3-ethylphenol'
p2316
sg41
g42
ssS'mobley_6896128'
p2317
(dp2318
g3
S'CCCC[C@@H](C)CC'
p2319
sg27
g28
sg29
F0.03
sg8
(lp2320
S'Renamed mobley_6896128 from 3-methylheptane to (3S)-3-methylheptane (the name from the 3D structure) since the former did not completely specify stereochemistry.\n'
p2321
asg32
S'3-methylheptane'
p2322
sg13
I11519
sg14
F0.6
sg34
F2.97
sg16
(lp2323
g68
asg39
F3.29
sg20
S' 3-methylheptane'
p2324
sg41
g42
ssS'mobley_8772587'
p2325
(dp2326
g3
S'CCCCI'
p2327
sg27
g28
sg29
F0.02
sg8
(lp2328
g31
asg32
S'1-iodobutane'
p2329
sg13
I10962
sg14
F0.6
sg34
F-0.25
sg16
(lp2330
S'alkyl iodide'
p2331
asg39
F0.58
sg20
S' 1-iodobutane'
p2332
sg41
g42
ssS'mobley_5456566'
p2333
(dp2334
g3
S'c1(c(c(c(c(c1Cl)Cl)Cl)Cl)Cl)c2c(c(c(c(c2Cl)Cl)Cl)Cl)Cl'
p2335
sg212
g213
sg214
F0.06
sg8
(lp2336
g31
asg216
S'1,2,3,4,5-pentachloro-6-(2,3,4,5,6-pentachlorophenyl)benzene'
p2337
sg13
I16318
sg218
F1.0
sg219
F-2.98
sg16
(lp2338
S'aryl chloride'
p2339
aS'aromatic'
p2340
asg222
F0.87
sg20
S' decachlorobiphenyl'
p2341
sg224
g225
ssS'mobley_2371092'
p2342
(dp2343
g3
S'Cc1ccncc1C'
p2344
sg27
g28
sg29
F0.02
sg8
(lp2345
g31
asg32
S'3,4-dimethylpyridine'
p2346
sg13
I11417
sg14
F0.6
sg34
F-5.22
sg16
(lp2347
S'aromatic'
p2348
aS'heterocyclic'
p2349
asg39
F-3.18
sg20
S' 3,4-dimethylpyridine'
p2350
sg41
g42
ssS'mobley_1328936'
p2351
(dp2352
g3
S'COC(=O)c1ccc(cc1)[N+](=O)[O-]'
p2353
sg27
g659
sg29
F0.03
sg8
(lp2354
g31
asg32
S'methyl 4-nitrobenzoate'
p2355
sg13
I12083
sg14
F0.6
sg34
F-6.88
sg16
(lp2356
S'carboxylic acid ester'
p2357
aS'nitro'
p2358
aS'aromatic'
p2359
asg39
F-6.39
sg20
S' methyl 4-nitrobenzoate'
p2360
sg41
g42
ssS'mobley_5499659'
p2361
(dp2362
g3
S'Cn1ccnc1'
p2363
sg27
g28
sg29
F0.03
sg8
(lp2364
g31
asg32
S'1-methylimidazole'
p2365
sg13
I1390
sg14
F0.6
sg34
F-8.41
sg16
(lp2366
S'aromatic'
p2367
aS'heterocyclic'
p2368
asg39
F-6.33
sg20
S' 1-methylimidazole'
p2369
sg41
g42
ssS'mobley_2792521'
p2370
(dp2371
g3
S'CCC/C=C/C=O'
p2372
sg27
S'10.1021/jf60178a004 and 10.1016/S1387-3806(02)00927-2'
p2373
sg29
F0.02
sg8
(lp2374
S'Renamed mobley_2792521 from hex-2-enal to (E)-hex-2-enal (the name from the 3D structure) since the former did not completely specify stereochemistry.\n'
p2375
aS'Experimental value provided by J. Peter Guthrie, University of Western Ontario, 10/23/2013, as a weighted average of the Buttery et al. and Karl et al. values noted in the experimental reference field.'
p2376
asg32
S'(2E)-hex-2-enal'
p2377
sg13
I5281168
sg14
F0.6
sg34
F-3.68
sg16
(lp2378
S'aldehyde'
p2379
aS'alkene'
p2380
asg39
F-3.22
sg20
S' (2E)-hex-2-enal'
p2381
sg41
g42
ssS'mobley_9974966'
p2382
(dp2383
g3
S'CC(C)SC(C)C'
p2384
sg27
g28
sg29
F0.02
sg8
(lp2385
g31
asg32
S'2-isopropylsulfanylpropane'
p2386
sg13
I12264
sg14
F0.6
sg34
F-1.21
sg16
(lp2387
S'thioether'
p2388
asg39
F0.1
sg20
S' 2-isopropylsulfanylpropane'
p2389
sg41
g42
ssS'mobley_6733657'
p2390
(dp2391
g3
S'C1[C@H]([C@@H]2[C@H]([C@H]1Cl)[C@]3(C(=C([C@@]2(C3(Cl)Cl)Cl)Cl)Cl)Cl)Cl'
p2392
sg177
g178
sg179
F0.03
sg8
(lp2393
g31
asg181
S'chlordane'
p2394
sg13
I5993
sg183
F0.1
sg184
F-3.44
sg16
(lp2395
S'alkyl chloride'
p2396
aS'alkene'
p2397
asg187
F-3.25
sg20
S' chlordane'
p2398
sg189
g190
ssS'mobley_9121449'
p2399
(dp2400
g3
S'CCC#C'
p2401
sg27
g28
sg29
F0.02
sg8
(lp2402
g31
asg32
S'but-1-yne'
p2403
sg13
I7846
sg14
F0.6
sg34
F-0.16
sg16
(lp2404
S'alkyne'
p2405
asg39
F0.51
sg20
S' but-1-yne'
p2406
sg41
g42
ssS'mobley_2310185'
p2407
(dp2408
g3
S'CCO'
p2409
sg27
g28
sg29
F0.03
sg8
(lp2410
g31
asg32
S'ethanol'
p2411
sg13
I702
sg14
F0.6
sg34
F-5.0
sg16
(lp2412
S'primary alcohol'
p2413
asg39
F-3.45
sg20
S' ethanol'
p2414
sg41
g42
ssS'mobley_7099614'
p2415
(dp2416
g3
S'C=CCCl'
p2417
sg27
g28
sg29
F0.02
sg8
(lp2418
g31
asg32
S'3-chloroprop-1-ene'
p2419
sg13
I7850
sg14
F0.6
sg34
F-0.57
sg16
(lp2420
S'alkyl chloride'
p2421
aS'alkene'
p2422
asg39
F0.88
sg20
S' 3-chloroprop-1-ene'
p2423
sg41
g42
ssS'mobley_7295828'
p2424
(dp2425
g3
S'COc1ccccc1'
p2426
sg27
g28
sg29
F0.02
sg8
(lp2427
g31
asg32
S'anisole'
p2428
sg13
I7519
sg14
F0.6
sg34
F-2.45
sg16
(lp2429
S'alkyl aryl ether'
p2430
aS'aromatic'
p2431
asg39
F-2.3
sg20
S' anisole'
p2432
sg41
g42
ssS'mobley_63712'
p2433
(dp2434
g3
S'CN1CCCCC1'
p2435
sg27
g28
sg29
F0.02
sg8
(lp2436
g31
asg32
S'1-methylpiperidine'
p2437
sg13
I12291
sg14
F0.6
sg34
F-3.88
sg16
(lp2438
S'tertiary amine'
p2439
aS'tertiary aliphatic amine (trialkylamine)'
p2440
aS'heterocyclic'
p2441
asg39
F-3.21
sg20
S' 1-methylpiperidine'
p2442
sg41
g42
ssS'mobley_3060426'
p2443
(dp2444
g3
S'CC(C)CCC(C)(C)C'
p2445
sg27
g28
sg29
F0.03
sg8
(lp2446
g31
asg32
S'2,2,5-trimethylhexane'
p2447
sg13
I19041
sg14
F0.6
sg34
F2.93
sg16
(lp2448
g68
asg39
F2.86
sg20
S' 2,2,5-trimethylhexane'
p2449
sg41
g42
ssS'mobley_5282042'
p2450
(dp2451
g3
S'CN(C)CCC=C1c2ccccc2CCc3c1cccc3'
p2452
sg273
g274
sg275
F0.031
sg8
(lp2453
g31
asg277
S'Amitriptyline'
p2454
sg13
I2160
sg279
F0.6
sg290
F-7.43
sg16
(lp2455
S'tertiary amine'
p2456
aS'tertiary aliphatic amine (trialkylamine)'
p2457
aS'alkene'
p2458
aS'aromatic'
p2459
asg298
F-8.28
sg20
S' amitriptyline'
p2460
sg300
g301
ssS'mobley_2607611'
p2461
(dp2462
g3
S'CCCCCCOC(=O)C'
p2463
sg27
g28
sg29
F0.03
sg8
(lp2464
g31
asg32
S'hexyl acetate'
p2465
sg13
I8908
sg14
F0.6
sg34
F-2.26
sg16
(lp2466
S'carboxylic acid ester'
p2467
asg39
F-2.97
sg20
S' hexyl acetate'
p2468
sg41
g42
ssS'mobley_1036761'
p2469
(dp2470
g3
S'C1CCC(CC1)N'
p2471
sg27
g28
sg29
F0.02
sg8
(lp2472
g31
asg32
S'cyclohexanamine'
p2473
sg13
I7965
sg14
F0.6
sg34
F-4.59
sg16
(lp2474
S'primary amine'
p2475
aS'primary aliphatic amine (alkylamine)'
p2476
asg39
F-3.94
sg20
S' cyclohexanamine'
p2477
sg41
g42
ssS'mobley_4893032'
p2478
(dp2479
g3
S'CCCCC#N'
p2480
sg27
g28
sg29
F0.02
sg8
(lp2481
g31
asg32
S'pentanenitrile'
p2482
sg13
I8061
sg14
F0.6
sg34
F-3.52
sg16
(lp2483
S'carbonitrile'
p2484
asg39
F-2.16
sg20
S' pentanenitrile'
p2485
sg41
g42
ssS'mobley_8558116'
p2486
(dp2487
g3
S'CN1CCOCC1'
p2488
sg27
g28
sg29
F0.03
sg8
(lp2489
g31
asg32
S'4-methylmorpholine'
p2490
sg13
I7972
sg14
F0.6
sg34
F-6.32
sg16
(lp2491
S'dialkyl ether'
p2492
aS'tertiary amine'
p2493
aS'tertiary aliphatic amine (trialkylamine)'
p2494
aS'heterocyclic'
p2495
asg39
F-5.87
sg20
S' 4-methylmorpholine'
p2496
sg41
g42
ssS'mobley_5518547'
p2497
(dp2498
g3
S'Cc1ccc(cc1)N'
p2499
sg27
g28
sg29
F0.03
sg8
(lp2500
g31
asg32
S'4-methylaniline'
p2501
sg13
I7813
sg14
F0.6
sg34
F-5.57
sg16
(lp2502
S'primary amine'
p2503
aS'primary aromatic amine'
p2504
aS'aromatic'
p2505
asg39
F-5.56
sg20
S' 4-methylaniline'
p2506
sg41
g42
ssS'mobley_3378420'
p2507
(dp2508
g3
S'CCCCCCCCCO'
p2509
sg27
g28
sg29
F0.03
sg8
(lp2510
g31
asg32
S'nonan-1-ol'
p2511
sg13
I8914
sg14
F0.6
sg34
F-3.88
sg16
(lp2512
S'primary alcohol'
p2513
asg39
F-2.54
sg20
S' nonan-1-ol'
p2514
sg41
g42
ssS'mobley_9794857'
p2515
(dp2516
g3
S'CC(C)(C)OC'
p2517
sg27
g1301
sg29
F0.02
sg8
(lp2518
g31
asg32
S'2-methoxy-2-methyl-propane'
p2519
sg13
I15413
sg14
F0.6
sg34
F-2.21
sg16
(lp2520
S'dialkyl ether'
p2521
asg39
F-0.68
sg20
S' 2-methoxy-2-methyl-propane'
p2522
sg41
g42
ssS'mobley_6456034'
p2523
(dp2524
g3
S'CC(C)COC(=O)C(C)C'
p2525
sg27
g28
sg29
F0.03
sg8
(lp2526
g31
asg32
S'isobutyl 2-methylpropanoate'
p2527
sg13
I7351
sg14
F0.6
sg34
F-1.69
sg16
(lp2528
S'carboxylic acid ester'
p2529
asg39
F-2.55
sg20
S' isobutyl 2-methylpropanoate'
p2530
sg41
g42
ssS'mobley_3573480'
p2531
(dp2532
g3
S'CCCCCC(=O)C'
p2533
sg27
g28
sg29
F0.02
sg8
(lp2534
g31
asg32
S'heptan-2-one'
p2535
sg13
I8051
sg14
F0.6
sg34
F-3.04
sg16
(lp2536
S'ketone'
p2537
asg39
F-2.8
sg20
S' heptan-2-one'
p2538
sg41
g42
ssS'mobley_676247'
p2539
(dp2540
g3
S'C(F)(F)(F)F'
p2541
sg27
g28
sg29
F0.01
sg8
(lp2542
g31
asg32
S'tetrafluoromethane'
p2543
sg13
I6393
sg14
F0.6
sg34
F3.12
sg16
(lp2544
S'halogen derivative'
p2545
asg39
F2.42
sg20
S' tetrafluoromethane'
p2546
sg41
g42
ssS'mobley_5760563'
p2547
(dp2548
g3
S'COS(=O)(=O)OC'
p2549
sg27
S'10.1139/v78-385'
p2550
sg29
F0.02
sg8
(lp2551
g31
asg32
S'dimethyl sulfate'
p2552
sg13
I6497
sg14
F0.6
sg34
F-5.1
sg16
(lp2553
S'sulfuric acid diester'
p2554
asg39
F-7.85
sg20
S' dimethyl sulfate'
p2555
sg41
g42
ssS'mobley_8754702'
p2556
(dp2557
g3
S'CCCOC=O'
p2558
sg27
g28
sg29
F0.02
sg8
(lp2559
g31
asg32
S'propyl formate'
p2560
sg13
I8073
sg14
F0.6
sg34
F-2.48
sg16
(lp2561
S'carboxylic acid ester'
p2562
asg39
F-3.5
sg20
S' propyl formate'
p2563
sg41
g42
ssS'mobley_3169935'
p2564
(dp2565
g3
S'c1ccc(c(c1)N)Cl'
p2566
sg27
g28
sg29
F0.03
sg8
(lp2567
g31
asg32
S'2-chloroaniline'
p2568
sg13
I7240
sg14
F0.6
sg34
F-4.91
sg16
(lp2569
S'primary amine'
p2570
aS'primary aromatic amine'
p2571
aS'aryl chloride'
p2572
aS'aromatic'
p2573
asg39
F-4.96
sg20
S' 2-chloroaniline'
p2574
sg41
g42
ssS'mobley_5311804'
p2575
(dp2576
g3
S'c1ccc(cc1)CO'
p2577
sg27
g28
sg29
F0.03
sg8
(lp2578
g31
asg32
S'phenylmethanol'
p2579
sg13
I244
sg14
F0.6
sg34
F-6.62
sg16
(lp2580
S'primary alcohol'
p2581
aS'aromatic'
p2582
asg39
F-5.41
sg20
S' phenylmethanol'
p2583
sg41
g42
ssS'mobley_6115639'
p2584
(dp2585
g3
S'COP(=O)(OC)OC'
p2586
sg443
g444
sg445
F0.06
sg8
(lp2587
g31
asg447
S'trimethyl phosphate'
p2588
sg13
I10541
sg449
F0.1
sg450
F-8.7
sg16
(lp2589
S'phosphoric acid ester'
p2590
asg456
F-11.36
sg20
S' trimethyl phosphate'
p2591
sg458
g459
ssS'mobley_6714389'
p2592
(dp2593
g3
S'CN'
p2594
sg27
g28
sg29
F0.01
sg8
(lp2595
g31
asg32
S'methanamine'
p2596
sg13
I6329
sg14
F0.6
sg34
F-4.55
sg16
(lp2597
S'primary amine'
p2598
aS'primary aliphatic amine (alkylamine)'
p2599
asg39
F-3.44
sg20
S' methanamine'
p2600
sg41
g42
ssS'mobley_9015240'
p2601
(dp2602
g3
S'CCCCCCCCBr'
p2603
sg27
g28
sg29
F0.03
sg8
(lp2604
g31
asg32
S'1-bromooctane'
p2605
sg13
I8140
sg14
F0.6
sg34
F0.52
sg16
(lp2606
S'alkyl bromide'
p2607
asg39
F1.92
sg20
S' 1-bromooctane'
p2608
sg41
g42
ssS'mobley_1417007'
p2609
(dp2610
g3
S'C1C=CC[C@@H]2[C@@H]1C(=O)N(C2=O)SC(Cl)(Cl)Cl'
p2611
sg177
g178
sg179
F0.04
sg8
(lp2612
S'Renamed mobley_1417007 from captan to (3aR,7aR)-2-(trichloromethylsulfanyl)-3a,4,7,7a-tetrahydroisoindole-1,3-dione (the name from the 3D structure) since the former did not completely specify stereochemistry.\n'
p2613
asg181
S'captan'
p2614
sg13
I8606
sg183
F1.93
sg184
F-9.01
sg16
(lp2615
S'halogen derivative'
p2616
aS'carboxylic acid imide, N-substituted'
p2617
aS'alkene'
p2618
aS'heterocyclic'
p2619
asg187
F-8.71
sg20
S' captan'
p2620
sg189
g190
ssS'mobley_2681549'
p2621
(dp2622
g3
S'c1c(cc(cc1Cl)Cl)Cl'
p2623
sg27
g28
sg29
F0.02
sg8
(lp2624
g31
asg32
S'1,3,5-trichlorobenzene'
p2625
sg13
I7950
sg14
F0.6
sg34
F-0.78
sg16
(lp2626
S'aryl chloride'
p2627
aS'aromatic'
p2628
asg39
F0.45
sg20
S' 1,3,5-trichlorobenzene'
p2629
sg41
g42
ssS'mobley_4287564'
p2630
(dp2631
g3
S'Cc1ccccn1'
p2632
sg27
g28
sg29
F0.02
sg8
(lp2633
g31
asg32
S'2-methylpyridine'
p2634
sg13
I7975
sg14
F0.6
sg34
F-4.63
sg16
(lp2635
S'aromatic'
p2636
aS'heterocyclic'
p2637
asg39
F-3.41
sg20
S' 2-methylpyridine'
p2638
sg41
g42
ssS'mobley_2043882'
p2639
(dp2640
g3
S'CC(=O)C1CCCCC1'
p2641
sg27
g28
sg29
F0.02
sg8
(lp2642
g31
asg32
S'1-cyclohexylethanone'
p2643
sg13
I13207
sg14
F0.6
sg34
F-3.9
sg16
(lp2644
S'ketone'
p2645
asg39
F-3.9
sg20
S' 1-cyclohexylethanone'
p2646
sg41
g42
ssS'mobley_352111'
p2647
(dp2648
g3
S'CC(=O)OCCOC(=O)C'
p2649
sg27
g28
sg29
F0.04
sg8
(lp2650
g31
asg32
S'2-acetoxyethyl acetate'
p2651
sg13
I8121
sg14
F0.6
sg34
F-6.34
sg16
(lp2652
S'carboxylic acid ester'
p2653
asg39
F-8.32
sg20
S' 2-acetoxyethyl acetate'
p2654
sg41
g42
ssS'mobley_3686115'
p2655
(dp2656
g3
S'CCOC(C)OCC'
p2657
sg1348
g1349
sg1350
F0.08
sg1351
(lp2658
g1353
ag31
ag1354
asg1355
S'1,1-diethoxyethane'
p2659
sg13
I7765
sg14
F0.2
sg1357
F-3.28
sg16
(lp2660
S'acetal'
p2661
asg1360
F-1.89
sg20
S' 1,1-diethoxyethane'
p2662
sg1362
g1349
ssS'mobley_8337722'
p2663
(dp2664
g3
S'C[C@@H]1CC[C@H]([C@@H](C1)O)C(C)C'
p2665
sg273
g274
sg275
F0.021
sg8
(lp2666
g31
asg277
S'(1R,2S,5R)-2-isopropyl-5-methylcyclohexanol'
p2667
sg13
I16666
sg279
F0.28
sg290
F-3.2
sg16
(lp2668
S'secondary alcohol'
p2669
asg298
F-3.39
sg20
S' i-menthol'
p2670
sg300
g301
ssS'mobley_7326706'
p2671
(dp2672
g3
S'CCOP(=S)(OCC)Oc1c(cc(c(n1)Cl)Cl)Cl'
p2673
sg177
g178
sg179
F0.04
sg8
(lp2674
g31
asg181
S'chlorpyrifos'
p2675
sg13
I2730
sg183
F0.21
sg184
F-5.04
sg16
(lp2676
S'aryl chloride'
p2677
aS'thiophosphoric acid ester'
p2678
aS'aromatic'
p2679
aS'heterocyclic'
p2680
asg187
F-9.05
sg20
S' chlorpyrifos'
p2681
sg189
g190
ssS'mobley_3144334'
p2682
(dp2683
g3
S'Cc1ccc(c(c1)O)C'
p2684
sg27
g28
sg29
F0.03
sg8
(lp2685
g31
asg32
S'2,5-dimethylphenol'
p2686
sg13
I7267
sg14
F0.6
sg34
F-5.91
sg16
(lp2687
S'phenol or hydroxyhetarene'
p2688
aS'aromatic'
p2689
asg39
F-4.39
sg20
S' 2,5-dimethylphenol'
p2690
sg41
g42
ssS'mobley_5973402'
p2691
(dp2692
g3
S'CC(C)CCO'
p2693
sg27
g28
sg29
F0.03
sg8
(lp2694
g31
asg32
S'3-methylbutan-1-ol'
p2695
sg13
I31260
sg14
F0.6
sg34
F-4.42
sg16
(lp2696
S'primary alcohol'
p2697
asg39
F-2.92
sg20
S' 3-methylbutan-1-ol'
p2698
sg41
g42
ssS'mobley_6353617'
p2699
(dp2700
g3
S'CC(=O)c1cccnc1'
p2701
sg27
g28
sg29
F0.03
sg8
(lp2702
g31
asg32
S'1-(3-pyridyl)ethanone'
p2703
sg13
I9589
sg14
F0.6
sg34
F-8.26
sg16
(lp2704
S'ketone'
p2705
aS'aromatic'
p2706
aS'heterocyclic'
p2707
asg39
F-7.1
sg20
S' 1-(3-pyridyl)ethanone'
p2708
sg41
g42
ssS'mobley_2261979'
p2709
(dp2710
g3
S'c1cc2cccc3c2c(c1)CC3'
p2711
sg27
g28
sg29
F0.03
sg8
(lp2712
g31
asg32
S'acenaphthene'
p2713
sg13
I6734
sg14
F0.6
sg34
F-3.15
sg16
(lp2714
S'aromatic'
p2715
asg39
F-3.51
sg20
S' acenaphthene'
p2716
sg41
g42
ssS'mobley_4715906'
p2717
(dp2718
g3
S'C[C@@H]1CCCC[C@@H]1C'
p2719
sg27
g28
sg29
F0.02
sg8
(lp2720
S'Renamed mobley_4715906 from 1,2-dimethylcyclohexane to (1R,2S)-1,2-dimethylcyclohexane (the name from the 3D structure) since the former did not completely specify stereochemistry.\n'
p2721
asg32
S'1,2-dimethylcyclohexane'
p2722
sg13
I11416
sg14
F0.6
sg34
F1.58
sg16
(lp2723
g68
asg39
F2.05
sg20
S' 1,2-dimethylcyclohexane'
p2724
sg41
g42
ssS'mobley_5952846'
p2725
(dp2726
g3
S'C(=C(Cl)Cl)(Cl)Cl'
p2727
sg27
g28
sg29
F0.02
sg8
(lp2728
g31
asg32
S'1,1,2,2-tetrachloroethylene'
p2729
sg13
I31373
sg14
F0.6
sg34
F0.1
sg16
(lp2730
S'halogen derivative'
p2731
asg39
F1.41
sg20
S' 1,1,2,2-tetrachloroethylene'
p2732
sg41
g42
ssS'mobley_1903702'
p2733
(dp2734
g3
S'CC[C@H](C)O'
p2735
sg27
g28
sg29
F0.03
sg8
(lp2736
S'Renamed mobley_1903702 from butan-2-ol to (2S)-butan-2-ol (the name from the 3D structure) since the former did not completely specify stereochemistry.\n'
p2737
asg32
S'butan-2-ol'
p2738
sg13
I6568
sg14
F0.6
sg34
F-4.62
sg16
(lp2739
S'secondary alcohol'
p2740
asg39
F-3.12
sg20
S' butan-2-ol'
p2741
sg41
g42
ssS'mobley_5220185'
p2742
(dp2743
g3
S'CCc1cnccn1'
p2744
sg27
g28
sg29
F0.03
sg8
(lp2745
g31
asg32
S'2-ethylpyrazine'
p2746
sg13
I26331
sg14
F0.6
sg34
F-5.45
sg16
(lp2747
S'aromatic'
p2748
aS'heterocyclic'
p2749
asg39
F-5.68
sg20
S' 2-ethylpyrazine'
p2750
sg41
g42
ssS'mobley_5510474'
p2751
(dp2752
g3
S'c1ccc2c(c1)Oc3c(c(c(c(c3Cl)Cl)Cl)Cl)O2'
p2753
sg212
g213
sg214
F0.03
sg8
(lp2754
g31
asg216
S'1,2,3,4-tetrachlorodibenzo-p-dioxin'
p2755
sg13
I35454
sg218
F0.14
sg219
F-3.81
sg16
(lp2756
S'diaryl ether'
p2757
aS'aryl chloride'
p2758
aS'aromatic'
p2759
aS'heterocyclic'
p2760
asg222
F-2.7
sg20
S' 1,2,3,4-tetrachlorodibenzo-p-dioxin'
p2761
sg224
g225
ssS'mobley_3980099'
p2762
(dp2763
g3
S'c1cc(c(c(c1)Cl)Cl)Cl'
p2764
sg27
g28
sg29
F0.02
sg8
(lp2765
g31
asg32
S'1,2,3-trichlorobenzene'
p2766
sg13
I6895
sg14
F0.6
sg34
F-1.24
sg16
(lp2767
S'aryl chloride'
p2768
aS'aromatic'
p2769
asg39
F-0.38
sg20
S' 1,2,3-trichlorobenzene'
p2770
sg41
g42
ssS'mobley_1944394'
p2771
(dp2772
g3
S'CN(C)CCOC(c1ccccc1)c2ccccc2'
p2773
sg273
g274
sg275
F0.031
sg8
(lp2774
g31
asg277
S'[2-benzhydryloxyethyl]-dimethyl-amine'
p2775
sg13
I3100
sg279
g280
(g284
S'\xd7\xa3p=\n\xd7\xe3?'
p2776
tp2777
Rp2778
sg290
g280
(g284
S'\xaeG\xe1z\x14\xae"\xc0'
p2779
tp2780
Rp2781
sg16
(lp2782
S'dialkyl ether'
p2783
aS'tertiary amine'
p2784
aS'tertiary aliphatic amine (trialkylamine)'
p2785
aS'aromatic'
p2786
asg298
F-8.15
sg20
S' benadryl'
p2787
sg300
g301
ssS'mobley_2501588'
p2788
(dp2789
g3
S'CCC[N@@](CC1CC1)c2c(cc(cc2[N+](=O)[O-])C(F)(F)F)[N+](=O)[O-]'
p2790
sg177
g178
sg179
F0.04
sg8
(lp2791
g31
asg181
S'profluralin'
p2792
sg13
I33500
sg183
F1.37
sg184
F-2.45
sg16
(lp2793
S'tertiary amine'
p2794
aS'tertiary aliphatic/aromatic amine (alkylarylamine)'
p2795
aS'halogen derivative'
p2796
aS'nitro'
p2797
aS'aromatic'
p2798
asg187
F-1.81
sg20
S' profluralin'
p2799
sg189
g190
ssS'mobley_3968739'
p2800
(dp2801
g3
S'COC(=O)c1ccccc1'
p2802
sg27
g28
sg29
F0.03
sg8
(lp2803
g31
asg32
S'methyl benzoate'
p2804
sg13
I7150
sg14
F0.6
sg34
F-3.92
sg16
(lp2805
S'carboxylic acid ester'
p2806
aS'aromatic'
p2807
asg39
F-5.06
sg20
S' methyl benzoate'
p2808
sg41
g42
ssS'mobley_9897248'
p2809
(dp2810
g3
S'CC(=CCC/C(=C\\CO)/C)C'
p2811
sg273
g274
sg275
F0.022
sg8
(lp2812
g31
aS'Former IUPAC name Nerol replaced with one generated from the 3D structure, (2Z)-3,7-dimethylocta-2,6-dien-1-ol'
p2813
asg277
S'(2Z)-3,7-dimethylocta-2,6-dien-1-ol'
p2814
sg13
I643820
sg279
g280
(g284
S'\x00\x00\x00\x00\x00\x00\xd0?'
p2815
tp2816
Rp2817
sg290
g280
(g284
S'\x1f\x85\xebQ\xb8\x1e\x13\xc0'
p2818
tp2819
Rp2820
sg16
(lp2821
S'primary alcohol'
p2822
aS'alkene'
p2823
asg298
F-2.64
sg20
S' nerol'
p2824
sg300
g301
ssS'mobley_3727287'
p2825
(dp2826
g3
S'C1=CC(=O)C=CC1=O'
p2827
sg5
g6
sg7
F0.1
sg8
(lp2828
g10
asg11
S'quinone'
p2829
sg13
I4650
sg14
F0.2
sg15
F-6.5
sg16
(lp2830
S'ketone'
p2831
aS'alkene'
p2832
asg19
F-6.9
sg20
S' quinone'
p2833
sg22
g23
ssS'mobley_2577969'
p2834
(dp2835
g3
S'c1cc2ccc3cccc4c3c2c(c1)cc4'
p2836
sg27
g28
sg29
F0.03
sg8
(lp2837
g31
asg32
S'pyrene'
p2838
sg13
I31423
sg14
F0.6
sg34
F-4.52
sg16
(lp2839
S'aromatic'
p2840
asg39
F-6.62
sg20
S' pyrene'
p2841
sg41
g42
ssS'mobley_6620221'
p2842
(dp2843
g3
S'CC1(Cc2cccc(c2O1)OC(=O)NC)C'
p2844
sg177
g178
sg179
F0.04
sg8
(lp2845
g31
asg181
S'carbofuran'
p2846
sg13
I2566
sg183
F0.3
sg184
F-9.61
sg16
(lp2847
S'alkyl aryl ether'
p2848
aS'carbamic acid ester (urethane)'
p2849
aS'aromatic'
p2850
aS'heterocyclic'
p2851
asg187
F-11.21
sg20
S' carbofuran'
p2852
sg189
g190
ssS'mobley_3370989'
p2853
(dp2854
g3
S'CC(F)F'
p2855
sg27
g28
sg29
F0.02
sg8
(lp2856
g31
asg32
S'1,1-difluoroethane'
p2857
sg13
I6368
sg14
F0.6
sg34
F-0.11
sg16
(lp2858
S'alkyl fluoride'
p2859
asg39
F0.19
sg20
S' 1,1-difluoroethane'
p2860
sg41
g42
ssS'mobley_6239320'
p2861
(dp2862
g3
S'c1(=O)[nH]c(=O)[nH]c(=O)[nH]1'
p2863
sg443
g444
sg445
F0.07
sg8
(lp2864
g31
asg447
S'cyanuric acid'
p2865
sg13
I7956
sg449
F0.27
sg450
F-18.06
sg16
(lp2866
S'oxo(het)arene'
p2867
aS'aromatic'
p2868
aS'heterocyclic'
p2869
asg456
F-21.71
sg20
S' cyanuric acid'
p2870
sg458
g459
ssS'mobley_5056289'
p2871
(dp2872
g3
S'C[C@H]1CCCO1'
p2873
sg27
g28
sg29
F0.02
sg8
(lp2874
S'Renamed mobley_5056289 from 2-methyltetrahydrofuran to (2S)-2-methyltetrahydrofuran (the name from the 3D structure) since the former did not completely specify stereochemistry.\n'
p2875
asg32
S'2-methyltetrahydrofuran'
p2876
sg13
I7301
sg14
F0.6
sg34
F-3.3
sg16
(lp2877
S'dialkyl ether'
p2878
aS'heterocyclic'
p2879
asg39
F-1.95
sg20
S' 2-methyltetrahydrofuran'
p2880
sg41
g42
ssS'mobley_6358463'
p2881
(dp2882
g3
S'c1ccc(c(c1)C(F)(F)F)C(F)(F)F'
p2883
sg27
g28
sg29
F0.03
sg8
(lp2884
g31
asg32
S'1,2-bis(trifluoromethyl)benzene'
p2885
sg13
I9818
sg14
F0.6
sg34
F1.07
sg16
(lp2886
S'halogen derivative'
p2887
aS'aromatic'
p2888
asg39
F-1.58
sg20
S' 1,2-bis(trifluoromethyl)benzene'
p2889
sg41
g42
ssS'mobley_1261349'
p2890
(dp2891
g3
S'CC(C)(C)C'
p2892
sg27
g28
sg29
F0.02
sg8
(lp2893
g31
asg32
S'neopentane'
p2894
sg13
I10041
sg14
F0.6
sg34
F2.51
sg16
(lp2895
g68
asg39
F2.6
sg20
S' neopentane'
p2896
sg41
g42
ssS'mobley_1363784'
p2897
(dp2898
g3
S'Cc1cc(cnc1)C'
p2899
sg27
g28
sg29
F0.02
sg8
(lp2900
g31
asg32
S'3,5-dimethylpyridine'
p2901
sg13
I11565
sg14
F0.6
sg34
F-4.84
sg16
(lp2902
S'aromatic'
p2903
aS'heterocyclic'
p2904
asg39
F-2.94
sg20
S' 3,5-dimethylpyridine'
p2905
sg41
g42
ssS'mobley_628086'
p2906
(dp2907
g3
S'C[C@@H](C(F)(F)F)O'
p2908
sg27
g28
sg29
F0.03
sg8
(lp2909
S'Renamed mobley_628086 from 1,1,1-trifluoropropan-2-ol to (2S)-1,1,1-trifluoropropan-2-ol (the name from the 3D structure) since the former did not completely specify stereochemistry.\n'
p2910
asg32
S'1,1,1-trifluoropropan-2-ol'
p2911
sg13
I9774
sg14
F0.6
sg34
F-4.16
sg16
(lp2912
S'secondary alcohol'
p2913
aS'halogen derivative'
p2914
asg39
F-3.56
sg20
S' 1,1,1-trifluoropropan-2-ol'
p2915
sg41
g42
ssS'mobley_8207196'
p2916
(dp2917
g3
S'CCNc1nc(nc(n1)Cl)NCC'
p2918
sg177
g178
sg179
F0.04
sg8
(lp2919
g31
asg181
S'simazine'
p2920
sg13
I5216
sg183
F0.1
sg184
F-10.22
sg16
(lp2921
S'secondary amine'
p2922
aS'secondary aliphatic/aromatic amine (alkylarylamine)'
p2923
aS'aryl chloride'
p2924
aS'aromatic'
p2925
aS'heterocyclic'
p2926
asg187
F-8.63
sg20
S' simazine'
p2927
sg189
g190
ssS'mobley_5732611'
p2928
(dp2929
g3
S'Cc1c[nH]cn1'
p2930
sg27
S'10.1021/bi00507a030'
p2931
sg29
F0.03
sg8
(lp2932
g31
asg32
S'4-methyl-1H-imidazole'
p2933
sg13
I13195
sg14
F0.6
sg34
F-10.27
sg16
(lp2934
S'aromatic'
p2935
aS'heterocyclic'
p2936
asg39
F-7.99
sg20
S' 4-methyl-1H-imidazole'
p2937
sg41
g42
ssS'mobley_7039935'
p2938
(dp2939
g3
S'c1ccc2c(c1)cccc2O'
p2940
sg27
g28
sg29
F0.03
sg8
(lp2941
g31
asg32
S'naphthalen-1-ol'
p2942
sg13
I7005
sg14
F0.6
sg34
F-7.67
sg16
(lp2943
S'phenol or hydroxyhetarene'
p2944
aS'aromatic'
p2945
asg39
F-7.51
sg20
S' naphthalen-1-ol'
p2946
sg41
g42
ssS'mobley_1662128'
p2947
(dp2948
g3
S'CCC=C'
p2949
sg27
g28
sg29
F0.02
sg8
(lp2950
g31
asg32
S'but-1-ene'
p2951
sg13
I7844
sg14
F0.6
sg34
F1.38
sg16
(lp2952
S'alkene'
p2953
asg39
F2.48
sg20
S' but-1-ene'
p2954
sg41
g42
ssS'mobley_9510785'
p2955
(dp2956
g3
S'c1ccc(cc1)c2cc(c(c(c2Cl)Cl)Cl)Cl'
p2957
sg212
g213
sg214
F0.03
sg8
(lp2958
g31
asg216
S'1,2,3,4-tetrachloro-5-phenyl-benzene'
p2959
sg13
I36401
sg218
F1.0
sg219
F-3.48
sg16
(lp2960
S'aryl chloride'
p2961
aS'aromatic'
p2962
asg222
F-1.34
sg20
S' 2,3,4,5-tetrachlorobiphenyl'
p2963
sg224
g225
ssS'mobley_4465023'
p2964
(dp2965
g3
S'C(=C\\Cl)\\Cl'
p2966
sg27
g28
sg29
F0.02
sg8
(lp2967
S'Renamed mobley_4465023 from (Z)-1,2-dichloroethylene to (Z)-1,2-dichloroethylene (the name from the 3D structure) since the former did not completely specify stereochemistry.\n'
p2968
asg32
S'(Z)-1,2-dichloroethylene'
p2969
sg13
I643833
sg14
F0.6
sg34
F-1.17
sg16
(lp2970
S'halogen derivative'
p2971
aS'alkene'
p2972
asg39
F0.31
sg20
S' (Z)-1,2-dichloroethylene'
p2973
sg41
g42
ssS'mobley_4364398'
p2974
(dp2975
g3
S'CI'
p2976
sg27
g28
sg29
F0.01
sg8
(lp2977
g31
asg32
S'iodomethane'
p2978
sg13
I6328
sg14
F0.6
sg34
F-0.89
sg16
(lp2979
S'alkyl iodide'
p2980
asg39
F0.03
sg20
S' iodomethane'
p2981
sg41
g42
ssS'mobley_6917738'
p2982
(dp2983
g3
S'COCCN'
p2984
sg27
g28
sg29
F0.03
sg8
(lp2985
g31
asg32
S'2-methoxyethanamine'
p2986
sg13
I8018
sg14
F0.6
sg34
F-6.55
sg16
(lp2987
S'dialkyl ether'
p2988
aS'primary amine'
p2989
aS'primary aliphatic amine (alkylamine)'
p2990
asg39
F-5.62
sg20
S' 2-methoxyethanamine'
p2991
sg41
g42
ssS'mobley_6102880'
p2992
(dp2993
g3
S'c1ccc(cc1)Oc2ccccc2'
p2994
sg273
g274
sg275
F0.02
sg8
(lp2995
g31
asg277
S'diphenyl ether'
p2996
sg13
I7583
sg279
g280
(g284
S'\x14\xaeG\xe1z\x14\xe6?'
p2997
tp2998
Rp2999
sg290
g280
(g284
S'\xf6(\\\x8f\xc2\xf5\x06\xc0'
p3000
tp3001
Rp3002
sg16
(lp3003
S'diaryl ether'
p3004
aS'aromatic'
p3005
asg298
F-2.79
sg20
S' diphenyl ether'
p3006
sg300
g301
ssS'mobley_8118832'
p3007
(dp3008
g3
S'C=CCO'
p3009
sg27
g28
sg29
F0.03
sg8
(lp3010
g31
asg32
S'prop-2-en-1-ol'
p3011
sg13
I7858
sg14
F0.6
sg34
F-5.03
sg16
(lp3012
S'primary alcohol'
p3013
aS'alkene'
p3014
asg39
F-3.23
sg20
S' prop-2-en-1-ol'
p3015
sg41
g42
ssS'mobley_5076071'
p3016
(dp3017
g3
S'CCN(CC)c1c(cc(c(c1[N+](=O)[O-])N)C(F)(F)F)[N+](=O)[O-]'
p3018
sg177
g178
sg179
F0.04
sg8
(lp3019
g31
aS'Changed IUPAC name from dinitramine to 1-N,1-N-diethyl-2,6-dinitro-4-(trifluoromethyl)benzene-1,3-diamine for better handling/standardization.'
p3020
asg181
S'1-N,1-N-diethyl-2,6-dinitro-4-(trifluoromethyl)benzene-1,3-diamine'
p3021
sg13
I34468
sg183
F1.93
sg184
F-5.66
sg16
(lp3022
S'primary amine'
p3023
aS'primary aromatic amine'
p3024
aS'tertiary amine'
p3025
aS'tertiary aliphatic/aromatic amine (alkylarylamine)'
p3026
aS'halogen derivative'
p3027
aS'nitro'
p3028
aS'aromatic'
p3029
asg187
F-7.42
sg20
S' dinitramine'
p3030
sg189
g190
ssS'mobley_20524'
p3031
(dp3032
g3
S'c1ccc(cc1)O'
p3033
sg5
g6
sg7
F0.1
sg8
(lp3034
g10
asg11
S'phenol'
p3035
sg13
I996
sg14
F0.2
sg15
F-6.6
sg16
(lp3036
S'phenol or hydroxyhetarene'
p3037
aS'aromatic'
p3038
asg19
F-4.6
sg20
S' phenol'
p3039
sg22
g23
ssS'mobley_7378987'
p3040
(dp3041
g3
S'Cn1cnc2c1c(=O)n(c(=O)n2C)C'
p3042
sg443
g444
sg445
F0.07
sg8
(lp3043
g31
asg447
S'caffeine'
p3044
sg13
I2519
sg449
F0.74
sg450
F-12.64
sg16
(lp3045
S'oxo(het)arene'
p3046
aS'aromatic'
p3047
aS'heterocyclic'
p3048
asg456
F-17.57
sg20
S' caffeine'
p3049
sg458
g459
ssS'mobley_7227357'
p3050
(dp3051
g3
S'CCC(CC)O'
p3052
sg27
g28
sg29
F0.02
sg8
(lp3053
g31
asg32
S'pentan-3-ol'
p3054
sg13
I11428
sg14
F0.6
sg34
F-4.35
sg16
(lp3055
S'secondary alcohol'
p3056
asg39
F-2.95
sg20
S' pentan-3-ol'
p3057
sg41
g42
ssS'mobley_9139060'
p3058
(dp3059
g3
S'CC1CCC(CC1)C'
p3060
sg27
g28
sg29
F0.02
sg8
(lp3061
g31
asg32
S'1,4-dimethylcyclohexane'
p3062
sg13
I11523
sg14
F0.6
sg34
F2.11
sg16
(lp3063
g68
asg39
F2.05
sg20
S' 1,4-dimethylcyclohexane'
p3064
sg41
g42
ssS'mobley_2996632'
p3065
(dp3066
g3
S'C(Cl)(Cl)Cl'
p3067
sg27
g28
sg29
F0.02
sg8
(lp3068
g31
asg32
S'chloroform'
p3069
sg13
I6212
sg14
F0.6
sg34
F-1.08
sg16
(lp3070
S'halogen derivative'
p3071
asg39
F0.32
sg20
S' chloroform'
p3072
sg41
g42
ssS'mobley_9073553'
p3073
(dp3074
g3
S'CSC'
p3075
sg27
g28
sg29
F0.02
sg8
(lp3076
g31
asg32
S'methylsulfanylmethane'
p3077
sg13
I1068
sg14
F0.6
sg34
F-1.61
sg16
(lp3078
S'thioether'
p3079
asg39
F0.26
sg20
S' methylsulfanylmethane'
p3080
sg41
g42
ssS'mobley_397645'
p3081
(dp3082
g3
S'CCOC(=O)c1ccccc1'
p3083
sg27
g28
sg29
F0.02
sg8
(lp3084
g31
asg32
S'ethyl benzoate'
p3085
sg13
I7165
sg14
F0.6
sg34
F-3.64
sg16
(lp3086
S'carboxylic acid ester'
p3087
aS'aromatic'
p3088
asg39
F-4.68
sg20
S' ethyl benzoate'
p3089
sg41
g42
ssS'mobley_2518989'
p3090
(dp3091
g3
S'CCOP(=S)(OCC)S[C@@H](CCl)N1C(=O)c2ccccc2C1=O'
p3092
sg177
g178
sg179
F0.06
sg8
(lp3093
S'Renamed mobley_2518989 from 2-(2-chloro-1-diethoxyphosphinothioylsulfanylethyl)isoindole-1,3-dione to 2-[(1S)-2-chloro-1-diethoxyphosphinothioylsulfanyl-ethyl]isoindoline-1,3-dione (the name from the 3D structure) since the former did not completely specify stereochemistry.\n'
p3094
asg181
S'dialifor'
p3095
sg13
I25146
sg183
F1.93
sg184
F-5.74
sg16
(lp3096
S'alkyl chloride'
p3097
aS'carboxylic acid imide, N-substituted'
p3098
aS'thiophosphoric acid ester'
p3099
aS'aromatic'
p3100
aS'heterocyclic'
p3101
asg187
F-15.1
sg20
S' dialifor'
p3102
sg189
g190
ssS'mobley_282648'
p3103
(dp3104
g3
S'c1ccc2ccccc2c1'
p3105
sg27
g28
sg29
F0.02
sg8
(lp3106
g31
asg32
S'naphthalene'
p3107
sg13
I931
sg14
F0.6
sg34
F-2.4
sg16
(lp3108
S'aromatic'
p3109
asg39
F-3.34
sg20
S' naphthalene'
p3110
sg41
g42
ssS'mobley_5857'
p3111
(dp3112
g3
S'c1ccc2c(c1)cccn2'
p3113
sg27
g28
sg29
F0.02
sg8
(lp3114
g31
asg32
S'quinoline'
p3115
sg13
I7047
sg14
F0.6
sg34
F-5.72
sg16
(lp3116
S'aromatic'
p3117
aS'heterocyclic'
p3118
asg39
F-4.87
sg20
S' quinoline'
p3119
sg41
g42
ssS'mobley_197466'
p3120
(dp3121
g3
S'CC(=O)C1CC1'
p3122
sg27
g28
sg29
F0.02
sg8
(lp3123
g31
asg32
S'1-cyclopropylethanone'
p3124
sg13
I13004
sg14
F0.6
sg34
F-4.61
sg16
(lp3125
S'ketone'
p3126
asg39
F-3.74
sg20
S' 1-cyclopropylethanone'
p3127
sg41
g42
ssS'mobley_718988'
p3128
(dp3129
g3
S'CCCCCCCN'
p3130
sg27
g28
sg29
F0.03
sg8
(lp3131
g31
asg32
S'heptan-1-amine'
p3132
sg13
I8127
sg14
F0.6
sg34
F-3.79
sg16
(lp3133
S'primary amine'
p3134
aS'primary aliphatic amine (alkylamine)'
p3135
asg39
F-2.72
sg20
S' heptan-1-amine'
p3136
sg41
g42
ssS'mobley_967099'
p3137
(dp3138
g3
S'CC(C)[N+](=O)[O-]'
p3139
sg27
g28
sg29
F0.02
sg8
(lp3140
g31
asg32
S'2-nitropropane'
p3141
sg13
I398
sg14
F0.6
sg34
F-3.13
sg16
(lp3142
S'nitro'
p3143
asg39
F-1.61
sg20
S' 2-nitropropane'
p3144
sg41
g42
ssS'mobley_1792062'
p3145
(dp3146
g3
S'C(CBr)Br'
p3147
sg27
g28
sg29
F0.02
sg8
(lp3148
g31
asg32
S'1,2-dibromoethane'
p3149
sg13
I7839
sg14
F0.6
sg34
F-2.33
sg16
(lp3150
S'alkyl bromide'
p3151
asg39
F0.19
sg20
S' 1,2-dibromoethane'
p3152
sg41
g42
ssS'mobley_7203421'
p3153
(dp3154
g3
S'CCCCCC(=O)N'
p3155
sg27
g28
sg29
F0.03
sg8
(lp3156
g31
asg32
S'hexanamide'
p3157
sg13
I12332
sg14
F0.6
sg34
F-9.31
sg16
(lp3158
S'primary carboxylic acid amide'
p3159
asg39
F-8.14
sg20
S' hexanamide'
p3160
sg41
g42
ssS'mobley_4678740'
p3161
(dp3162
g3
S'c1cc(cc(c1)C(F)(F)F)C(F)(F)F'
p3163
sg1348
g1349
sg1350
F0.04
sg1351
(lp3164
g1353
ag31
aS'Changed IUPAC name from m-bis(trifluoromethyl)benzene to 1,3-bis(trifluoromethyl)benzene for better handling/standardization.'
p3165
ag1354
asg1355
S'm-bis(trifluoromethyl)benzene'
p3166
sg13
I223106
sg14
F0.2
sg1357
F1.07
sg16
(lp3167
S'halogen derivative'
p3168
aS'aromatic'
p3169
asg1360
F-0.27
sg20
S' m-bis(trifluoromethyl)benzene'
p3170
sg1362
g1349
ssS'mobley_7200804'
p3171
(dp3172
g3
S'c1ccc(c(c1)O)F'
p3173
sg27
g28
sg29
F0.03
sg8
(lp3174
g31
asg32
S'2-fluorophenol'
p3175
sg13
I9707
sg14
F0.6
sg34
F-5.29
sg16
(lp3176
S'phenol or hydroxyhetarene'
p3177
aS'aryl fluoride'
p3178
aS'aromatic'
p3179
asg39
F-3.24
sg20
S' 2-fluorophenol'
p3180
sg41
g42
ssS'mobley_7814642'
p3181
(dp3182
g3
S'c1cc(c(cc1Cl)Cl)Cl'
p3183
sg27
g28
sg29
F0.02
sg8
(lp3184
g31
asg32
S'1,2,4-trichlorobenzene'
p3185
sg13
I13
sg14
F0.6
sg34
F-1.12
sg16
(lp3186
S'aryl chloride'
p3187
aS'aromatic'
p3188
asg39
F-0.18
sg20
S' 1,2,4-trichlorobenzene'
p3189
sg41
g42
ssS'mobley_5094777'
p3190
(dp3191
g3
S'c1ccc2c(c1)CCC2'
p3192
sg27
g28
sg29
F0.02
sg8
(lp3193
g31
asg32
S'indane'
p3194
sg13
I10326
sg14
F0.6
sg34
F-1.46
sg16
(lp3195
S'aromatic'
p3196
asg39
F-1.7
sg20
S' indane'
p3197
sg41
g42
ssS'mobley_4561957'
p3198
(dp3199
g3
S'CC(C)C(C)C'
p3200
sg27
g28
sg29
F0.02
sg8
(lp3201
g31
asg32
S'2,3-dimethylbutane'
p3202
sg13
I6589
sg14
F0.6
sg34
F2.34
sg16
(lp3203
g68
asg39
F2.69
sg20
S' 2,3-dimethylbutane'
p3204
sg41
g42
ssS'mobley_5852491'
p3205
(dp3206
g3
S'CC1CCCC1'
p3207
sg27
g28
sg29
F0.02
sg8
(lp3208
g31
asg32
S'methylcyclopentane'
p3209
sg13
I7296
sg14
F0.6
sg34
F1.59
sg16
(lp3210
g68
asg39
F2.12
sg20
S' methylcyclopentane'
p3211
sg41
g42
ssS'mobley_1987439'
p3212
(dp3213
g3
S'Cc1cc(cc(c1)C)C'
p3214
sg27
g28
sg29
F0.02
sg8
(lp3215
g31
asg32
S'mesitylene'
p3216
sg13
I7947
sg14
F0.6
sg34
F-0.9
sg16
(lp3217
S'aromatic'
p3218
asg39
F0.04
sg20
S' mesitylene'
p3219
sg41
g42
ssS'mobley_8492526'
p3220
(dp3221
g3
S'CCCCC=O'
p3222
sg27
g28
sg29
F0.02
sg8
(lp3223
g31
asg32
S'pentanal'
p3224
sg13
I8063
sg14
F0.6
sg34
F-3.03
sg16
(lp3225
S'aldehyde'
p3226
asg39
F-2.96
sg20
S' pentanal'
p3227
sg41
g42
ssS'mobley_4494568'
p3228
(dp3229
g3
S'Cc1ccc(cc1)Br'
p3230
sg27
g28
sg29
F0.02
sg8
(lp3231
g31
asg32
S'1-bromo-4-methyl-benzene'
p3232
sg13
I7805
sg14
F0.6
sg34
F-1.39
sg16
(lp3233
S'aryl bromide'
p3234
aS'aromatic'
p3235
asg39
F0.04
sg20
S' 1-bromo-4-methyl-benzene'
p3236
sg41
g42
ssS'mobley_7869158'
p3237
(dp3238
g3
S'CC[C@H](C)O[N+](=O)[O-]'
p3239
sg177
g178
sg179
F0.02
sg8
(lp3240
g31
aS'Changed IUPAC name from 2-butyl nitrate to [(2S)-butan-2-yl] nitrate for better handling/standardization.'
p3241
asg181
S'[(2S)-butan-2-yl] nitrate'
p3242
sg13
I79123
sg183
F0.1
sg184
F-1.82
sg16
(lp3243
S'nitrate'
p3244
asg187
F-1.68
sg20
S' [(2S)-butan-2-yl] nitrate'
p3245
sg189
g190
ssS'mobley_7893124'
p3246
(dp3247
g3
S'CC(C)(C)c1ccccc1'
p3248
sg27
g28
sg29
F0.03
sg8
(lp3249
g31
asg32
S'tert-butylbenzene'
p3250
sg13
I7366
sg14
F0.6
sg34
F-0.44
sg16
(lp3251
S'aromatic'
p3252
asg39
F-0.42
sg20
S' tert-butylbenzene'
p3253
sg41
g42
ssS'mobley_5880265'
p3254
(dp3255
g3
S'CCCCOCCO'
p3256
sg27
g28
sg29
F0.03
sg8
(lp3257
g31
asg32
S'2-butoxyethanol'
p3258
sg13
I8133
sg14
F0.6
sg34
F-6.25
sg16
(lp3259
S'primary alcohol'
p3260
aS'dialkyl ether'
p3261
asg39
F-4.07
sg20
S' 2-butoxyethanol'
p3262
sg41
g42
ssS'mobley_8691603'
p3263
(dp3264
g3
S'Cc1cccc(c1)O'
p3265
sg27
g28
sg29
F0.03
sg8
(lp3266
g31
asg32
S'm-cresol'
p3267
sg13
I342
sg14
F0.6
sg34
F-5.49
sg16
(lp3268
S'phenol or hydroxyhetarene'
p3269
aS'aromatic'
p3270
asg39
F-5.28
sg20
S' m-cresol'
p3271
sg41
g42
ssS'mobley_2693089'
p3272
(dp3273
g3
S'CC(C)Cc1cnccn1'
p3274
sg27
g28
sg29
F0.03
sg8
(lp3275
g31
asg32
S'2-isobutylpyrazine'
p3276
sg13
I34591
sg14
F0.6
sg34
F-5.04
sg16
(lp3277
S'aromatic'
p3278
aS'heterocyclic'
p3279
asg39
F-5.1
sg20
S' 2-isobutylpyrazine'
p3280
sg41
g42
ssS'mobley_8525830'
p3281
(dp3282
g3
S'CCCCCI'
p3283
sg27
g28
sg29
F0.02
sg8
(lp3284
g31
asg32
S'1-iodopentane'
p3285
sg13
I12335
sg14
F0.6
sg34
F-0.14
sg16
(lp3286
S'alkyl iodide'
p3287
asg39
F0.66
sg20
S' 1-iodopentane'
p3288
sg41
g42
ssS'mobley_6232400'
p3289
(dp3290
g3
S'c1cc(cnc1)C=O'
p3291
sg27
g28
sg29
F0.03
sg8
(lp3292
g31
asg32
S'pyridine-3-carbaldehyde'
p3293
sg13
I10371
sg14
F0.6
sg34
F-7.1
sg16
(lp3294
S'aldehyde'
p3295
aS'aromatic'
p3296
aS'heterocyclic'
p3297
asg39
F-7.64
sg20
S' pyridine-3-carbaldehyde'
p3298
sg41
g42
ssS'mobley_4506634'
p3299
(dp3300
g3
S'[C@@H](C(F)(F)F)(Cl)Br'
p3301
sg27
g28
sg29
F0.02
sg8
(lp3302
S'Renamed mobley_4506634 from 2-bromo-2-chloro-1,1,1-trifluoro-ethane to (2R)-2-bromo-2-chloro-1,1,1-trifluoro-ethane (the name from the 3D structure) since the former did not completely specify stereochemistry.\n'
p3303
asg32
S'2-bromo-2-chloro-1,1,1-trifluoro-ethane'
p3304
sg13
I445258
sg14
F0.6
sg34
F-0.11
sg16
(lp3305
S'alkyl chloride'
p3306
aS'alkyl bromide'
p3307
asg39
F0.7
sg20
S' 2-bromo-2-chloro-1,1,1-trifluoro-ethane'
p3308
sg41
g42
ssS'mobley_6430250'
p3309
(dp3310
g3
S'CCCc1ccccc1'
p3311
sg27
g28
sg29
F0.02
sg8
(lp3312
g31
asg32
S'propylbenzene'
p3313
sg13
I7668
sg14
F0.6
sg34
F-0.53
sg16
(lp3314
S'aromatic'
p3315
asg39
F0.01
sg20
S' propylbenzene'
p3316
sg41
g42
ssS'mobley_8685905'
p3317
(dp3318
g3
S'[C@@H](C(F)(F)F)(F)Br'
p3319
sg27
g28
sg29
F0.02
sg8
(lp3320
S'Renamed mobley_8685905 from 2-bromo-1,1,1,2-tetrafluoro-ethane to (2R)-2-bromo-1,1,1,2-tetrafluoro-ethane (the name from the 3D structure) since the former did not completely specify stereochemistry.\n'
p3321
asg32
S'2-bromo-1,1,1,2-tetrafluoro-ethane'
p3322
sg13
I31300
sg14
F0.6
sg34
F0.5
sg16
(lp3323
S'alkyl fluoride'
p3324
aS'alkyl bromide'
p3325
asg39
F0.46
sg20
S' teflurane'
p3326
sg41
g42
ssS'mobley_2451097'
p3327
(dp3328
g3
S'c1ccc(cc1)C#N'
p3329
sg27
S'10.1039/P29940001777'
p3330
sg29
F0.02
sg8
(lp3331
g31
asg32
S'benzonitrile'
p3332
sg13
I7505
sg14
F0.6
sg34
F-4.1
sg16
(lp3333
S'carbonitrile'
p3334
aS'aromatic'
p3335
asg39
F-2.56
sg20
S' benzonitrile'
p3336
sg41
g42
ssS'mobley_7943327'
p3337
(dp3338
g3
S'CCC(=O)OCC'
p3339
sg27
g28
sg29
F0.02
sg8
(lp3340
g31
asg32
S'ethyl propanoate'
p3341
sg13
I7749
sg14
F0.6
sg34
F-2.68
sg16
(lp3342
S'carboxylic acid ester'
p3343
asg39
F-3.39
sg20
S' ethyl propanoate'
p3344
sg41
g42
ssS'mobley_337666'
p3345
(dp3346
g3
S'c1c(c(=O)[nH]c(=O)[nH]1)F'
p3347
sg443
g444
sg445
F0.06
sg8
(lp3348
g31
aS'Changed IUPAC name from 5-flurouracil to 5-fluorouracil for better handling/standardization.'
p3349
asg447
S'5-fluorouracil'
p3350
sg13
I3385
sg449
F0.88
sg450
F-16.92
sg16
(lp3351
S'aryl fluoride'
p3352
aS'oxo(het)arene'
p3353
aS'aromatic'
p3354
aS'heterocyclic'
p3355
asg456
F-16.41
sg20
S' 5-fluorouracil'
p3356
sg458
g459
ssS'mobley_1893937'
p3357
(dp3358
g3
S'CCCCCCCl'
p3359
sg27
g28
sg29
F0.03
sg8
(lp3360
g31
asg32
S'1-chlorohexane'
p3361
sg13
I10992
sg14
F0.6
sg34
F0.0
sg16
(lp3362
S'alkyl chloride'
p3363
asg39
F1.23
sg20
S' 1-chlorohexane'
p3364
sg41
g42
ssS'mobley_1827204'
p3365
(dp3366
g3
S'CCCCCC=O'
p3367
sg27
g28
sg29
F0.02
sg8
(lp3368
g31
asg32
S'hexanal'
p3369
sg13
I6184
sg14
F0.6
sg34
F-2.81
sg16
(lp3370
S'aldehyde'
p3371
asg39
F-2.96
sg20
S' hexanal'
p3372
sg41
g42
ssS'mobley_2913224'
p3373
(dp3374
g3
S'CC(=O)Oc1ccccc1C(=O)O'
p3375
sg443
g444
sg445
F0.07
sg8
(lp3376
g31
asg447
S'acetylsalicylic acid'
p3377
sg13
I2244
sg449
F0.18
sg450
F-9.94
sg16
(lp3378
S'carboxylic acid'
p3379
aS'carboxylic acid ester'
p3380
aS'aromatic'
p3381
asg456
F-11.25
sg20
S' acetylsalicylic acid'
p3382
sg458
g459
ssS'mobley_5561855'
p3383
(dp3384
g3
S'c1cc(c(c(c1)Cl)c2c(cc(cc2Cl)Cl)Cl)Cl'
p3385
sg212
g213
sg214
F0.04
sg8
(lp3386
g31
asg216
S'1,3,5-trichloro-2-(2,6-dichlorophenyl)benzene'
p3387
sg13
I91662
sg218
F0.1
sg219
F-1.96
sg16
(lp3388
S'aryl chloride'
p3389
aS'aromatic'
p3390
asg222
F-0.54
sg20
S" 2,2',4,6,6'-pentachlorobiphenyl"
p3391
sg224
g225
ssS'mobley_8723116'
p3392
(dp3393
g3
S'c1cc(ccc1N)Cl'
p3394
sg27
g28
sg29
F0.02
sg8
(lp3395
g31
asg32
S'4-chloroaniline'
p3396
sg13
I7812
sg14
F0.6
sg34
F-5.9
sg16
(lp3397
S'primary amine'
p3398
aS'primary aromatic amine'
p3399
aS'aryl chloride'
p3400
aS'aromatic'
p3401
asg39
F-5.28
sg20
S' 4-chloroaniline'
p3402
sg41
g42
ssS'mobley_2517158'
p3403
(dp3404
g3
S'CCCCCCCBr'
p3405
sg27
g28
sg29
F0.03
sg8
(lp3406
g31
asg32
S'1-bromoheptane'
p3407
sg13
I12369
sg14
F0.6
sg34
F0.34
sg16
(lp3408
S'alkyl bromide'
p3409
asg39
F1.66
sg20
S' 1-bromoheptane'
p3410
sg41
g42
ssS'mobley_6250025'
p3411
(dp3412
g3
S'CCCCCCI'
p3413
sg27
g28
sg29
F0.02
sg8
(lp3414
g31
asg32
S'1-iodohexane'
p3415
sg13
I12527
sg14
F0.6
sg34
F0.08
sg16
(lp3416
S'alkyl iodide'
p3417
asg39
F0.66
sg20
S' 1-iodohexane'
p3418
sg41
g42
ssS'mobley_4687447'
p3419
(dp3420
g3
S'CCCOCCO'
p3421
sg27
g28
sg29
F0.03
sg8
(lp3422
g31
asg32
S'2-propoxyethanol'
p3423
sg13
I17756
sg14
F0.6
sg34
F-6.4
sg16
(lp3424
S'primary alcohol'
p3425
aS'dialkyl ether'
p3426
asg39
F-4.21
sg20
S' 2-propoxyethanol'
p3427
sg41
g42
ssS'mobley_3325209'
p3428
(dp3429
g3
S'COC(c1ccccc1)(OC)OC'
p3430
sg27
g46
sg29
F0.04
sg8
(lp3431
g31
asg32
S'trimethoxymethylbenzene'
p3432
sg13
I69720
sg14
F0.6
sg34
F-4.04
sg16
(lp3433
S'orthocarboxylic acid derivative'
p3434
aS'orthoester'
p3435
aS'aromatic'
p3436
asg39
F-5.83
sg20
S' trimethoxymethylbenzene'
p3437
sg41
g42
ssS'mobley_1875719'
p3438
(dp3439
g3
S'CCC(=O)CC'
p3440
sg5
g6
sg7
F0.1
sg8
(lp3441
g10
asg11
S'pentan-3-one'
p3442
sg13
I7288
sg14
F0.2
sg15
F-3.41
sg16
(lp3443
S'ketone'
p3444
asg19
F-2.7
sg20
S' pentan-3-one'
p3445
sg22
g23
ssS'mobley_9112978'
p3446
(dp3447
g3
S'CC/C=C\\C'
p3448
sg27
g28
sg29
F0.02
sg8
(lp3449
S'Renamed mobley_9112978 from pent-2-ene to (Z)-pent-2-ene (the name from the 3D structure) since the former did not completely specify stereochemistry.\n'
p3450
asg32
S'pent-2-ene'
p3451
sg13
I21934815
sg14
F0.6
sg34
F1.31
sg16
(lp3452
S'alkene'
p3453
asg39
F2.55
sg20
S' pent-2-ene'
p3454
sg41
g42
ssS'mobley_5692472'
p3455
(dp3456
g3
S'CNC'
p3457
sg27
g28
sg29
F0.02
sg8
(lp3458
g31
asg32
S'N-methylmethanamine'
p3459
sg13
I674
sg14
F0.6
sg34
F-4.29
sg16
(lp3460
S'secondary amine'
p3461
aS'secondary aliphatic amine (dialkylamine)'
p3462
asg39
F-3.11
sg20
S' N-methylmethanamine'
p3463
sg41
g42
ssS'mobley_2972345'
p3464
(dp3465
g3
S'c1ccc2c(c1)Cc3ccccc3C2'
p3466
sg273
g274
sg275
F0.022
sg8
(lp3467
g31
asg277
S'9,10-dihydroanthracene'
p3468
sg13
I11940
sg279
g280
(g284
S'\x9a\x99\x99\x99\x99\x99\xb9?'
p3469
tp3470
Rp3471
sg290
g280
(g284
S'=\n\xd7\xa3p=\x0e\xc0'
p3472
tp3473
Rp3474
sg16
(lp3475
S'aromatic'
p3476
asg298
F-4.38
sg20
S' 9,10-dihydroanthracene'
p3477
sg300
g301
ssS'mobley_3976574'
p3478
(dp3479
g3
S'c1cc2c(cc1Cl)Oc3c(c(c(c(c3Cl)Cl)Cl)Cl)O2'
p3480
sg212
g213
sg214
F0.03
sg8
(lp3481
g31
asg216
S'1,2,3,4,7-pentachlorodibenzo-p-dioxin'
p3482
sg13
I38254
sg218
F1.0
sg219
F-4.15
sg16
(lp3483
S'diaryl ether'
p3484
aS'aryl chloride'
p3485
aS'aromatic'
p3486
aS'heterocyclic'
p3487
asg222
F-2.17
sg20
S' 1,2,3,4,7-pentachlorodibenzo-p-dioxin'
p3488
sg224
g225
ssS'mobley_8966374'
p3489
(dp3490
g3
S'Cc1cnccn1'
p3491
sg27
g28
sg29
F0.03
sg8
(lp3492
g31
asg32
S'2-methylpyrazine'
p3493
sg13
I7976
sg14
F0.6
sg34
F-5.51
sg16
(lp3494
S'aromatic'
p3495
aS'heterocyclic'
p3496
asg39
F-6.1
sg20
S' 2-methylpyrazine'
p3497
sg41
g42
ssS'mobley_2328633'
p3498
(dp3499
g3
S'CCCCCC1CCCC1'
p3500
sg27
g28
sg29
F0.03
sg8
(lp3501
g31
asg32
S'pentylcyclopentane'
p3502
sg13
I19540
sg14
F0.6
sg34
F2.55
sg16
(lp3503
g68
asg39
F2.39
sg20
S' pentylcyclopentane'
p3504
sg41
g42
ssS'mobley_7298388'
p3505
(dp3506
g3
S'Cc1cccc(c1)[N+](=O)[O-]'
p3507
sg27
g28
sg29
F0.02
sg8
(lp3508
g31
asg32
S'1-methyl-3-nitro-benzene'
p3509
sg13
I7422
sg14
F0.6
sg34
F-3.45
sg16
(lp3510
S'nitro'
p3511
aS'aromatic'
p3512
asg39
F-3.16
sg20
S' 1-methyl-3-nitro-benzene'
p3513
sg41
g42
ssS'mobley_3269819'
p3514
(dp3515
g3
S'c1c(cc(c(c1Cl)Cl)Cl)c2cc(c(c(c2Cl)Cl)Cl)Cl'
p3516
sg212
g213
sg214
F0.04
sg8
(lp3517
g31
asg216
S'1,2,3,4-tetrachloro-5-(3,4,5-trichlorophenyl)benzene'
p3518
sg13
I38306
sg218
F0.1
sg219
F-3.17
sg16
(lp3519
S'aryl chloride'
p3520
aS'aromatic'
p3521
asg222
F-0.77
sg20
S" 2,3,4,5,3',4',5'-heptachlorobiphenyl"
p3522
sg224
g225
ssS'mobley_3802803'
p3523
(dp3524
g3
S'CCCCCCO[N+](=O)[O-]'
p3525
sg273
g274
sg275
F0.022
sg8
(lp3526
g31
asg277
S'hexyl nitrate'
p3527
sg13
I30209
sg279
g280
(g284
S'\x9a\x99\x99\x99\x99\x99\xb9?'
p3528
tp3529
Rp3530
sg290
g280
(g284
S'\x8f\xc2\xf5(\\\x8f\xfa\xbf'
p3531
tp3532
Rp3533
sg16
(lp3534
S'nitrate'
p3535
asg298
F-1.63
sg20
S' hexyl nitrate'
p3536
sg300
g301
ssS'mobley_7497999'
p3537
(dp3538
g3
S'CC(=O)c1ccccc1'
p3539
sg27
g28
sg29
F0.03
sg8
(lp3540
g31
asg32
S'1-phenylethanone'
p3541
sg13
I7410
sg14
F0.6
sg34
F-4.58
sg16
(lp3542
S'ketone'
p3543
aS'aromatic'
p3544
asg39
F-5.07
sg20
S' 1-phenylethanone'
p3545
sg41
g42
ssS'mobley_8208692'
p3546
(dp3547
g3
S'c1c(c(c(c(c1Cl)Cl)Cl)Cl)c2c(cc(c(c2Cl)Cl)Cl)Cl'
p3548
sg212
g213
sg214
F0.05
sg8
(lp3549
g31
asg216
S'1,2,3,4-tetrachloro-5-(2,3,4,6-tetrachlorophenyl)benzene'
p3550
sg13
I39253
sg218
F0.25
sg219
F-4.61
sg16
(lp3551
S'aryl chloride'
p3552
aS'aromatic'
p3553
asg222
F0.0
sg20
S" 2,2',3,3',4,4',5,6'-octachloro-biphenyl"
p3554
sg224
g225
ssS'mobley_1199854'
p3555
(dp3556
g3
S'CCCI'
p3557
sg27
g28
sg29
F0.02
sg8
(lp3558
g31
asg32
S'1-iodopropane'
p3559
sg13
I33643
sg14
F0.6
sg34
F-0.53
sg16
(lp3560
S'alkyl iodide'
p3561
asg39
F0.0
sg20
S' 1-iodopropane'
p3562
sg41
g42
ssS'mobley_3867265'
p3563
(dp3564
g3
S'CC(=O)C'
p3565
sg27
g28
sg29
F0.02
sg8
(lp3566
g31
asg32
S'acetone'
p3567
sg13
I180
sg14
F0.6
sg34
F-3.8
sg16
(lp3568
S'ketone'
p3569
asg39
F-3.36
sg20
S' acetone'
p3570
sg41
g42
ssS'mobley_5072416'
p3571
(dp3572
g3
S'COc1ccccc1N'
p3573
sg27
g28
sg29
F0.03
sg8
(lp3574
g31
asg32
S'2-methoxyaniline'
p3575
sg13
I7000
sg14
F0.6
sg34
F-6.12
sg16
(lp3576
S'alkyl aryl ether'
p3577
aS'primary amine'
p3578
aS'primary aromatic amine'
p3579
aS'aromatic'
p3580
asg39
F-6.53
sg20
S' 2-methoxyaniline'
p3581
sg41
g42
ssS'mobley_2489709'
p3582
(dp3583
g3
S'c1ccc(c(c1)Cl)Cl'
p3584
sg27
g28
sg29
F0.02
sg8
(lp3585
g31
asg32
S'1,2-dichlorobenzene'
p3586
sg13
I7239
sg14
F0.6
sg34
F-1.36
sg16
(lp3587
S'aryl chloride'
p3588
aS'aromatic'
p3589
asg39
F-0.64
sg20
S' 1,2-dichlorobenzene'
p3590
sg41
g42
ssS'mobley_2481002'
p3591
(dp3592
g3
S'C([N+](=O)[O-])(Cl)(Cl)Cl'
p3593
sg177
g178
sg179
F0.02
sg8
(lp3594
g31
aS'Changed IUPAC name from chloropicrin to trichloro(nitro)methane for better handling/standardization.'
p3595
asg181
S'trichloro(nitro)methane'
p3596
sg13
I6423
sg183
F0.1
sg184
F-1.45
sg16
(lp3597
S'halogen derivative'
p3598
asg187
F-0.26
sg20
S' trichloro(nitro)methane'
p3599
sg189
g190
ssS'mobley_1034539'
p3600
(dp3601
g3
S'c1cc(c(cc1c2cc(c(c(c2Cl)Cl)Cl)Cl)Cl)Cl'
p3602
sg212
g213
sg214
F0.04
sg8
(lp3603
g31
asg216
S'1,2,3,4-tetrachloro-5-(3,4-dichlorophenyl)benzene'
p3604
sg13
I38019
sg218
F0.1
sg219
F-3.04
sg16
(lp3605
S'aryl chloride'
p3606
aS'aromatic'
p3607
asg222
F-1.0
sg20
S" 2,3,3',4,4',5-hexachlorobiphenyl"
p3608
sg224
g225
ssS'mobley_9460824'
p3609
(dp3610
g3
S'CCOP(=S)(OCC)SCSCC'
p3611
sg177
g178
sg179
F0.04
sg8
(lp3612
g31
aS'Changed IUPAC name from phorate to diethoxy-(ethylsulfanylmethylsulfanyl)-thioxo-$l^{5}-phosphane for better handling/standardization.'
p3613
asg181
S'diethoxy-(ethylsulfanylmethylsulfanyl)-thioxo-$l^{5}-phosphane'
p3614
sg13
I4790
sg183
F0.1
sg184
F-4.37
sg16
(lp3615
S'thiophosphoric acid ester'
p3616
asg187
F-5.2
sg20
S' phorate'
p3617
sg189
g190
ssS'mobley_8882696'
p3618
(dp3619
g3
S'C1CCOC1'
p3620
sg27
g28
sg29
F0.02
sg8
(lp3621
g31
asg32
S'tetrahydrofuran'
p3622
sg13
I8028
sg14
F0.6
sg34
F-3.47
sg16
(lp3623
S'dialkyl ether'
p3624
aS'heterocyclic'
p3625
asg39
F-2.07
sg20
S' tetrahydrofuran'
p3626
sg41
g42
ssS'mobley_7708038'
p3627
(dp3628
g3
S'CCCBr'
p3629
sg27
g28
sg29
F0.02
sg8
(lp3630
g31
asg32
S'1-bromopropane'
p3631
sg13
I7840
sg14
F0.6
sg34
F-0.56
sg16
(lp3632
S'alkyl bromide'
p3633
asg39
F1.29
sg20
S' 1-bromopropane'
p3634
sg41
g42
ssS'mobley_8916409'
p3635
(dp3636
g3
S'CCOC(=O)C[C@H](C(=O)OCC)SP(=S)(OC)OC'
p3637
sg177
g178
sg179
F0.05
sg8
(lp3638
g31
aS'Changed IUPAC name from malathion to diethyl (2R)-2-dimethoxyphosphinothioylsulfanylbutanedioate for better handling/standardization.'
p3639
asg181
S'diethyl (2R)-2-dimethoxyphosphinothioylsulfanylbutanedioate'
p3640
sg13
I12358970
sg183
F0.21
sg184
F-8.15
sg16
(lp3641
S'carboxylic acid ester'
p3642
aS'thiophosphoric acid ester'
p3643
asg187
F-12.99
sg20
S' butanedioic acid'
p3644
sg189
g190
ssS'mobley_1770205'
p3645
(dp3646
g3
S'COP(=S)(OC)SCn1c(=O)c2ccccc2nn1'
p3647
sg177
g178
sg179
F0.04
sg8
(lp3648
g31
aS'Changed IUPAC name from azinphosmethyl to 3-(dimethoxyphosphinothioylsulfanylmethyl)-1,2,3-benzotriazin-4-one for better handling/standardization.'
p3649
asg181
S'3-(dimethoxyphosphinothioylsulfanylmethyl)-1,2,3-benzotriazin-4-one'
p3650
sg13
I2268
sg183
F1.37
sg184
F-10.03
sg16
(lp3651
S'oxo(het)arene'
p3652
aS'thiophosphoric acid ester'
p3653
aS'aromatic'
p3654
aS'heterocyclic'
p3655
asg187
F-15.54
sg20
S' azinphos-methyl'
p3656
sg189
g190
ssS'mobley_3982371'
p3657
(dp3658
g3
S'CC(=O)OC'
p3659
sg27
g28
sg29
F0.02
sg8
(lp3660
g31
asg32
S'methyl acetate'
p3661
sg13
I6584
sg14
F0.6
sg34
F-3.13
sg16
(lp3662
S'carboxylic acid ester'
p3663
asg39
F-3.73
sg20
S' methyl acetate'
p3664
sg41
g42
ssS'mobley_2659552'
p3665
(dp3666
g3
S'Cc1ccc(cc1)C(=O)N(C)C'
p3667
sg1348
g1349
sg1350
F0.05
sg1351
(lp3668
g1353
ag31
ag1354
asg1355
S'N,N-4-trimethylbenzamide'
p3669
sg13
I84179
sg14
F0.2
sg1357
F-9.76
sg16
(lp3670
S'tertiary carboxylic acid amide'
p3671
aS'aromatic'
p3672
asg1360
F-8.76
sg20
S' N,N-4-trimethylbenzamide'
p3673
sg1362
g1349
ssS'mobley_2422586'
p3674
(dp3675
g3
S'CCCOC'
p3676
sg27
g28
sg29
F0.02
sg8
(lp3677
g31
asg32
S'1-methoxypropane'
p3678
sg13
I11182
sg14
F0.6
sg34
F-1.66
sg16
(lp3679
S'dialkyl ether'
p3680
asg39
F-0.41
sg20
S' 1-methoxypropane'
p3681
sg41
g42
ssS'mobley_2725215'
p3682
(dp3683
g3
S'CCCN(CCC)c1c(cc(cc1[N+](=O)[O-])S(=O)(=O)C)[N+](=O)[O-]'
p3684
sg177
g178
sg179
F0.05
sg8
(lp3685
g31
asg181
S'nitralin'
p3686
sg13
I20848
sg183
F1.93
sg184
F-7.98
sg16
(lp3687
S'tertiary amine'
p3688
aS'tertiary aliphatic/aromatic amine (alkylarylamine)'
p3689
aS'nitro'
p3690
aS'sulfone'
p3691
aS'aromatic'
p3692
asg187
F-11.56
sg20
S' nitralin'
p3693
sg189
g190
ssS'mobley_9571888'
p3694
(dp3695
g3
S'C1[C@@H]2[C@H](COS(=O)O1)[C@@]3(C(=C([C@]2(C3(Cl)Cl)Cl)Cl)Cl)Cl'
p3696
sg177
g178
sg179
F0.04
sg8
(lp3697
g31
asg181
S'endosulfan alpha'
p3698
sg13
I12309460
sg183
F0.26
sg184
F-4.23
sg16
(lp3699
S'alkyl chloride'
p3700
aS'alkene'
p3701
aS'heterocyclic'
p3702
asg187
F-9.96
sg20
S' endosulfan alpha'
p3703
sg189
g190
ssS'mobley_3777264'
p3704
(dp3705
g3
S'c1cc(cc(c1)[N+](=O)[O-])N'
p3706
sg27
g28
sg29
F0.03
sg8
(lp3707
g31
asg32
S'3-nitroaniline'
p3708
sg13
I7423
sg14
F0.6
sg34
F-8.84
sg16
(lp3709
S'primary amine'
p3710
aS'primary aromatic amine'
p3711
aS'nitro'
p3712
aS'aromatic'
p3713
asg39
F-8.24
sg20
S' 3-nitroaniline'
p3714
sg41
g42
ssS'mobley_6006813'
p3715
(dp3716
g3
S'CCCC[N+](=O)[O-]'
p3717
sg27
g28
sg29
F0.02
sg8
(lp3718
g31
asg32
S'1-nitrobutane'
p3719
sg13
I12302
sg14
F0.6
sg34
F-3.09
sg16
(lp3720
S'nitro'
p3721
asg39
F-1.51
sg20
S' 1-nitrobutane'
p3722
sg41
g42
ssS'mobley_1636752'
p3723
(dp3724
g3
S'CO'
p3725
sg27
g28
sg29
F0.01
sg8
(lp3726
g31
asg32
S'methanol'
p3727
sg13
I887
sg14
F0.6
sg34
F-5.1
sg16
(lp3728
S'primary alcohol'
p3729
asg39
F-3.48
sg20
S' methanol'
p3730
sg41
g42
ssS'mobley_3525176'
p3731
(dp3732
g3
S'CCCCCc1ccccc1'
p3733
sg27
g28
sg29
F0.03
sg8
(lp3734
g31
asg32
S'pentylbenzene'
p3735
sg13
I10864
sg14
F0.6
sg34
F-0.23
sg16
(lp3736
S'aromatic'
p3737
asg39
F0.05
sg20
S' pentylbenzene'
p3738
sg41
g42
ssS'mobley_1905088'
p3739
(dp3740
g3
S'c1ccc(cc1)CBr'
p3741
sg1348
g1349
sg1350
F0.1
sg1351
(lp3742
g1353
ag31
ag1354
asg1355
S'benzyl bromide'
p3743
sg13
I7498
sg14
F0.2
sg1357
F-2.38
sg16
(lp3744
S'alkyl bromide'
p3745
aS'aromatic'
p3746
asg1360
F-1.11
sg20
S' benzyl bromide'
p3747
sg1362
g1349
ssS'mobley_637522'
p3748
(dp3749
g3
S'c1ccc2cc3ccccc3cc2c1'
p3750
sg27
g28
sg29
F0.03
sg8
(lp3751
g31
asg32
S'anthracene'
p3752
sg13
I8418
sg14
F0.6
sg34
F-3.95
sg16
(lp3753
S'aromatic'
p3754
asg39
F-5.39
sg20
S' anthracene'
p3755
sg41
g42
ssS'mobley_1615431'
p3756
(dp3757
g3
S'CC(C)OC(C)C'
p3758
sg27
g28
sg29
F0.02
sg8
(lp3759
g31
asg32
S'2-isopropoxypropane'
p3760
sg13
I7914
sg14
F0.6
sg34
F-0.53
sg16
(lp3761
S'dialkyl ether'
p3762
asg39
F-0.11
sg20
S' 2-isopropoxypropane'
p3763
sg41
g42
ssS'mobley_9281946'
p3764
(dp3765
g3
S'CCOP(=S)(OCC)Oc1ccc(cc1)[N+](=O)[O-]'
p3766
sg177
g178
sg179
F0.04
sg8
(lp3767
g31
aS'Changed IUPAC name from parathion to diethoxy-(4-nitrophenoxy)-thioxo-$l^{5}-phosphane for better handling/standardization.'
p3768
asg181
S'diethoxy-(4-nitrophenoxy)-thioxo-$l^{5}-phosphane'
p3769
sg13
I991
sg183
F0.1
sg184
F-6.74
sg16
(lp3770
S'nitro'
p3771
aS'thiophosphoric acid ester'
p3772
aS'aromatic'
p3773
asg187
F-9.41
sg20
S' parathion'
p3774
sg189
g190
ssS'mobley_1469079'
p3775
(dp3776
g3
S'c1ccc2c(c1)Oc3cc(c(cc3O2)Cl)Cl'
p3777
sg212
g213
sg214
F0.02
sg8
(lp3778
g31
asg216
S'2,3-dichlorodibenzo-p-dioxin'
p3779
sg13
I34586
sg218
F1.0
sg219
F-3.56
sg16
(lp3780
S'diaryl ether'
p3781
aS'aryl chloride'
p3782
aS'aromatic'
p3783
aS'heterocyclic'
p3784
asg222
F-3.51
sg20
S' 2,3-dichlorodibenzo-p-dioxin'
p3785
sg224
g225
ssS'mobley_4603202'
p3786
(dp3787
g3
S'C(CCl)OCCCl'
p3788
sg1348
g1349
sg1350
F0.01
sg1351
(lp3789
g1353
ag31
aS'Changed IUPAC name from bis-2-chloroethyl ether to 1-chloro-2-(2-chloroethoxy)ethane for better handling/standardization.'
p3790
ag1354
asg1355
S'1-chloro-2-(2-chloroethoxy)ethane'
p3791
sg13
I8115
sg14
F0.2
sg1357
F-4.23
sg16
(lp3792
S'dialkyl ether'
p3793
aS'alkyl chloride'
p3794
asg1360
F-2.07
sg20
S" 2,2'-dichlorodiethyl ether"
p3795
sg1362
g1349
ssS'mobley_2341732'
p3796
(dp3797
g3
S'CCCCC(=O)OC'
p3798
sg27
g28
sg29
F0.02
sg8
(lp3799
g31
asg32
S'methyl pentanoate'
p3800
sg13
I12206
sg14
F0.6
sg34
F-2.56
sg16
(lp3801
S'carboxylic acid ester'
p3802
asg39
F-3.51
sg20
S' methyl pentanoate'
p3803
sg41
g42
ssS'mobley_6981465'
p3804
(dp3805
g3
S'CC(C)OC(=O)C'
p3806
sg27
g28
sg29
F0.03
sg8
(lp3807
g31
asg32
S'isopropyl acetate'
p3808
sg13
I7915
sg14
F0.6
sg34
F-2.64
sg16
(lp3809
S'carboxylic acid ester'
p3810
asg39
F-2.92
sg20
S' isopropyl acetate'
p3811
sg41
g42
ssS'mobley_1527293'
p3812
(dp3813
g3
S'C[C@@H](c1ccc(c(c1)F)c2ccccc2)C(=O)O'
p3814
sg443
g444
sg445
F0.07
sg8
(lp3815
S'Renamed mobley_1527293 from flurbiprofen to (2S)-2-(3-fluoro-4-phenyl-phenyl)propanoic acid (the name from the 3D structure) since the former did not completely specify stereochemistry.\n'
p3816
asg447
S'flurbiprofen'
p3817
sg13
I3394
sg449
F0.16
sg450
F-8.42
sg16
(lp3818
S'aryl fluoride'
p3819
aS'carboxylic acid'
p3820
aS'aromatic'
p3821
asg456
F-8.7
sg20
S' flurbiprofen'
p3822
sg458
g459
ssS'mobley_3425174'
p3823
(dp3824
g3
S'C(F)Cl'
p3825
sg27
g28
sg29
F0.01
sg8
(lp3826
g31
asg32
S'chloro-fluoro-methane'
p3827
sg13
I11643
sg14
F0.6
sg34
F-0.77
sg16
(lp3828
S'alkyl fluoride'
p3829
aS'alkyl chloride'
p3830
asg39
F-0.22
sg20
S' chloro-fluoro-methane'
p3831
sg41
g42
ssS'mobley_5393242'
p3832
(dp3833
g3
S'CCOP(=S)(OCC)Oc1cc(nc(n1)C(C)C)C'
p3834
sg177
g178
sg179
F0.05
sg8
(lp3835
g31
asg181
S'diazinon'
p3836
sg13
I3017
sg183
F0.13
sg184
F-6.48
sg16
(lp3837
S'thiophosphoric acid ester'
p3838
aS'aromatic'
p3839
aS'heterocyclic'
p3840
asg187
F-9.97
sg20
S' diazinon'
p3841
sg189
g190
ssS'mobley_9624458'
p3842
(dp3843
g3
S'C(CCl)CCl'
p3844
sg27
g28
sg29
F0.02
sg8
(lp3845
g31
asg32
S'1,3-dichloropropane'
p3846
sg13
I8881
sg14
F0.6
sg34
F-1.89
sg16
(lp3847
S'alkyl chloride'
p3848
asg39
F-0.38
sg20
S' 1,3-dichloropropane'
p3849
sg41
g42
ssS'mobley_2316618'
p3850
(dp3851
g3
S'c1ccc2c(c1)C(=O)c3cccc(c3C2=O)NCCO'
p3852
sg273
g274
sg275
F0.029
sg8
(lp3853
g31
asg277
S'1-(2-hydroxyethylamino)-9,10-anthraquinone'
p3854
sg13
I20528
sg279
g280
(g284
S'\x9a\x99\x99\x99\x99\x99\xf1?'
p3855
tp3856
Rp3857
sg290
g280
(g284
S'\xecQ\xb8\x1e\x85k,\xc0'
p3858
tp3859
Rp3860
sg16
(lp3861
S'ketone'
p3862
aS'primary alcohol'
p3863
aS'1,2-aminoalcohol'
p3864
aS'secondary amine'
p3865
aS'secondary aliphatic/aromatic amine (alkylarylamine)'
p3866
aS'aromatic'
p3867
asg298
F-13.33
sg20
S' 9,10-anthracenedione'
p3868
sg300
g301
ssS'mobley_349850'
p3869
(dp3870
g3
S'Cc1ccc(cc1)C(=O)C'
p3871
sg27
g28
sg29
F0.03
sg8
(lp3872
g31
asg32
S'1-(p-tolyl)ethanone'
p3873
sg13
I8500
sg14
F0.6
sg34
F-4.7
sg16
(lp3874
S'ketone'
p3875
aS'aromatic'
p3876
asg39
F-4.82
sg20
S' 1-(p-tolyl)ethanone'
p3877
sg41
g42
ssS'mobley_186894'
p3878
(dp3879
g3
S'CCCS'
p3880
sg5
g6
sg7
F0.1
sg8
(lp3881
g10
asg11
S'propanethiol'
p3882
sg13
I7848
sg14
F0.2
sg15
F-1.1
sg16
(lp3883
S'thiol (sulfanyl)'
p3884
aS'alkylthiol'
p3885
asg19
F-0.3
sg20
S' propanethiol'
p3886
sg22
g23
ssS'mobley_7463408'
p3887
(dp3888
g3
S'CCC(=O)Nc1ccc(c(c1)Cl)Cl'
p3889
sg177
g178
sg179
F0.04
sg8
(lp3890
g31
aS'Changed IUPAC name from propanil to N-(3,4-dichlorophenyl)propanimidic acid for better handling/standardization.'
p3891
asg181
S'N-(3,4-dichlorophenyl)propanimidic acid'
p3892
sg13
I4933
sg183
F1.93
sg184
F-7.78
sg16
(lp3893
S'aryl chloride'
p3894
aS'secondary carboxylic acid amide'
p3895
aS'aromatic'
p3896
asg187
F-9.65
sg20
S' propanil'
p3897
sg189
g190
ssS'mobley_5627459'
p3898
(dp3899
g3
S'CC(C)C=O'
p3900
sg27
g28
sg29
F0.02
sg8
(lp3901
g31
asg32
S'2-methylpropanal'
p3902
sg13
I6561
sg14
F0.6
sg34
F-2.86
sg16
(lp3903
S'aldehyde'
p3904
asg39
F-2.93
sg20
S' 2-methylpropanal'
p3905
sg41
g42
ssS'mobley_5123639'
p3906
(dp3907
g3
S'C[C@H](CC(C)C)O'
p3908
sg27
g28
sg29
F0.02
sg8
(lp3909
g31
asg32
S'4-methylpentan-2-ol'
p3910
sg13
I7910
sg14
F0.6
sg34
F-3.73
sg16
(lp3911
S'secondary alcohol'
p3912
asg39
F-2.75
sg20
S' 4-methylpentan-2-ol'
p3913
sg41
g42
ssS'mobley_2049967'
p3914
(dp3915
g3
S'CCSC'
p3916
sg5
g6
sg7
F0.1
sg8
(lp3917
g10
aS'Changed IUPAC name from ethylmethylsulfide to methylsulfanylethane for better handling/standardization.'
p3918
asg11
S'methylsulfanylethane'
p3919
sg13
I12230
sg14
F0.2
sg15
F-1.5
sg16
(lp3920
S'thioether'
p3921
asg19
F-0.3
sg20
S' methylsulfanylethane'
p3922
sg22
g23
ssS'mobley_4759887'
p3923
(dp3924
g3
S'CCCCCCCI'
p3925
sg27
g28
sg29
F0.03
sg8
(lp3926
g31
asg32
S'1-iodoheptane'
p3927
sg13
I20274
sg14
F0.6
sg34
F0.27
sg16
(lp3928
S'alkyl iodide'
p3929
asg39
F1.19
sg20
S' 1-iodoheptane'
p3930
sg41
g42
ssS'mobley_4219614'
p3931
(dp3932
g3
S'c1cc(c(c(c1Cl)Cl)Cl)Cl'
p3933
sg27
g28
sg29
F0.02
sg8
(lp3934
g31
asg32
S'1,2,3,4-tetrachlorobenzene'
p3935
sg13
I12463
sg14
F0.6
sg34
F-1.34
sg16
(lp3936
S'aryl chloride'
p3937
aS'aromatic'
p3938
asg39
F-0.32
sg20
S' 1,2,3,4-tetrachlorobenzene'
p3939
sg41
g42
ssS'mobley_511661'
p3940
(dp3941
g3
S'C=CC=C'
p3942
sg5
S'10.1021/jo00891a006'
p3943
sg7
F0.1
sg8
(lp3944
g10
asg11
S'butadiene'
p3945
sg13
I7845
sg14
F0.2
sg15
F0.56
sg16
(lp3946
S'alkene'
p3947
asg19
F1.9
sg20
S' butadiene'
p3948
sg22
g23
ssS'mobley_4463913'
p3949
(dp3950
g3
S'CC(OC(=O)C)OC(=O)C'
p3951
sg27
g1301
sg29
F0.1
sg8
(lp3952
g31
asg32
S'1-acetoxyethyl acetate'
p3953
sg13
I222536
sg14
F0.6
sg34
F-4.97
sg16
(lp3954
S'carboxylic acid ester'
p3955
asg39
F-7.9
sg20
S' 1-acetoxyethyl acetate'
p3956
sg41
g42
ssS'mobley_6632459'
p3957
(dp3958
g3
S'CCC=O'
p3959
sg27
g28
sg29
F0.02
sg8
(lp3960
g31
asg32
S'propanal'
p3961
sg13
I527
sg14
F0.6
sg34
F-3.43
sg16
(lp3962
S'aldehyde'
p3963
asg39
F-3.08
sg20
S' propanal'
p3964
sg41
g42
ssS'mobley_2183616'
p3965
(dp3966
g3
S'CC[C@H](C)c1ccccc1'
p3967
sg27
g28
sg29
F0.03
sg8
(lp3968
S'Renamed mobley_2183616 from sec-butylbenzene to [(1S)-1-methylpropyl]benzene (the name from the 3D structure) since the former did not completely specify stereochemistry.\n'
p3969
asg32
S'sec-butylbenzene'
p3970
sg13
I8680
sg14
F0.6
sg34
F-0.45
sg16
(lp3971
S'aromatic'
p3972
asg39
F0.04
sg20
S' sec-butylbenzene'
p3973
sg41
g42
ssS'mobley_6416775'
p3974
(dp3975
g3
S'CCCC1CCCC1'
p3976
sg27
g28
sg29
F0.02
sg8
(lp3977
g31
asg32
S'propylcyclopentane'
p3978
sg13
I16270
sg14
F0.6
sg34
F2.13
sg16
(lp3979
g68
asg39
F2.15
sg20
S' propylcyclopentane'
p3980
sg41
g42
ssS'mobley_902954'
p3981
(dp3982
g3
S'CCCCO[N+](=O)[O-]'
p3983
sg177
g178
sg179
F0.02
sg8
(lp3984
g31
asg181
S'butyl nitrate'
p3985
sg13
I13567
sg183
F0.1
sg184
F-2.09
sg16
(lp3986
S'nitrate'
p3987
asg187
F-1.83
sg20
S' butyl nitrate'
p3988
sg189
g190
ssS'mobley_7463799'
p3989
(dp3990
g3
S'c1ccc(cc1)CCCO'
p3991
sg27
g28
sg29
F0.03
sg8
(lp3992
g31
asg32
S'3-phenylpropan-1-ol'
p3993
sg13
I31234
sg14
F0.6
sg34
F-6.92
sg16
(lp3994
S'primary alcohol'
p3995
aS'aromatic'
p3996
asg39
F-5.5
sg20
S' 3-phenylpropan-1-ol'
p3997
sg41
g42
ssS'mobley_3969312'
p3998
(dp3999
g3
S'c1ccc(cc1)C=O'
p4000
sg27
g28
sg29
F0.02
sg8
(lp4001
g31
asg32
S'benzaldehyde'
p4002
sg13
I240
sg14
F0.6
sg34
F-4.02
sg16
(lp4003
S'aldehyde'
p4004
aS'aromatic'
p4005
asg39
F-4.99
sg20
S' benzaldehyde'
p4006
sg41
g42
ssS'mobley_6248915'
p4007
(dp4008
g3
S'CCCCCCCCN'
p4009
sg27
g28
sg29
F0.03
sg8
(lp4010
g31
asg32
S'octan-1-amine'
p4011
sg13
I8143
sg14
F0.6
sg34
F-3.65
sg16
(lp4012
S'primary amine'
p4013
aS'primary aliphatic amine (alkylamine)'
p4014
asg39
F-2.38
sg20
S' octan-1-amine'
p4015
sg41
g42
ssS'mobley_1881249'
p4016
(dp4017
g3
S'CCCC(=O)C'
p4018
sg27
g28
sg29
F0.02
sg8
(lp4019
g31
asg32
S'pentan-2-one'
p4020
sg13
I7895
sg14
F0.6
sg34
F-3.52
sg16
(lp4021
S'ketone'
p4022
asg39
F-3.29
sg20
S' pentan-2-one'
p4023
sg41
g42
ssS'mobley_8449031'
p4024
(dp4025
g3
S'CCN(CC)CC'
p4026
sg27
g28
sg29
F0.03
sg8
(lp4027
g31
asg32
S'N,N-diethylethanamine'
p4028
sg13
I8471
sg14
F0.6
sg34
F-3.22
sg16
(lp4029
S'tertiary amine'
p4030
aS'tertiary aliphatic amine (trialkylamine)'
p4031
asg39
F-1.83
sg20
S' N,N-diethylethanamine'
p4032
sg41
g42
ssS'mobley_5467162'
p4033
(dp4034
g3
S'CC(C)(C)c1ccc(cc1)O'
p4035
sg27
g28
sg29
F0.04
sg8
(lp4036
g31
asg32
S'4-tert-butylphenol'
p4037
sg13
I7393
sg14
F0.6
sg34
F-5.91
sg16
(lp4038
S'phenol or hydroxyhetarene'
p4039
aS'aromatic'
p4040
asg39
F-5.54
sg20
S' 4-tert-butylphenol'
p4041
sg41
g42
ssS'mobley_6522117'
p4042
(dp4043
g3
S'CCOP(=O)(OCC)O/C(=C/Cl)/c1ccc(cc1Cl)Cl'
p4044
sg177
g178
sg179
F0.05
sg8
(lp4045
S'Renamed mobley_6522117 from 2-chloro-1-(2,4-dichlorophenyl)ethenyl diethyl phosphate to [(E)-2-chloro-1-(2,4-dichlorophenyl)vinyl] diethyl phosphate (the name from the 3D structure) since the former did not completely specify stereochemistry.\n'
p4046
asg181
S'2-chloro-1-(2,4-dichlorophenyl)ethenyl diethyl phosphate'
p4047
sg13
I10107
sg183
F1.37
sg184
F-7.07
sg16
(lp4048
S'aryl chloride'
p4049
aS'phosphoric acid ester'
p4050
aS'alkene'
p4051
aS'aromatic'
p4052
asg187
F-9.45
sg20
S' Chlorfenvinphos'
p4053
sg189
g190
ssS'mobley_7977115'
p4054
(dp4055
g3
S'CCC[C@H](CC)O'
p4056
sg27
g28
sg29
F0.02
sg8
(lp4057
S'Renamed mobley_7977115 from hexan-3-ol to (3S)-hexan-3-ol (the name from the 3D structure) since the former did not completely specify stereochemistry.\n'
p4058
asg32
S'hexan-3-ol'
p4059
sg13
I12178
sg14
F0.6
sg34
F-4.06
sg16
(lp4060
S'secondary alcohol'
p4061
asg39
F-2.63
sg20
S' hexan-3-ol'
p4062
sg41
g42
ssS'mobley_8809274'
p4063
(dp4064
g3
S'c1ccc(cc1)C(F)(F)F'
p4065
sg27
S'10.1039/P29940001777'
p4066
sg29
F0.02
sg8
(lp4067
g31
asg32
S'trifluoromethylbenzene'
p4068
sg13
I7368
sg14
F0.6
sg34
F-0.25
sg16
(lp4069
S'halogen derivative'
p4070
aS'aromatic'
p4071
asg39
F-0.55
sg20
S' trifluoromethylbenzene'
p4072
sg41
g42
ssS'mobley_5063386'
p4073
(dp4074
g3
S'c1ccc(c(c1)[N+](=O)[O-])O'
p4075
sg27
g28
sg29
F0.03
sg8
(lp4076
g31
asg32
S'2-nitrophenol'
p4077
sg13
I6947
sg14
F0.6
sg34
F-4.58
sg16
(lp4078
S'phenol or hydroxyhetarene'
p4079
aS'nitro'
p4080
aS'aromatic'
p4081
asg39
F-5.34
sg20
S' 2-nitrophenol'
p4082
sg41
g42
ssS'mobley_2958326'
p4083
(dp4084
g3
S'CCCNCCC'
p4085
sg27
g28
sg29
F0.02
sg8
(lp4086
g31
asg32
S'N-propylpropan-1-amine'
p4087
sg13
I8902
sg14
F0.6
sg34
F-3.65
sg16
(lp4088
S'secondary amine'
p4089
aS'secondary aliphatic amine (dialkylamine)'
p4090
asg39
F-2.26
sg20
S' N-propylpropan-1-amine'
p4091
sg41
g42
ssS'mobley_8052240'
p4092
(dp4093
g3
S'c1ccc2c(c1)C(=O)c3cccc(c3C2=O)N'
p4094
sg273
g274
sg275
F0.022
sg8
(lp4095
g31
asg277
S'1-amino-9,10-anthracenedione'
p4096
sg13
I6710
sg279
g280
(g284
S'\xaeG\xe1z\x14\xae\xe7?'
p4097
tp4098
Rp4099
sg290
g280
(g284
S'\xe1z\x14\xaeG\xe1"\xc0'
p4100
tp4101
Rp4102
sg16
(lp4103
S'ketone'
p4104
aS'primary amine'
p4105
aS'primary aromatic amine'
p4106
aS'aromatic'
p4107
asg298
F-11.59
sg20
S' 1-aminoanthraquinone'
p4108
sg300
g301
ssS'mobley_590519'
p4109
(dp4110
g3
S'CCSSCC'
p4111
sg27
g28
sg29
F0.02
sg8
(lp4112
g31
asg32
S'ethyldisulfanylethane'
p4113
sg13
I8077
sg14
F0.6
sg34
F-1.64
sg16
(lp4114
S'disulfide'
p4115
asg39
F-0.07
sg20
S' ethyldisulfanylethane'
p4116
sg41
g42
ssS'mobley_6309289'
p4117
(dp4118
g3
S'C1CCNCC1'
p4119
sg27
g28
sg29
F0.02
sg8
(lp4120
g31
asg32
S'piperidine'
p4121
sg13
I8082
sg14
F0.6
sg34
F-5.11
sg16
(lp4122
S'secondary amine'
p4123
aS'secondary aliphatic amine (dialkylamine)'
p4124
aS'heterocyclic'
p4125
asg39
F-3.46
sg20
S' piperidine'
p4126
sg41
g42
ssS'mobley_4059279'
p4127
(dp4128
g3
S'CN1CCN(CC1)C'
p4129
sg27
g1301
sg29
F0.03
sg8
(lp4130
g31
asg32
S'1,4-dimethylpiperazine'
p4131
sg13
I7818
sg14
F0.6
sg34
F-7.58
sg16
(lp4132
S'tertiary amine'
p4133
aS'tertiary aliphatic amine (trialkylamine)'
p4134
aS'heterocyclic'
p4135
asg39
F-7.4
sg20
S' 1,4-dimethylpiperazine'
p4136
sg41
g42
ssS'mobley_9733743'
p4137
(dp4138
g3
S'CCCCN'
p4139
sg27
g28
sg29
F0.02
sg8
(lp4140
g31
asg32
S'butan-1-amine'
p4141
sg13
I8007
sg14
F0.6
sg34
F-4.24
sg16
(lp4142
S'primary amine'
p4143
aS'primary aliphatic amine (alkylamine)'
p4144
asg39
F-2.82
sg20
S' butan-1-amine'
p4145
sg41
g42
ssS'mobley_252413'
p4146
(dp4147
g3
S'CCCC(C)(C)C'
p4148
sg27
g28
sg29
F0.02
sg8
(lp4149
g31
asg32
S'2,2-dimethylpentane'
p4150
sg13
I11542
sg14
F0.6
sg34
F2.88
sg16
(lp4151
g68
asg39
F2.9
sg20
S' 2,2-dimethylpentane'
p4152
sg41
g42
ssS'mobley_1144156'
p4153
(dp4154
g3
S'CCOCC'
p4155
sg27
g28
sg29
F0.02
sg8
(lp4156
g31
asg32
S'ethoxyethane'
p4157
sg13
I3283
sg14
F0.6
sg34
F-1.59
sg16
(lp4158
S'dialkyl ether'
p4159
asg39
F-0.7
sg20
S' ethoxyethane'
p4160
sg41
g42
ssS'mobley_2972906'
p4161
(dp4162
g3
S'c1ccsc1'
p4163
sg5
g6
sg7
F0.1
sg8
(lp4164
g10
asg11
S'thiophene'
p4165
sg13
I8030
sg14
F0.2
sg15
F-1.4
sg16
(lp4166
S'aromatic'
p4167
aS'heterocyclic'
p4168
asg19
F-0.6
sg20
S' thiophene'
p4169
sg22
g23
ssS'mobley_3266352'
p4170
(dp4171
g3
S'CN(CC(F)(F)F)c1ccccc1'
p4172
sg27
S'10.1139/v93-262'
p4173
sg29
F0.03
sg8
(lp4174
g31
asg32
S'N-methyl-N-(2,2,2-trifluoroethyl)aniline'
p4175
sg13
I13238893
sg14
F0.6
sg34
F-1.92
sg16
(lp4176
S'tertiary amine'
p4177
aS'tertiary aliphatic/aromatic amine (alkylarylamine)'
p4178
aS'halogen derivative'
p4179
aS'aromatic'
p4180
asg39
F-3.69
sg20
S' N-methyl-N-(2,2,2-trifluoroethyl)aniline'
p4181
sg41
g42
ssS'mobley_1231151'
p4182
(dp4183
g3
S'CC(C)Cl'
p4184
sg27
g28
sg29
F0.02
sg8
(lp4185
g31
asg32
S'2-chloropropane'
p4186
sg13
I6361
sg14
F0.6
sg34
F-0.25
sg16
(lp4187
S'alkyl chloride'
p4188
asg39
F0.82
sg20
S' 2-chloropropane'
p4189
sg41
g42
ssS'mobley_4035953'
p4190
(dp4191
g3
S'Cc1ccccc1O'
p4192
sg5
g6
sg7
F0.1
sg8
(lp4193
g10
asg11
S'o-cresol'
p4194
sg13
I335
sg14
F0.2
sg15
F-5.9
sg16
(lp4195
S'phenol or hydroxyhetarene'
p4196
aS'aromatic'
p4197
asg19
F-5.0
sg20
S' o-cresol'
p4198
sg22
g23
ssS'mobley_299266'
p4199
(dp4200
g3
S'CC(=C)C'
p4201
sg27
g28
sg29
F0.02
sg8
(lp4202
g31
asg32
S'2-methylprop-1-ene'
p4203
sg13
I8255
sg14
F0.6
sg34
F1.16
sg16
(lp4204
S'alkene'
p4205
asg39
F2.34
sg20
S' 2-methylprop-1-ene'
p4206
sg41
g42
ssS'mobley_7774695'
p4207
(dp4208
g3
S'CNc1ccccc1'
p4209
sg27
g28
sg29
F0.03
sg8
(lp4210
g31
asg32
S'N-methylaniline'
p4211
sg13
I7515
sg14
F0.6
sg34
F-4.69
sg16
(lp4212
S'secondary amine'
p4213
aS'secondary aliphatic/aromatic amine (alkylarylamine)'
p4214
aS'aromatic'
p4215
asg39
F-5.74
sg20
S' N-methylaniline'
p4216
sg41
g42
ssS'mobley_7066554'
p4217
(dp4218
g3
S'c1cc(ccc1O)Cl'
p4219
sg27
g28
sg29
F0.02
sg8
(lp4220
g31
asg32
S'4-chlorophenol'
p4221
sg13
I4684
sg14
F0.6
sg34
F-7.03
sg16
(lp4222
S'phenol or hydroxyhetarene'
p4223
aS'aryl chloride'
p4224
aS'aromatic'
p4225
asg39
F-5.36
sg20
S' 4-chlorophenol'
p4226
sg41
g42
ssS'mobley_1967551'
p4227
(dp4228
g3
S'CC=O'
p4229
sg27
g28
sg29
F0.02
sg8
(lp4230
g31
asg32
S'acetaldehyde'
p4231
sg13
I177
sg14
F0.6
sg34
F-3.5
sg16
(lp4232
S'aldehyde'
p4233
asg39
F-3.39
sg20
S' acetaldehyde'
p4234
sg41
g42
ssS'mobley_7326982'
p4235
(dp4236
g3
S'CC(C)O'
p4237
sg27
g28
sg29
F0.02
sg8
(lp4238
g31
asg32
S'propan-2-ol'
p4239
sg13
I3776
sg14
F0.6
sg34
F-4.74
sg16
(lp4240
S'secondary alcohol'
p4241
asg39
F-3.28
sg20
S' propan-2-ol'
p4242
sg41
g42
ssS'mobley_7009711'
p4243
(dp4244
g3
S'Cc1cc(cc(c1)O)C'
p4245
sg27
g28
sg29
F0.03
sg8
(lp4246
g31
asg32
S'3,5-dimethylphenol'
p4247
sg13
I7948
sg14
F0.6
sg34
F-6.27
sg16
(lp4248
S'phenol or hydroxyhetarene'
p4249
aS'aromatic'
p4250
asg39
F-5.12
sg20
S' 3,5-dimethylphenol'
p4251
sg41
g42
ssS'mobley_9705941'
p4252
(dp4253
g3
S'Cc1cccs1'
p4254
sg27
g28
sg29
F0.02
sg8
(lp4255
g31
asg32
S'2-methylthiophene'
p4256
sg13
I11126
sg14
F0.6
sg34
F-1.38
sg16
(lp4257
S'aromatic'
p4258
aS'heterocyclic'
p4259
asg39
F-0.22
sg20
S' 2-methylthiophene'
p4260
sg41
g42
ssS'mobley_4149784'
p4261
(dp4262
g3
S'c1cc2c(cc1Cl)Oc3ccc(cc3O2)Cl'
p4263
sg212
g213
sg214
F0.02
sg8
(lp4264
g31
asg216
S'2,7-dichlorodibenzo-p-dioxin'
p4265
sg13
I36613
sg218
F0.12
sg219
F-3.67
sg16
(lp4266
S'diaryl ether'
p4267
aS'aryl chloride'
p4268
aS'aromatic'
p4269
aS'heterocyclic'
p4270
asg222
F-3.39
sg20
S' 2,7-dichlorodibenzo-p-dioxin'
p4271
sg224
g225
ssS'mobley_2213823'
p4272
(dp4273
g3
S'CCC(C)CC'
p4274
sg27
g28
sg29
F0.02
sg8
(lp4275
g31
asg32
S'3-methylpentane'
p4276
sg13
I7282
sg14
F0.6
sg34
F2.51
sg16
(lp4277
g68
asg39
F2.72
sg20
S' 3-methylpentane'
p4278
sg41
g42
ssS'mobley_7754849'
p4279
(dp4280
g3
S'CCOP(=S)(OCC)SCSP(=S)(OCC)OCC'
p4281
sg177
g178
sg179
F0.05
sg8
(lp4282
g31
asg181
S'ethion'
p4283
sg13
I3286
sg183
F1.37
sg184
F-6.1
sg16
(lp4284
S'thiophosphoric acid ester'
p4285
asg187
F-9.71
sg20
S' ethion'
p4286
sg189
g190
ssS'mobley_8885088'
p4287
(dp4288
g3
S'C1CC=CC1'
p4289
sg27
g28
sg29
F0.02
sg8
(lp4290
g31
asg32
S'cyclopentene'
p4291
sg13
I8882
sg14
F0.6
sg34
F0.56
sg16
(lp4292
S'alkene'
p4293
asg39
F1.38
sg20
S' cyclopentene'
p4294
sg41
g42
ssS'mobley_3359593'
p4295
(dp4296
g3
S'CCCc1ccc(c(c1)OC)O'
p4297
sg273
g274
sg275
F0.024
sg8
(lp4298
g31
asg277
S'4-propylguaiacol'
p4299
sg13
I17739
sg279
F0.18
sg290
F-5.26
sg16
(lp4300
S'phenol or hydroxyhetarene'
p4301
aS'alkyl aryl ether'
p4302
aS'aromatic'
p4303
asg298
F-4.1
sg20
S' 4-propylguaiacol'
p4304
sg300
g301
ssS'mobley_7417968'
p4305
(dp4306
g3
S'CCOCCOC(=O)C'
p4307
sg273
g274
sg275
F0.021
sg8
(lp4308
g31
asg277
S'2-ethoxyethyl acetate'
p4309
sg13
I8095
sg279
g280
(g284
S'\x9a\x99\x99\x99\x99\x99\xb9?'
p4310
tp4311
Rp4312
sg290
g280
(g284
S'=\n\xd7\xa3p=\x15\xc0'
p4313
tp4314
Rp4315
sg16
(lp4316
S'dialkyl ether'
p4317
aS'carboxylic acid ester'
p4318
asg298
F-6.04
sg20
S' 2-ethoxyethyl acetate'
p4319
sg300
g301
ssS'mobley_9653690'
p4320
(dp4321
g3
S'CC1=CC[C@H](C[C@@H]1O)C(=C)C'
p4322
sg273
g274
sg275
F0.021
sg8
(lp4323
g31
asg277
S'(1S,5R)-2-methyl-5-(1-methylethenyl)-2-cyclohexen-1-ol'
p4324
sg13
I94221
sg279
F0.43
sg290
F-4.44
sg16
(lp4325
S'secondary alcohol'
p4326
aS'alkene'
p4327
asg298
F-3.38
sg20
S' trans-carveol'
p4328
sg300
g301
ssS'mobley_4699732'
p4329
(dp4330
g3
S'C[C@@H](CCl)Cl'
p4331
sg27
g28
sg29
F0.02
sg8
(lp4332
S'Renamed mobley_4699732 from 1,2-dichloropropane to (2S)-1,2-dichloropropane (the name from the 3D structure) since the former did not completely specify stereochemistry.\n'
p4333
asg32
S'1,2-dichloropropane'
p4334
sg13
I6564
sg14
F0.6
sg34
F-1.27
sg16
(lp4335
S'alkyl chloride'
p4336
asg39
F-0.2
sg20
S' 1,2-dichloropropane'
p4337
sg41
g42
ssS'mobley_4305650'
p4338
(dp4339
g3
S'CCC#N'
p4340
sg27
g28
sg29
F0.02
sg8
(lp4341
g31
asg32
S'propanenitrile'
p4342
sg13
I7854
sg14
F0.6
sg34
F-3.84
sg16
(lp4343
S'carbonitrile'
p4344
asg39
F-1.27
sg20
S' propanenitrile'
p4345
sg41
g42
ssS'mobley_628951'
p4346
(dp4347
g3
S'c1cc(c(c(c1)Cl)c2c(cccc2Cl)Cl)Cl'
p4348
sg212
g213
sg214
F0.04
sg8
(lp4349
g31
asg216
S'1,3-dichloro-2-(2,6-dichlorophenyl)benzene'
p4350
sg13
I27588
sg218
F0.12
sg219
F-2.28
sg16
(lp4351
S'aryl chloride'
p4352
aS'aromatic'
p4353
asg222
F-1.22
sg20
S" 2,2',6,6'-tetrachlorobiphenyl"
p4354
sg224
g225
ssS'mobley_4883284'
p4355
(dp4356
g3
S'c1ccc(cc1)N'
p4357
sg27
g28
sg29
F0.02
sg8
(lp4358
g31
asg32
S'aniline'
p4359
sg13
I6115
sg14
F0.6
sg34
F-5.49
sg16
(lp4360
S'primary amine'
p4361
aS'primary aromatic amine'
p4362
aS'aromatic'
p4363
asg39
F-5.92
sg20
S' aniline'
p4364
sg41
g42
ssS'mobley_3210206'
p4365
(dp4366
g3
S'C[C@@H](CO[N+](=O)[O-])O[N+](=O)[O-]'
p4367
sg177
g178
sg179
F0.03
sg8
(lp4368
g31
asg181
S'1,2-dinitroxypropane'
p4369
sg13
I21075956
sg183
F0.1
sg184
F-4.95
sg16
(lp4370
S'nitrate'
p4371
asg187
F-5.62
sg20
S' 1,2-dinitroxypropane'
p4372
sg189
g190
ssS'mobley_2802855'
p4373
(dp4374
g3
S'CCCCBr'
p4375
sg27
g28
sg29
F0.02
sg8
(lp4376
g31
asg32
S'1-bromobutane'
p4377
sg13
I8002
sg14
F0.6
sg34
F-0.4
sg16
(lp4378
S'alkyl bromide'
p4379
asg39
F1.68
sg20
S' 1-bromobutane'
p4380
sg41
g42
ssS'mobley_1803862'
p4381
(dp4382
g3
S'CCC(C)C'
p4383
sg27
g28
sg29
F0.02
sg8
(lp4384
g31
asg32
S'isopentane'
p4385
sg13
I6556
sg14
F0.6
sg34
F2.38
sg16
(lp4386
g68
asg39
F2.52
sg20
S' isopentane'
p4387
sg41
g42
ssS'mobley_1858644'
p4388
(dp4389
g3
S'c1ccc(cc1)CCO'
p4390
sg27
g28
sg29
F0.03
sg8
(lp4391
g31
asg32
S'2-phenylethanol'
p4392
sg13
I6054
sg14
F0.6
sg34
F-6.79
sg16
(lp4393
S'primary alcohol'
p4394
aS'aromatic'
p4395
asg39
F-5.33
sg20
S' 2-phenylethanol'
p4396
sg41
g42
ssS'mobley_8467917'
p4397
(dp4398
g3
S'CCCC/C=C/C'
p4399
sg27
g28
sg29
F0.02
sg8
(lp4400
S'Renamed mobley_8467917 from hept-2-ene to (E)-hept-2-ene (the name from the 3D structure) since the former did not completely specify stereochemistry.\n'
p4401
asg32
S'hept-2-ene'
p4402
sg13
I11611
sg14
F0.6
sg34
F1.68
sg16
(lp4403
S'alkene'
p4404
asg39
F2.83
sg20
S' hept-2-ene'
p4405
sg41
g42
ssS'mobley_7017274'
p4406
(dp4407
g3
S'c1ccc2c(c1)ccc3c2cccc3'
p4408
sg27
g28
sg29
F0.03
sg8
(lp4409
g31
asg32
S'phenanthrene'
p4410
sg13
I995
sg14
F0.6
sg34
F-3.88
sg16
(lp4411
S'aromatic'
p4412
asg39
F-5.15
sg20
S' phenanthrene'
p4413
sg41
g42
ssS'mobley_8746821'
p4414
(dp4415
g3
S'Cc1cccnc1C'
p4416
sg27
g28
sg29
F0.02
sg8
(lp4417
g31
asg32
S'2,3-dimethylpyridine'
p4418
sg13
I11420
sg14
F0.6
sg34
F-4.82
sg16
(lp4419
S'aromatic'
p4420
aS'heterocyclic'
p4421
asg39
F-3.27
sg20
S' 2,3-dimethylpyridine'
p4422
sg41
g42
ssS'mobley_4177472'
p4423
(dp4424
g3
S'CC(C)C(C)C(C)C'
p4425
sg27
g28
sg29
F0.03
sg8
(lp4426
g31
asg32
S'2,3,4-trimethylpentane'
p4427
sg13
I11269
sg14
F0.6
sg34
F2.56
sg16
(lp4428
g68
asg39
F2.86
sg20
S' 2,3,4-trimethylpentane'
p4429
sg41
g42
ssS'mobley_8522124'
p4430
(dp4431
g3
S'CCCCCCC#C'
p4432
sg27
g28
sg29
F0.03
sg8
(lp4433
g31
asg32
S'oct-1-yne'
p4434
sg13
I12370
sg14
F0.6
sg34
F0.71
sg16
(lp4435
S'alkyne'
p4436
asg39
F1.12
sg20
S' oct-1-yne'
p4437
sg41
g42
ssS'mobley_1723043'
p4438
(dp4439
g3
S'C1(C(C(C1(F)F)(F)F)(F)F)(F)F'
p4440
sg443
g444
sg445
F0.04
sg8
(lp4441
g31
asg447
S'octafluorocyclobutane'
p4442
sg13
I8263
sg449
F0.03
sg450
F3.43
sg16
(lp4443
S'alkyl fluoride'
p4444
asg456
F3.01
sg20
S' octafluorocyclobutane'
p4445
sg458
g459
ssS'mobley_2245668'
p4446
(dp4447
g3
S'CC(C)CO'
p4448
sg27
g28
sg29
F0.02
sg8
(lp4449
g31
asg32
S'2-methylpropan-1-ol'
p4450
sg13
I6560
sg14
F0.6
sg34
F-4.5
sg16
(lp4451
S'primary alcohol'
p4452
asg39
F-2.96
sg20
S' 2-methylpropan-1-ol'
p4453
sg41
g42
ssS'mobley_1592519'
p4454
(dp4455
g3
S'CCCCCC(=O)OCC'
p4456
sg27
g28
sg29
F0.04
sg8
(lp4457
g31
asg32
S'ethyl hexanoate'
p4458
sg13
I31265
sg14
F0.6
sg34
F-2.23
sg16
(lp4459
S'carboxylic acid ester'
p4460
asg39
F-2.8
sg20
S' ethyl hexanoate'
p4461
sg41
g42
ssS'mobley_129464'
p4462
(dp4463
g3
S'CCCCOCCCC'
p4464
sg27
g28
sg29
F0.03
sg8
(lp4465
g31
asg32
S'1-butoxybutane'
p4466
sg13
I8909
sg14
F0.6
sg34
F-0.83
sg16
(lp4467
S'dialkyl ether'
p4468
asg39
F0.59
sg20
S' 1-butoxybutane'
p4469
sg41
g42
ssS'mobley_9434451'
p4470
(dp4471
g3
S'CC(C)Br'
p4472
sg27
g28
sg29
F0.02
sg8
(lp4473
g31
asg32
S'2-bromopropane'
p4474
sg13
I6358
sg14
F0.6
sg34
F-0.48
sg16
(lp4475
S'alkyl bromide'
p4476
asg39
F0.97
sg20
S' 2-bromopropane'
p4477
sg41
g42
ssS'mobley_7261305'
p4478
(dp4479
g3
S'NN'
p4480
sg27
g28
sg29
F0.02
sg8
(lp4481
g31
asg32
S'hydrazine'
p4482
sg13
I9321
sg14
F0.6
sg34
F-9.3
sg16
(lp4483
S'hydrazine derivative'
p4484
asg39
F-7.1
sg20
S' hydrazine'
p4485
sg41
g42
ssS'mobley_8191186'
p4486
(dp4487
g3
S'C(C(F)(F)F)Cl'
p4488
sg27
g28
sg29
F0.02
sg8
(lp4489
g31
asg32
S'2-chloro-1,1,1-trifluoro-ethane'
p4490
sg13
I6408
sg14
F0.6
sg34
F0.06
sg16
(lp4491
S'alkyl chloride'
p4492
asg39
F0.16
sg20
S' 2-chloro-1,1,1-trifluoro-ethane'
p4493
sg41
g42
ssS'mobley_3040612'
p4494
(dp4495
g3
S'CCc1ccccc1C'
p4496
sg273
g274
sg275
F0.021
sg8
(lp4497
g31
asg277
S'1-ethyl-2-methylbenzene'
p4498
sg13
I11903
sg279
g280
(g284
S'\x9a\x99\x99\x99\x99\x99\xb9?'
p4499
tp4500
Rp4501
sg290
g280
(g284
S'333333\xeb\xbf'
p4502
tp4503
Rp4504
sg16
(lp4505
S'aromatic'
p4506
asg298
F-0.766
sg20
S' 1-ethyl-2-methylbenzene'
p4507
sg300
g301
ssS'mobley_667278'
p4508
(dp4509
g3
S'c1cc(c(c(c1c2cc(c(c(c2Cl)Cl)Cl)Cl)Cl)Cl)Cl'
p4510
sg212
g213
sg214
F0.08
sg8
(lp4511
g31
asg216
S'1,2,3,4-tetrachloro-5-(2,3,4-trichlorophenyl)benzene'
p4512
sg13
I37037
sg218
F0.1
sg219
F-4.4
sg16
(lp4513
S'aryl chloride'
p4514
aS'aromatic'
p4515
asg222
F-2.21
sg20
S" 2,2',3,3',4,4',5-heptachlorobiphenyl"
p4516
sg224
g225
ssS'mobley_6911232'
p4517
(dp4518
g3
S'CCOC'
p4519
sg27
g28
sg29
F0.02
sg8
(lp4520
g31
asg32
S'methoxyethane'
p4521
sg13
I10903
sg14
F0.6
sg34
F-2.1
sg16
(lp4522
S'dialkyl ether'
p4523
asg39
F-0.82
sg20
S' methoxyethane'
p4524
sg41
g42
ssS'mobley_8057732'
p4525
(dp4526
g3
S'c1cc(cc(c1)Cl)O'
p4527
sg27
g28
sg29
F0.03
sg8
(lp4528
g31
asg32
S'3-chlorophenol'
p4529
sg13
I7933
sg14
F0.6
sg34
F-6.62
sg16
(lp4530
S'phenol or hydroxyhetarene'
p4531
aS'aryl chloride'
p4532
aS'aromatic'
p4533
asg39
F-5.28
sg20
S' 3-chlorophenol'
p4534
sg41
g42
ssS'mobley_5310099'
p4535
(dp4536
g3
S'CCCCC=C'
p4537
sg27
g28
sg29
F0.02
sg8
(lp4538
g31
asg32
S'hex-1-ene'
p4539
sg13
I11597
sg14
F0.6
sg34
F1.58
sg16
(lp4540
S'alkene'
p4541
asg39
F2.59
sg20
S' hex-1-ene'
p4542
sg41
g42
ssS'mobley_6198745'
p4543
(dp4544
g3
S'CC(=O)OCC(COC(=O)C)OC(=O)C'
p4545
sg1348
g1349
sg1350
F0.1
sg1351
(lp4546
g1353
ag31
aS'Changed IUPAC name from glycerol triacetate to 2,3-diacetoxypropyl acetate for better handling/standardization.'
p4547
ag1354
asg1355
S'2,3-diacetoxypropyl acetate'
p4548
sg13
I5541
sg14
F0.2
sg1357
F-8.84
sg16
(lp4549
S'carboxylic acid ester'
p4550
asg1360
F-12.16
sg20
S' 2,3-diacetoxypropyl acetate'
p4551
sg1362
g1349
ssS'mobley_3201701'
p4552
(dp4553
g3
S'Cc1c(nc(nc1OC(=O)N(C)C)N(C)C)C'
p4554
sg177
g178
sg179
F0.04
sg8
(lp4555
g31
aS'Changed IUPAC name from pirimor to 2-(dimethylamino)-5,6-dimethylpyrimidin-4-yl N,N-dimethylcarbamate for better handling/standardization.'
p4556
asg181
S'pirimor'
p4557
sg13
I31645
sg183
F1.93
sg184
F-9.41
sg16
(lp4558
S'tertiary amine'
p4559
aS'tertiary aliphatic/aromatic amine (alkylarylamine)'
p4560
aS'carbamic acid ester (urethane)'
p4561
aS'aromatic'
p4562
aS'heterocyclic'
p4563
asg187
F-13.68
sg20
S' pirimor'
p4564
sg189
g190
ssS'mobley_4690963'
p4565
(dp4566
g3
S'CCOCCOCC'
p4567
sg27
g28
sg29
F0.03
sg8
(lp4568
g31
asg32
S'1,2-diethoxyethane'
p4569
sg13
I12375
sg14
F0.6
sg34
F-3.54
sg16
(lp4570
S'dialkyl ether'
p4571
asg39
F-3.08
sg20
S' 1,2-diethoxyethane'
p4572
sg41
g42
ssS'mobley_1899443'
p4573
(dp4574
g3
S'CCCC(=C)C'
p4575
sg27
g28
sg29
F0.02
sg8
(lp4576
g31
asg32
S'2-methylpent-1-ene'
p4577
sg13
I12986
sg14
F0.6
sg34
F1.47
sg16
(lp4578
S'alkene'
p4579
asg39
F2.75
sg20
S' 2-methylpent-1-ene'
p4580
sg41
g42
ssS'mobley_3187514'
p4581
(dp4582
g3
S'Cc1ccccc1N'
p4583
sg27
g28
sg29
F0.03
sg8
(lp4584
g31
asg32
S'2-methylaniline'
p4585
sg13
I7242
sg14
F0.6
sg34
F-5.53
sg16
(lp4586
S'primary amine'
p4587
aS'primary aromatic amine'
p4588
aS'aromatic'
p4589
asg39
F-5.37
sg20
S' 2-methylaniline'
p4590
sg41
g42
ssS'mobley_4964807'
p4591
(dp4592
g3
S'CC(=O)CO[N+](=O)[O-]'
p4593
sg177
g178
sg179
F0.02
sg8
(lp4594
g31
asg181
S'nitroxyacetone'
p4595
sg13
I81226
sg183
F0.1
sg184
F-5.99
sg16
(lp4596
S'ketone'
p4597
aS'nitrate'
p4598
asg187
F-5.18
sg20
S' nitroxyacetone'
p4599
sg189
g190
ssS'mobley_4338603'
p4600
(dp4601
g3
S'c1c(=O)[nH]c(=O)[nH]c1Cl'
p4602
sg443
g444
sg445
F0.06
sg8
(lp4603
g31
asg447
S'6-chlorouracil'
p4604
sg13
I73272
sg449
F1.22
sg450
F-15.83
sg16
(lp4605
S'aryl chloride'
p4606
aS'oxo(het)arene'
p4607
aS'aromatic'
p4608
aS'heterocyclic'
p4609
asg456
F-15.11
sg20
S' 6-chlorouracil'
p4610
sg458
g459
ssS'mobley_210639'
p4611
(dp4612
g3
S'CC(C)I'
p4613
sg27
g28
sg29
F0.02
sg8
(lp4614
g31
asg32
S'2-iodopropane'
p4615
sg13
I6362
sg14
F0.6
sg34
F-0.46
sg16
(lp4616
S'alkyl iodide'
p4617
asg39
F0.29
sg20
S' 2-iodopropane'
p4618
sg41
g42
ssS'mobley_1075836'
p4619
(dp4620
g3
S'CCC(=O)OC'
p4621
sg27
g28
sg29
F0.02
sg8
(lp4622
g31
asg32
S'methyl propanoate'
p4623
sg13
I11124
sg14
F0.6
sg34
F-2.93
sg16
(lp4624
S'carboxylic acid ester'
p4625
asg39
F-3.83
sg20
S' methyl propanoate'
p4626
sg41
g42
ssS'mobley_6091882'
p4627
(dp4628
g3
S'C=C'
p4629
sg27
g28
sg29
F0.01
sg8
(lp4630
g31
asg32
S'ethylene'
p4631
sg13
I6325
sg14
F0.6
sg34
F1.28
sg16
(lp4632
S'alkene'
p4633
asg39
F2.36
sg20
S' ethylene'
p4634
sg41
g42
ssS'mobley_8514745'
p4635
(dp4636
g3
S'CCCCCOC(=O)C'
p4637
sg27
g28
sg29
F0.03
sg8
(lp4638
g31
asg32
S'pentyl acetate'
p4639
sg13
I12348
sg14
F0.6
sg34
F-2.51
sg16
(lp4640
S'carboxylic acid ester'
p4641
asg39
F-2.83
sg20
S' pentyl acetate'
p4642
sg41
g42
ssS'mobley_8668219'
p4643
(dp4644
g3
S'CC[C@@H](C)C(C)C'
p4645
sg27
g28
sg29
F0.03
sg8
(lp4646
S'Renamed mobley_8668219 from 2,3-dimethylpentane to (3R)-2,3-dimethylpentane (the name from the 3D structure) since the former did not completely specify stereochemistry.\n'
p4647
asg32
S'2,3-dimethylpentane'
p4648
sg13
I11260
sg14
F0.6
sg34
F2.52
sg16
(lp4649
g68
asg39
F2.66
sg20
S' 2,3-dimethylpentane'
p4650
sg41
g42
ssS'mobley_9729792'
p4651
(dp4652
g3
S'C1C=CC=CC=C1'
p4653
sg27
g28
sg29
F0.02
sg8
(lp4654
g31
asg32
S'cyclohepta-1,3,5-triene'
p4655
sg13
I11000
sg14
F0.6
sg34
F-0.99
sg16
(lp4656
S'alkene'
p4657
asg39
F0.15
sg20
S' cyclohepta-1,3,5-triene'
p4658
sg41
g42
ssS'mobley_2784376'
p4659
(dp4660
g3
S'C1CC1'
p4661
sg27
g28
sg29
F0.02
sg8
(lp4662
g31
asg32
S'cyclopropane'
p4663
sg13
I6351
sg14
F0.6
sg34
F0.75
sg16
(lp4664
g68
asg39
F2.64
sg20
S' cyclopropane'
p4665
sg41
g42
ssS'mobley_8739734'
p4666
(dp4667
g3
S'CC(C)C(=O)C'
p4668
sg27
g28
sg29
F0.02
sg8
(lp4669
g31
asg32
S'3-methylbutan-2-one'
p4670
sg13
I11251
sg14
F0.6
sg34
F-3.24
sg16
(lp4671
S'ketone'
p4672
asg39
F-2.93
sg20
S' 3-methylbutan-2-one'
p4673
sg41
g42
ssS'mobley_6338073'
p4674
(dp4675
g3
S'CCNc1nc(nc(n1)SC)NC(C)(C)C'
p4676
sg177
g178
sg179
F0.05
sg8
(lp4677
g31
aS'Changed IUPAC name from terbutryn to 2-N-tert-butyl-4-N-ethyl-6-(methylsulfanyl)-1,3,5-triazine-2,4-diamine for better handling/standardization.'
p4678
asg181
S'terbutryn'
p4679
sg13
I13450
sg183
F0.42
sg184
F-6.68
sg16
(lp4680
S'thioether'
p4681
aS'secondary amine'
p4682
aS'secondary aliphatic/aromatic amine (alkylarylamine)'
p4683
aS'aromatic'
p4684
aS'heterocyclic'
p4685
asg187
F-7.9
sg20
S' terbutryn'
p4686
sg189
g190
ssS'mobley_4884177'
p4687
(dp4688
g3
S'CCc1cccnc1'
p4689
sg27
g28
sg29
F0.02
sg8
(lp4690
g31
asg32
S'3-ethylpyridine'
p4691
sg13
I10823
sg14
F0.6
sg34
F-4.59
sg16
(lp4692
S'aromatic'
p4693
aS'heterocyclic'
p4694
asg39
F-2.96
sg20
S' 3-ethylpyridine'
p4695
sg41
g42
ssS'mobley_6081058'
p4696
(dp4697
g3
S'CCCCC/C=C/C=O'
p4698
sg27
g28
sg29
F0.03
sg8
(lp4699
S'Renamed mobley_6081058 from oct-2-enal to (E)-oct-2-enal (the name from the 3D structure) since the former did not completely specify stereochemistry.\n'
p4700
asg32
S'oct-2-enal'
p4701
sg13
I16900
sg14
F0.6
sg34
F-3.43
sg16
(lp4702
S'aldehyde'
p4703
aS'alkene'
p4704
asg39
F-2.47
sg20
S' oct-2-enal'
p4705
sg41
g42
ssS'mobley_9257453'
p4706
(dp4707
g3
S'c1cc(c(cc1O)Cl)Cl'
p4708
sg273
g274
sg275
F0.019
sg8
(lp4709
g31
asg277
S'3,4-dichlorophenol'
p4710
sg13
I7258
sg279
g280
(g284
S'\x9a\x99\x99\x99\x99\x99\xb9?'
p4711
tp4712
Rp4713
sg290
g280
(g284
S')\\\x8f\xc2\xf5(\x1d\xc0'
p4714
tp4715
Rp4716
sg16
(lp4717
S'phenol or hydroxyhetarene'
p4718
aS'aryl chloride'
p4719
aS'aromatic'
p4720
asg298
F-5.32
sg20
S' 3,4-dichlorophenol'
p4721
sg300
g301
ssS'mobley_36119'
p4722
(dp4723
g3
S'CCCCCCCCO'
p4724
sg27
g28
sg29
F0.03
sg8
(lp4725
g31
asg32
S'octan-1-ol'
p4726
sg13
I957
sg14
F0.6
sg34
F-4.09
sg16
(lp4727
S'primary alcohol'
p4728
asg39
F-2.65
sg20
S' octan-1-ol'
p4729
sg41
g42
ssS'mobley_5079234'
p4730
(dp4731
g3
S'CCCCCCCO'
p4732
sg27
g28
sg29
F0.02
sg8
(lp4733
g31
asg32
S'heptan-1-ol'
p4734
sg13
I8129
sg14
F0.6
sg34
F-4.21
sg16
(lp4735
S'primary alcohol'
p4736
asg39
F-2.72
sg20
S' heptan-1-ol'
p4737
sg41
g42
ssS'mobley_2487143'
p4738
(dp4739
g3
S'CCCCC(=O)C'
p4740
sg27
g28
sg29
F0.02
sg8
(lp4741
g31
asg32
S'hexan-2-one'
p4742
sg13
I11583
sg14
F0.6
sg34
F-3.28
sg16
(lp4743
S'ketone'
p4744
asg39
F-2.77
sg20
S' hexan-2-one'
p4745
sg41
g42
ssS'mobley_430089'
p4746
(dp4747
g3
S'CCCC#C'
p4748
sg27
g28
sg29
F0.02
sg8
(lp4749
g31
asg32
S'pent-1-yne'
p4750
sg13
I12309
sg14
F0.6
sg34
F0.01
sg16
(lp4751
S'alkyne'
p4752
asg39
F0.45
sg20
S' pent-1-yne'
p4753
sg41
g42
ssS'mobley_7829570'
p4754
(dp4755
g3
S'CCCC[N@](CC)c1c(cc(cc1[N+](=O)[O-])C(F)(F)F)[N+](=O)[O-]'
p4756
sg177
g178
sg179
F0.04
sg8
(lp4757
g31
aS'Changed IUPAC name from benefin to N-butyl-N-ethyl-2,6-dinitro-4-(trifluoromethyl)aniline for better handling/standardization.'
p4758
asg181
S'N-butyl-N-ethyl-2,6-dinitro-4-(trifluoromethyl)aniline'
p4759
sg13
I2319
sg183
F1.93
sg184
F-3.51
sg16
(lp4760
S'tertiary amine'
p4761
aS'tertiary aliphatic/aromatic amine (alkylarylamine)'
p4762
aS'halogen derivative'
p4763
aS'nitro'
p4764
aS'aromatic'
p4765
asg187
F-2.68
sg20
S' benefin'
p4766
sg189
g190
ssS'mobley_5890803'
p4767
(dp4768
g3
S'CCCOC(=O)CC'
p4769
sg27
g28
sg29
F0.02
sg8
(lp4770
g31
asg32
S'propyl propanoate'
p4771
sg13
I7803
sg14
F0.6
sg34
F-2.44
sg16
(lp4772
S'carboxylic acid ester'
p4773
asg39
F-2.95
sg20
S' propyl propanoate'
p4774
sg41
g42
ssS'mobley_3269565'
p4775
(dp4776
g3
S'CC(C)OC'
p4777
sg27
g28
sg29
F0.02
sg8
(lp4778
g31
asg32
S'2-methoxypropane'
p4779
sg13
I11721
sg14
F0.6
sg34
F-2.01
sg16
(lp4780
S'dialkyl ether'
p4781
asg39
F-0.75
sg20
S' 2-methoxypropane'
p4782
sg41
g42
ssS'mobley_1722522'
p4783
(dp4784
g3
S'CCCC(=O)OCC'
p4785
sg27
g28
sg29
F0.02
sg8
(lp4786
g31
asg32
S'ethyl butanoate'
p4787
sg13
I7762
sg14
F0.6
sg34
F-2.49
sg16
(lp4788
S'carboxylic acid ester'
p4789
asg39
F-3.04
sg20
S' ethyl butanoate'
p4790
sg41
g42
ssS'mobley_766666'
p4791
(dp4792
g3
S'C(=C(Cl)Cl)Cl'
p4793
sg27
g28
sg29
F0.02
sg8
(lp4794
g31
asg32
S'1,1,2-trichloroethylene'
p4795
sg13
I6575
sg14
F0.6
sg34
F-0.44
sg16
(lp4796
S'halogen derivative'
p4797
asg39
F0.99
sg20
S' 1,1,2-trichloroethylene'
p4798
sg41
g42
ssS'mobley_4188615'
p4799
(dp4800
g3
S'CN(C)C(=O)c1ccccc1'
p4801
sg27
g659
sg29
F0.04
sg8
(lp4802
g31
asg32
S'N,N-dimethylbenzamide'
p4803
sg13
I11916
sg14
F0.6
sg34
F-9.29
sg16
(lp4804
S'tertiary carboxylic acid amide'
p4805
aS'aromatic'
p4806
asg39
F-7.98
sg20
S' N,N-dimethylbenzamide'
p4807
sg41
g42
ssS'mobley_3999471'
p4808
(dp4809
g3
S'CC(Cl)Cl'
p4810
sg27
g28
sg29
F0.02
sg8
(lp4811
g31
asg32
S'1,1-dichloroethane'
p4812
sg13
I6365
sg14
F0.6
sg34
F-0.84
sg16
(lp4813
S'alkyl chloride'
p4814
asg39
F0.17
sg20
S' 1,1-dichloroethane'
p4815
sg41
g42
ssS'mobley_5747981'
p4816
(dp4817
g3
S'COCC(OC)(OC)OC'
p4818
sg27
g46
sg29
F0.04
sg8
(lp4819
g31
asg32
S'1,1,1,2-tetramethoxyethane'
p4820
sg13
I141897
sg14
F0.6
sg34
F-5.73
sg16
(lp4821
S'dialkyl ether'
p4822
aS'orthocarboxylic acid derivative'
p4823
aS'orthoester'
p4824
asg39
F-5.97
sg20
S' 1,1,1,2-tetramethoxyethane'
p4825
sg41
g42
ssS'mobley_9671033'
p4826
(dp4827
g3
S'CCC[N+](=O)[O-]'
p4828
sg27
g28
sg29
F0.02
sg8
(lp4829
g31
asg32
S'1-nitropropane'
p4830
sg13
I7903
sg14
F0.6
sg34
F-3.34
sg16
(lp4831
S'nitro'
p4832
asg39
F-1.38
sg20
S' 1-nitropropane'
p4833
sg41
g42
ssS'mobley_525934'
p4834
(dp4835
g3
S'CS'
p4836
sg5
g6
sg7
F0.1
sg8
(lp4837
g10
asg11
S'methanethiol'
p4838
sg13
I878
sg14
F0.2
sg15
F-1.2
sg16
(lp4839
S'thiol (sulfanyl)'
p4840
aS'alkylthiol'
p4841
asg19
F-0.2
sg20
S' methanethiol'
p4842
sg22
g23
ssS'mobley_8578590'
p4843
(dp4844
g3
S'CS(=O)C'
p4845
sg27
S'10.1080/09593338709384509 and 10.1038/313384a0'
p4846
sg29
F0.03
sg8
(lp4847
g31
aS'Updated 10/22/13 using the mean of experimental data from two sources from J. Peter Guthrie --  Watts & Brimblecombe (1987) and Taft & Abraham et al. (1985). Uncertainty taken as the standard deviation across the two datapoints..\n'
p4848
asg32
S'methylsulfinylmethane'
p4849
sg13
I679
sg14
g280
(g284
S'8\n\xd7\xa3p=\xe2?'
p4850
tp4851
Rp4852
sg34
g280
(g284
S'\x90\xc2\xf5(\\\x8f"\xc0'
p4853
tp4854
Rp4855
sg16
(lp4856
S'sulfoxide'
p4857
asg39
F-8.32
sg20
S' methylsulfinylmethane'
p4858
sg41
g42
ssS'mobley_1821184'
p4859
(dp4860
g3
S'Cc1c[nH]c2c1cccc2'
p4861
sg27
g2931
sg29
F0.03
sg8
(lp4862
g31
asg32
S'3-methyl-1H-indole'
p4863
sg13
I6736
sg14
F0.6
sg34
F-5.88
sg16
(lp4864
S'aromatic'
p4865
aS'heterocyclic'
p4866
asg39
F-6.55
sg20
S' 3-methyl-1H-indole'
p4867
sg41
g42
ssS'mobley_6571751'
p4868
(dp4869
g3
S'CC1=CCCCC1'
p4870
sg27
g28
sg29
F0.02
sg8
(lp4871
g31
asg32
S'1-methylcyclohexene'
p4872
sg13
I11574
sg14
F0.6
sg34
F0.67
sg16
(lp4873
S'alkene'
p4874
asg39
F1.33
sg20
S' 1-methylcyclohexene'
p4875
sg41
g42
ssS'mobley_4553008'
p4876
(dp4877
g3
S'c1cc(ccc1Cl)Cl'
p4878
sg27
g28
sg29
F0.02
sg8
(lp4879
g31
asg32
S'1,4-dichlorobenzene'
p4880
sg13
I4685
sg14
F0.6
sg34
F-1.01
sg16
(lp4881
S'aryl chloride'
p4882
aS'aromatic'
p4883
asg39
F-0.1
sg20
S' 1,4-dichlorobenzene'
p4884
sg41
g42
ssS'mobley_5690766'
p4885
(dp4886
g3
S'C=CCCC=C'
p4887
sg27
g28
sg29
F0.02
sg8
(lp4888
g31
asg32
S'hexa-1,5-diene'
p4889
sg13
I11598
sg14
F0.6
sg34
F1.01
sg16
(lp4890
S'alkene'
p4891
asg39
F2.44
sg20
S' hexa-1,5-diene'
p4892
sg41
g42
ssS'mobley_7532833'
p4893
(dp4894
g3
S'CC#N'
p4895
sg27
S'10.1021/jp0264477'
p4896
sg29
F0.01
sg8
(lp4897
g31
asg32
S'acetonitrile'
p4898
sg13
I6342
sg14
F0.6
sg34
F-3.88
sg16
(lp4899
S'carbonitrile'
p4900
asg39
F-2.51
sg20
S' acetonitrile'
p4901
sg41
g42
ssS'mobley_3398536'
p4902
(dp4903
g3
S'c1ccc(cc1)I'
p4904
sg27
g28
sg29
F0.02
sg8
(lp4905
g31
asg32
S'iodobenzene'
p4906
sg13
I11575
sg14
F0.6
sg34
F-1.74
sg16
(lp4907
S'aryl iodide'
p4908
aS'aromatic'
p4909
asg39
F-0.34
sg20
S' iodobenzene'
p4910
sg41
g42
ssS'mobley_3546460'
p4911
(dp4912
g3
S'CCCCCCO'
p4913
sg27
g28
sg29
F0.02
sg8
(lp4914
g31
asg32
S'hexan-1-ol'
p4915
sg13
I8103
sg14
F0.6
sg34
F-4.4
sg16
(lp4916
S'primary alcohol'
p4917
asg39
F-3.03
sg20
S' hexan-1-ol'
p4918
sg41
g42
ssS'mobley_4013838'
p4919
(dp4920
g3
S'CC(C)C(=O)C(C)C'
p4921
sg27
g28
sg29
F0.02
sg8
(lp4922
g31
asg32
S'2,4-dimethylpentan-3-one'
p4923
sg13
I11271
sg14
F0.6
sg34
F-2.74
sg16
(lp4924
S'ketone'
p4925
asg39
F-2.47
sg20
S' 2,4-dimethylpentan-3-one'
p4926
sg41
g42
ssS'mobley_2782339'
p4927
(dp4928
g3
S'c1ccc2c(c1)C(=O)NC2=O'
p4929
sg443
g444
sg445
F0.05
sg8
(lp4930
g31
asg447
S'phthalimide'
p4931
sg13
I6809
sg449
F0.5
sg450
F-9.61
sg16
(lp4932
S'carboxylic acid imide, N-unsubstituted'
p4933
aS'aromatic'
p4934
aS'heterocyclic'
p4935
asg456
F-11.74
sg20
S' phthalimide'
p4936
sg458
g459
ssS'mobley_6727159'
p4937
(dp4938
g3
S'C(CO[N+](=O)[O-])O'
p4939
sg177
g178
sg179
F0.03
sg8
(lp4940
g31
aS'Changed IUPAC name from ethyleneglycol mononitrate to 2-(nitrooxy)ethan-1-ol for better handling/standardization.'
p4941
asg181
S'2-(nitrooxy)ethan-1-ol'
p4942
sg13
I85254
sg183
F0.1
sg184
F-8.18
sg16
(lp4943
S'primary alcohol'
p4944
aS'nitrate'
p4945
asg187
F-6.5
sg20
S' 2-(nitrooxy)ethan-1-ol'
p4946
sg189
g190
ssS'mobley_4639255'
p4947
(dp4948
g3
S'C(CO)O'
p4949
sg27
g28
sg29
F0.03
sg8
(lp4950
g31
asg32
S'ethylene glycol'
p4951
sg13
I174
sg14
F0.6
sg34
F-9.3
sg16
(lp4952
S'primary alcohol'
p4953
aS'1,2-diol'
p4954
asg39
F-7.62
sg20
S' ethylene glycol'
p4955
sg41
g42
ssS'mobley_5006685'
p4956
(dp4957
g3
S'CC(=C)[C@H]1CCC(=CC1)C=O'
p4958
sg273
g274
sg275
F0.02
sg8
(lp4959
S'Renamed mobley_5006685 from 4-(1-Methylethenyl)-1-cyclohexene-1-carboxaldehyde to (4S)-4-isopropenylcyclohexene-1-carbaldehyde (the name from the 3D structure) since the former did not completely specify stereochemistry.\n'
p4960
asg277
S'4-(1-Methylethenyl)-1-cyclohexene-1-carboxaldehyde'
p4961
sg13
I16441
sg279
g280
(g284
S'\xc3\xf5(\\\x8f\xc2\xc5?'
p4962
tp4963
Rp4964
sg290
g280
(g284
S'\\\x8f\xc2\xf5(\\\x10\xc0'
p4965
tp4966
Rp4967
sg16
(lp4968
S'aldehyde'
p4969
aS'alkene'
p4970
asg298
F-3.61
sg20
S' perillaldehyde'
p4971
sg300
g301
ssS'mobley_9565165'
p4972
(dp4973
g3
S'c1ccc-2c(c1)Cc3c2cccc3'
p4974
sg27
g28
sg29
F0.02
sg8
(lp4975
g31
asg32
S'9H-fluorene'
p4976
sg13
I6853
sg14
F0.6
sg34
F-3.35
sg16
(lp4977
S'aromatic'
p4978
asg39
F-4.29
sg20
S' 9H-fluorene'
p4979
sg41
g42
ssS'mobley_2609604'
p4980
(dp4981
g3
S'CCC(C)(C)CC'
p4982
sg27
g28
sg29
F0.03
sg8
(lp4983
g31
asg32
S'3,3-dimethylpentane'
p4984
sg13
I11229
sg14
F0.6
sg34
F2.56
sg16
(lp4985
g68
asg39
F2.53
sg20
S' 3,3-dimethylpentane'
p4986
sg41
g42
ssS'mobley_5747188'
p4987
(dp4988
g3
S'Cc1ccccc1[N+](=O)[O-]'
p4989
sg27
g28
sg29
F0.02
sg8
(lp4990
g31
asg32
S'1-methyl-2-nitro-benzene'
p4991
sg13
I6944
sg14
F0.6
sg34
F-3.58
sg16
(lp4992
S'nitro'
p4993
aS'aromatic'
p4994
asg39
F-3.14
sg20
S' 1-methyl-2-nitro-benzene'
p4995
sg41
g42
ssS'mobley_9626434'
p4996
(dp4997
g3
S'CCOCCO'
p4998
sg27
g28
sg29
F0.03
sg8
(lp4999
g31
asg32
S'2-ethoxyethanol'
p5000
sg13
I8076
sg14
F0.6
sg34
F-6.69
sg16
(lp5001
S'primary alcohol'
p5002
aS'dialkyl ether'
p5003
asg39
F-4.77
sg20
S' 2-ethoxyethanol'
p5004
sg41
g42
ssS'mobley_4587267'
p5005
(dp5006
g3
S'C([C@H]([C@H]([C@@H]([C@@H](CO)O)O)O)O)O'
p5007
sg273
g274
sg275
F0.043
sg8
(lp5008
g31
asg277
S'(2R,3R,4R,5R)-Hexan-1,2,3,4,5,6-hexol'
p5009
sg13
I6251
sg279
g280
(g284
S'{\x14\xaeG\xe1z\xd4?'
p5010
tp5011
Rp5012
sg290
g280
(g284
S'\x1f\x85\xebQ\xb8\x9e7\xc0'
p5013
tp5014
Rp5015
sg16
(lp5016
S'primary alcohol'
p5017
aS'secondary alcohol'
p5018
aS'1,2-diol'
p5019
asg298
F-18.64
sg20
S' mannitol'
p5020
sg300
g301
ssS'mobley_172879'
p5021
(dp5022
g3
S'c1ccc2c(c1)Oc3ccccc3O2'
p5023
sg212
g213
sg214
F0.02
sg8
(lp5024
g31
asg216
S'dibenzo-p-dioxin'
p5025
sg13
I9216
sg218
F0.1
sg219
F-3.15
sg16
(lp5026
S'diaryl ether'
p5027
aS'aromatic'
p5028
aS'heterocyclic'
p5029
asg222
F-4.8
sg20
S' dibenzo-p-dioxin'
p5030
sg224
g225
ssS'mobley_2457863'
p5031
(dp5032
g3
S'COc1cccc(c1)O'
p5033
sg27
g28
sg29
F0.03
sg8
(lp5034
g31
asg32
S'3-methoxyphenol'
p5035
sg13
I9007
sg14
F0.6
sg34
F-7.66
sg16
(lp5036
S'phenol or hydroxyhetarene'
p5037
aS'alkyl aryl ether'
p5038
aS'aromatic'
p5039
asg39
F-7.03
sg20
S' 3-methoxyphenol'
p5040
sg41
g42
ssS'mobley_2143011'
p5041
(dp5042
g3
S'CC(C)C=C'
p5043
sg27
g4896
sg29
F0.02
sg8
(lp5044
g31
asg32
S'3-methylbut-1-ene'
p5045
sg13
I11239
sg14
F0.6
sg34
F1.83
sg16
(lp5046
S'alkene'
p5047
asg39
F2.8
sg20
S' 3-methylbut-1-ene'
p5048
sg41
g42
ssS'mobley_2837389'
p5049
(dp5050
g3
S'c1cc[nH]c1'
p5051
sg27
g28
sg29
F0.02
sg8
(lp5052
g31
asg32
S'pyrrole'
p5053
sg13
I8027
sg14
F0.6
sg34
F-4.78
sg16
(lp5054
S'aromatic'
p5055
aS'heterocyclic'
p5056
asg39
F-3.87
sg20
S' pyrrole'
p5057
sg41
g42
ssS'mobley_8789465'
p5058
(dp5059
g3
S'c1ccc(c(c1)O)I'
p5060
sg27
g28
sg29
F0.03
sg8
(lp5061
g31
asg32
S'2-iodophenol'
p5062
sg13
I10784
sg14
F0.6
sg34
F-6.2
sg16
(lp5063
S'phenol or hydroxyhetarene'
p5064
aS'aryl iodide'
p5065
aS'aromatic'
p5066
asg39
F-2.91
sg20
S' 2-iodophenol'
p5067
sg41
g42
ssS'mobley_2859600'
p5068
(dp5069
g3
S'C=Cc1ccccc1'
p5070
sg27
g28
sg29
F0.02
sg8
(lp5071
g31
asg32
S'styrene'
p5072
sg13
I7501
sg14
F0.6
sg34
F-1.24
sg16
(lp5073
S'alkene'
p5074
aS'aromatic'
p5075
asg39
F-1.32
sg20
S' styrene'
p5076
sg41
g42
ssS'mobley_1855337'
p5077
(dp5078
g3
S'c1c(cc(c(c1Cl)Cl)Cl)Cl'
p5079
sg27
g28
sg29
F0.02
sg8
(lp5080
g31
asg32
S'1,2,3,5-tetrachlorobenzene'
p5081
sg13
I12468
sg14
F0.6
sg34
F-1.62
sg16
(lp5082
S'aryl chloride'
p5083
aS'aromatic'
p5084
asg39
F-0.02
sg20
S' 1,2,3,5-tetrachlorobenzene'
p5085
sg41
g42
ssS'mobley_9740891'
p5086
(dp5087
g3
S'c1cc(c(c(c1)Cl)C#N)Cl'
p5088
sg177
g178
sg179
F0.02
sg8
(lp5089
g31
asg181
S'dichlobenil'
p5090
sg13
I3031
sg183
F1.93
sg184
F-4.71
sg16
(lp5091
S'aryl chloride'
p5092
aS'carbonitrile'
p5093
aS'aromatic'
p5094
asg187
F-2.57
sg20
S' dichlobenil'
p5095
sg189
g190
ssS'mobley_7608462'
p5096
(dp5097
g3
S'c1ccc(cc1)Cl'
p5098
sg27
g28
sg29
F0.02
sg8
(lp5099
g31
asg32
S'chlorobenzene'
p5100
sg13
I7964
sg14
F0.6
sg34
F-1.12
sg16
(lp5101
S'aryl chloride'
p5102
aS'aromatic'
p5103
asg39
F-0.6
sg20
S' chlorobenzene'
p5104
sg41
g42
ssS'mobley_8221999'
p5105
(dp5106
g3
S'CCCC#N'
p5107
sg27
g28
sg29
F0.02
sg8
(lp5108
g31
asg32
S'butanenitrile'
p5109
sg13
I8008
sg14
F0.6
sg34
F-3.64
sg16
(lp5110
S'carbonitrile'
p5111
asg39
F-2.23
sg20
S' butanenitrile'
p5112
sg41
g42
ssS'mobley_4762983'
p5113
(dp5114
g3
S'CCCCCC=C'
p5115
sg27
g28
sg29
F0.02
sg8
(lp5116
g31
asg32
S'hept-1-ene'
p5117
sg13
I11610
sg14
F0.6
sg34
F1.66
sg16
(lp5118
S'alkene'
p5119
asg39
F2.97
sg20
S' hept-1-ene'
p5120
sg41
g42
ssS'mobley_2279874'
p5121
(dp5122
g3
S'COC(OC)OC'
p5123
sg27
g1518
sg29
F0.03
sg8
(lp5124
g31
asg32
S'trimethoxymethane'
p5125
sg13
I9005
sg14
F0.6
sg34
F-4.42
sg16
(lp5126
S'orthocarboxylic acid derivative'
p5127
aS'orthoester'
p5128
asg39
F-4.06
sg20
S' trimethoxymethane'
p5129
sg41
g42
ssS'mobley_3663158'
p5130
(dp5131
g3
S'c1ccc2cc(ccc2c1)O'
p5132
sg27
g28
sg29
F0.03
sg8
(lp5133
g31
asg32
S'naphthalen-2-ol'
p5134
sg13
I8663
sg14
F0.6
sg34
F-8.11
sg16
(lp5135
S'phenol or hydroxyhetarene'
p5136
aS'aromatic'
p5137
asg39
F-7.88
sg20
S' naphthalen-2-ol'
p5138
sg41
g42
ssS'mobley_8764620'
p5139
(dp5140
g3
S'c1cc(cnc1)C#N'
p5141
sg27
g28
sg29
F0.02
sg8
(lp5142
g31
asg32
S'pyridine-3-carbonitrile'
p5143
sg13
I79
sg14
F0.6
sg34
F-6.75
sg16
(lp5144
S'carbonitrile'
p5145
aS'aromatic'
p5146
aS'heterocyclic'
p5147
asg39
F-4.63
sg20
S' pyridine-3-carbonitrile'
p5148
sg41
g42
ssS'mobley_820789'
p5149
(dp5150
g3
S'CCCC(=O)O'
p5151
sg27
g28
sg29
F0.03
sg8
(lp5152
g31
asg32
S'butyric acid'
p5153
sg13
I264
sg14
F0.6
sg34
F-6.35
sg16
(lp5154
S'carboxylic acid'
p5155
asg39
F-5.46
sg20
S' butyric acid'
p5156
sg41
g42
ssS'mobley_6978427'
p5157
(dp5158
g3
S'COC(=O)C1CCCCC1'
p5159
sg27
g28
sg29
F0.02
sg8
(lp5160
g31
asg32
S'methyl cyclohexanecarboxylate'
p5161
sg13
I20748
sg14
F0.6
sg34
F-3.3
sg16
(lp5162
S'carboxylic acid ester'
p5163
asg39
F-4.29
sg20
S' methyl cyclohexanecarboxylate'
p5164
sg41
g42
ssS'mobley_6739648'
p5165
(dp5166
g3
S'C1COCCO1'
p5167
sg27
g28
sg29
F0.02
sg8
(lp5168
g31
asg32
S'1,4-dioxane'
p5169
sg13
I31275
sg14
F0.6
sg34
F-5.06
sg16
(lp5170
S'dialkyl ether'
p5171
aS'heterocyclic'
p5172
asg39
F-4.35
sg20
S' 1,4-dioxane'
p5173
sg41
g42
ssS'mobley_1800170'
p5174
(dp5175
g3
S'CCS'
p5176
sg27
g28
sg29
F0.02
sg8
(lp5177
g31
asg32
S'ethanethiol'
p5178
sg13
I6343
sg14
F0.6
sg34
F-1.14
sg16
(lp5179
S'thiol (sulfanyl)'
p5180
aS'alkylthiol'
p5181
asg39
F-0.4
sg20
S' ethanethiol'
p5182
sg41
g42
ssS'mobley_1046331'
p5183
(dp5184
g3
S'c1ccc(cc1)OC=O'
p5185
sg27
g1545
sg29
F0.02
sg8
(lp5186
g31
asg32
S'phenyl formate'
p5187
sg13
I74626
sg14
F0.6
sg34
F-3.82
sg16
(lp5188
S'carboxylic acid ester'
p5189
aS'aromatic'
p5190
asg39
F-4.83
sg20
S' phenyl formate'
p5191
sg41
g42
ssS'mobley_9821936'
p5192
(dp5193
g3
S'c12c(c(c(c(c1Cl)Cl)Cl)Cl)Oc3c(c(c(c(c3Cl)Cl)Cl)Cl)O2'
p5194
sg212
g213
sg214
F0.04
sg8
(lp5195
g31
asg216
S'1,2,3,4,6,7,8,9-octachlorodibenzo-p-dioxin'
p5196
sg13
I18636
sg218
F1.0
sg219
F-4.53
sg16
(lp5197
S'diaryl ether'
p5198
aS'aryl chloride'
p5199
aS'aromatic'
p5200
aS'heterocyclic'
p5201
asg222
F-1.15
sg20
S' octachlorodibenzo-p-dioxin'
p5202
sg224
g225
ssS'mobley_8311303'
p5203
(dp5204
g3
S'c1cc(c(cc1c2c(c(cc(c2Cl)Cl)Cl)Cl)Cl)Cl'
p5205
sg212
g213
sg214
F0.04
sg8
(lp5206
g31
asg216
S'1,2,4,5-tetrachloro-3-(3,4-dichlorophenyl)benzene'
p5207
sg13
I63079
sg218
F0.22
sg219
F-4.38
sg16
(lp5208
S'aryl chloride'
p5209
aS'aromatic'
p5210
asg222
F-0.7
sg20
S" 2,3,3',4',5,6-Hexachlorobiphenyl"
p5211
sg224
g225
ssS'mobley_4483973'
p5212
(dp5213
g3
S'c1ccc(cc1)F'
p5214
sg27
g28
sg29
F0.02
sg8
(lp5215
g31
asg32
S'fluorobenzene'
p5216
sg13
I10008
sg14
F0.6
sg34
F-0.8
sg16
(lp5217
S'aryl fluoride'
p5218
aS'aromatic'
p5219
asg39
F-0.07
sg20
S' fluorobenzene'
p5220
sg41
g42
ssS'mobley_4845722'
p5221
(dp5222
g3
S'c1(c(c(c(c(c1Cl)Cl)Cl)Cl)Cl)Cl'
p5223
sg443
g444
sg445
F0.04
sg8
(lp5224
g31
asg447
S'hexachlorobenzene'
p5225
sg13
I8370
sg449
F1.16
sg450
F-2.33
sg16
(lp5226
S'aryl chloride'
p5227
aS'aromatic'
p5228
asg456
F0.24
sg20
S' hexachlorobenzene'
p5229
sg458
g459
ssS'mobley_2294995'
p5230
(dp5231
g3
S'CCOC=O'
p5232
sg27
g28
sg29
F0.02
sg8
(lp5233
g31
asg32
S'ethyl formate'
p5234
sg13
I8025
sg14
F0.6
sg34
F-2.56
sg16
(lp5235
S'carboxylic acid ester'
p5236
asg39
F-2.99
sg20
S' ethyl formate'
p5237
sg41
g42
ssS'mobley_303222'
p5238
(dp5239
g3
S'CC=C'
p5240
sg27
g28
sg29
F0.02
sg8
(lp5241
g31
asg32
S'prop-1-ene'
p5242
sg13
I8252
sg14
F0.6
sg34
F1.32
sg16
(lp5243
S'alkene'
p5244
asg39
F2.44
sg20
S' prop-1-ene'
p5245
sg41
g42
ssS'mobley_1563176'
p5246
(dp5247
g3
S'CCCCS'
p5248
sg27
g28
sg29
F0.02
sg8
(lp5249
g31
asg32
S'butane-1-thiol'
p5250
sg13
I8012
sg14
F0.6
sg34
F-0.99
sg16
(lp5251
S'thiol (sulfanyl)'
p5252
aS'alkylthiol'
p5253
asg39
F-0.12
sg20
S' butane-1-thiol'
p5254
sg41
g42
ssS'mobley_4375719'
p5255
(dp5256
g3
S'CCCCCCCCC'
p5257
sg27
g28
sg29
F0.03
sg8
(lp5258
g31
asg32
S'nonane'
p5259
sg13
I8141
sg14
F0.6
sg34
F3.13
sg16
(lp5260
g68
asg39
F3.32
sg20
S' nonane'
p5261
sg41
g42
ssS'mobley_8117218'
p5262
(dp5263
g3
S'C1[C@@H]2[C@H]3[C@@H]([C@H]1[C@H]4[C@@H]2O4)[C@@]5(C(=C([C@]3(C5(Cl)Cl)Cl)Cl)Cl)Cl'
p5264
sg177
g178
sg179
F0.07
sg8
(lp5265
g31
asg181
S'endrin'
p5266
sg13
I3048
sg183
F0.1
sg184
F-4.82
sg16
(lp5267
S'dialkyl ether'
p5268
aS'alkyl chloride'
p5269
aS'alkene'
p5270
aS'heterocyclic'
p5271
asg187
F-4.77
sg20
S' endrin'
p5272
sg189
g190
ssS'mobley_8765203'
p5273
(dp5274
g3
S'CC(=C)C=C'
p5275
sg27
g28
sg29
F0.02
sg8
(lp5276
g31
asg32
S'isoprene'
p5277
sg13
I6557
sg14
F0.6
sg34
F0.68
sg16
(lp5278
S'alkene'
p5279
asg39
F1.81
sg20
S' isoprene'
p5280
sg41
g42
ssS'mobley_1278715'
p5281
(dp5282
g3
S'C(C(Cl)(Cl)Cl)(Cl)(Cl)Cl'
p5283
sg443
g444
sg445
F0.04
sg8
(lp5284
g31
asg447
S'hexachloroethane'
p5285
sg13
I6214
sg449
F0.1
sg450
F-0.64
sg16
(lp5286
S'halogen derivative'
p5287
asg456
F1.0
sg20
S' hexachloroethane'
p5288
sg458
g459
ssS'mobley_2269032'
p5289
(dp5290
g3
S'C[C@@H](c1ccc2cc(ccc2c1)OC)C(=O)O'
p5291
sg443
g444
sg445
F0.1
sg8
(lp5292
g31
asg447
S'naproxen'
p5293
sg13
I156391
sg449
F0.18
sg450
F-10.21
sg16
(lp5294
S'alkyl aryl ether'
p5295
aS'carboxylic acid'
p5296
aS'aromatic'
p5297
asg456
F-10.8
sg20
S' naproxen'
p5298
sg458
g459
ssS'mobley_929676'
p5299
(dp5300
g3
S'CCCCCCBr'
p5301
sg27
g28
sg29
F0.02
sg8
(lp5302
g31
asg32
S'1-bromohexane'
p5303
sg13
I8101
sg14
F0.6
sg34
F0.18
sg16
(lp5304
S'alkyl bromide'
p5305
asg39
F1.78
sg20
S' 1-bromohexane'
p5306
sg41
g42
ssS'mobley_1328465'
p5307
(dp5308
g3
S'C(C(Cl)Cl)Cl'
p5309
sg27
g28
sg29
F0.03
sg8
(lp5310
g31
asg32
S'1,1,2-trichloroethane'
p5311
sg13
I6574
sg14
F0.6
sg34
F-1.99
sg16
(lp5312
S'alkyl chloride'
p5313
asg39
F-0.5
sg20
S' 1,1,2-trichloroethane'
p5314
sg41
g42
ssS'mobley_296847'
p5315
(dp5316
g3
S'c1ccncc1'
p5317
sg27
g28
sg29
F0.02
sg8
(lp5318
g31
asg32
S'pyridine'
p5319
sg13
I1049
sg14
F0.6
sg34
F-4.69
sg16
(lp5320
S'aromatic'
p5321
aS'heterocyclic'
p5322
asg39
F-3.45
sg20
S' pyridine'
p5323
sg41
g42
ssS'mobley_4983965'
p5324
(dp5325
g3
S'CCSCC'
p5326
sg27
g28
sg29
F0.02
sg8
(lp5327
g31
asg32
S'ethylsulfanylethane'
p5328
sg13
I9609
sg14
F0.6
sg34
F-1.46
sg16
(lp5329
S'thioether'
p5330
asg39
F0.21
sg20
S' ethylsulfanylethane'
p5331
sg41
g42
ssS'mobley_6082662'
p5332
(dp5333
g3
S'c1cc(ccc1N)N(=O)=O'
p5334
sg443
g444
sg445
F0.05
sg8
(lp5335
g31
asg447
S'4-nitroaniline'
p5336
sg13
I7475
sg449
F0.1
sg450
F-9.82
sg16
(lp5337
S'primary amine'
p5338
aS'primary aromatic amine'
p5339
aS'nitro'
p5340
aS'aromatic'
p5341
asg456
F-10.38
sg20
S' 4-nitroaniline'
p5342
sg458
g459
ssS'mobley_7859387'
p5343
(dp5344
g3
S'CCCCCCC=O'
p5345
sg27
g28
sg29
F0.03
sg8
(lp5346
g31
asg32
S'heptanal'
p5347
sg13
I8130
sg14
F0.6
sg34
F-2.67
sg16
(lp5348
S'aldehyde'
p5349
asg39
F-2.63
sg20
S' heptanal'
p5350
sg41
g42
ssS'mobley_7360181'
p5351
(dp5352
g3
S'COC(C(F)(F)F)(OC)OC'
p5353
sg443
g444
sg445
F0.05
sg8
(lp5354
g31
aS'Changed IUPAC name from trimethyl orthotrifluoroacetate to 1,1,1-trifluoro-2,2,2-trimethoxyethane for better handling/standardization.'
p5355
asg447
S'1,1,1-trifluoro-2,2,2-trimethoxyethane'
p5356
sg13
I18927701
sg449
F0.2
sg450
F-0.8
sg16
(lp5357
S'halogen derivative'
p5358
aS'orthocarboxylic acid derivative'
p5359
aS'orthoester'
p5360
asg456
F-2.37
sg20
S' 1,1,1-trifluoro-2,2,2-trimethoxyethane'
p5361
sg458
g459
ssS'mobley_2923700'
p5362
(dp5363
g3
S'CCc1ccc(cc1)O'
p5364
sg27
g28
sg29
F0.03
sg8
(lp5365
g31
asg32
S'4-ethylphenol'
p5366
sg13
I31242
sg14
F0.6
sg34
F-6.13
sg16
(lp5367
S'phenol or hydroxyhetarene'
p5368
aS'aromatic'
p5369
asg39
F-5.08
sg20
S' 4-ethylphenol'
p5370
sg41
g42
ssS'mobley_2123854'
p5371
(dp5372
g3
S'c1cc(ccc1C#N)O'
p5373
sg27
g28
sg29
F0.03
sg8
(lp5374
g31
asg32
S'4-hydroxybenzonitrile'
p5375
sg13
I13019
sg14
F0.6
sg34
F-10.17
sg16
(lp5376
S'phenol or hydroxyhetarene'
p5377
aS'carbonitrile'
p5378
aS'aromatic'
p5379
asg39
F-7.24
sg20
S' 4-hydroxybenzonitrile'
p5380
sg41
g42
ssS'mobley_3589456'
p5381
(dp5382
g3
S'COC(CCl)(OC)OC'
p5383
sg27
g46
sg29
F0.04
sg8
(lp5384
g31
asg32
S'2-chloro-1,1,1-trimethoxy-ethane'
p5385
sg13
I144702
sg14
F0.6
sg34
F-4.59
sg16
(lp5386
S'alkyl chloride'
p5387
aS'orthocarboxylic acid derivative'
p5388
aS'orthoester'
p5389
asg39
F-3.3
sg20
S' 2-chloro-1,1,1-trimethoxy-ethane'
p5390
sg41
g42
ssS'mobley_2078467'
p5391
(dp5392
g3
S'C[C@@H](c1ccc(cc1)CC(C)C)C(=O)O'
p5393
sg443
g444
sg445
F0.07
sg8
(lp5394
g31
asg447
S'ibuprofen'
p5395
sg13
I3672
sg449
F0.64
sg450
F-7.0
sg16
(lp5396
S'carboxylic acid'
p5397
aS'aromatic'
p5398
asg456
F-6.91
sg20
S' ibuprofen'
p5399
sg458
g459
ssS'mobley_3265457'
p5400
(dp5401
g3
S'COc1cc(c(c(c1O)OC)Cl)C=O'
p5402
sg273
g274
sg275
F0.025
sg8
(lp5403
g31
asg277
S'2-chlorosyringaldehyde'
p5404
sg13
I53479
sg279
g280
(g284
S'\xa4p=\n\xd7\xa3\xe8?'
p5405
tp5406
Rp5407
sg290
g280
(g284
S'\x1f\x85\xebQ\xb8\x1e\x1f\xc0'
p5408
tp5409
Rp5410
sg16
(lp5411
S'aldehyde'
p5412
aS'phenol or hydroxyhetarene'
p5413
aS'alkyl aryl ether'
p5414
aS'aryl chloride'
p5415
aS'aromatic'
p5416
asg298
F-9.23
sg20
S' 2-chlorosyringaldehyde'
p5417
sg300
g301
ssS'mobley_9028462'
p5418
(dp5419
g3
S'COC(=O)C(F)(F)F'
p5420
sg27
S'10.1139/v76-032'
p5421
sg29
F0.02
sg8
(lp5422
g31
asg32
S'methyl 2,2,2-trifluoroacetate'
p5423
sg13
I9893
sg14
F0.6
sg34
F-1.1
sg16
(lp5424
S'halogen derivative'
p5425
aS'carboxylic acid ester'
p5426
asg39
F-1.39
sg20
S' methyl 2,2,2-trifluoroacetate'
p5427
sg41
g42
ssS'mobley_3259411'
p5428
(dp5429
g3
S'C(C(CO)O)O'
p5430
sg443
g444
sg445
F0.06
sg8
(lp5431
g31
asg447
S'glycerol'
p5432
sg13
I753
sg449
F1.0
sg450
F-13.43
sg16
(lp5433
S'primary alcohol'
p5434
aS'secondary alcohol'
p5435
aS'1,2-diol'
p5436
asg456
F-9.71
sg20
S' glycerol'
p5437
sg458
g459
ssS'mobley_7735340'
p5438
(dp5439
g3
S'c1cnc[nH]1'
p5440
sg27
g28
sg29
F0.03
sg8
(lp5441
g31
asg32
S'imidazole'
p5442
sg13
I795
sg14
F0.6
sg34
F-9.63
sg16
(lp5443
S'aromatic'
p5444
aS'heterocyclic'
p5445
asg39
F-7.85
sg20
S' imidazole'
p5446
sg41
g42
ssS'mobley_5948990'
p5447
(dp5448
g3
S'c1ccc(c(c1)N)[N+](=O)[O-]'
p5449
sg27
g28
sg29
F0.03
sg8
(lp5450
g31
asg32
S'2-nitroaniline'
p5451
sg13
I6946
sg14
F0.6
sg34
F-7.37
sg16
(lp5452
S'primary amine'
p5453
aS'primary aromatic amine'
p5454
aS'nitro'
p5455
aS'aromatic'
p5456
asg39
F-7.96
sg20
S' 2-nitroaniline'
p5457
sg41
g42
ssS'mobley_3452749'
p5458
(dp5459
g3
S'Cc1cccc(c1C)C'
p5460
sg27
g28
sg29
F0.02
sg8
(lp5461
g31
asg32
S'1,2,3-trimethylbenzene'
p5462
sg13
I10686
sg14
F0.6
sg34
F-1.21
sg16
(lp5463
S'aromatic'
p5464
asg39
F-0.65
sg20
S' 1,2,3-trimethylbenzene'
p5465
sg41
g42
ssS'mobley_9414831'
p5466
(dp5467
g3
S'Cc1cccc2c1cccc2'
p5468
sg27
g28
sg29
F0.02
sg8
(lp5469
g31
asg32
S'1-methylnaphthalene'
p5470
sg13
I7002
sg14
F0.6
sg34
F-2.44
sg16
(lp5471
S'aromatic'
p5472
asg39
F-3.24
sg20
S' 1-methylnaphthalene'
p5473
sg41
g42
ssS'mobley_7599023'
p5474
(dp5475
g3
S'c1ccc(cc1)Br'
p5476
sg27
g28
sg29
F0.02
sg8
(lp5477
g31
asg32
S'bromobenzene'
p5478
sg13
I7961
sg14
F0.6
sg34
F-1.46
sg16
(lp5479
S'aryl bromide'
p5480
aS'aromatic'
p5481
asg39
F-0.37
sg20
S' bromobenzene'
p5482
sg41
g42
ssS'mobley_9557440'
p5483
(dp5484
g3
S'c1c(c(=O)[nH]c(=O)[nH]1)Cl'
p5485
sg443
g444
sg445
F0.06
sg8
(lp5486
g31
asg447
S'5-chlorouracil'
p5487
sg13
I15758
sg449
F0.78
sg450
F-17.74
sg16
(lp5488
S'aryl chloride'
p5489
aS'oxo(het)arene'
p5490
aS'aromatic'
p5491
aS'heterocyclic'
p5492
asg456
F-16.7
sg20
S' 5-chlorouracil'
p5493
sg458
g459
ssS'mobley_6474572'
p5494
(dp5495
g3
S'C=CCl'
p5496
sg27
g28
sg29
F0.02
sg8
(lp5497
g31
asg32
S'chloroethylene'
p5498
sg13
I6338
sg14
F0.6
sg34
F-0.59
sg16
(lp5499
S'halogen derivative'
p5500
aS'alkene'
p5501
asg39
F1.22
sg20
S' chloroethylene'
p5502
sg41
g42
ssS'mobley_6988468'
p5503
(dp5504
g3
S'CCc1ccccn1'
p5505
sg27
g28
sg29
F0.02
sg8
(lp5506
g31
asg32
S'2-ethylpyridine'
p5507
sg13
I7523
sg14
F0.6
sg34
F-4.33
sg16
(lp5508
S'aromatic'
p5509
aS'heterocyclic'
p5510
asg39
F-3.21
sg20
S' 2-ethylpyridine'
p5511
sg41
g42
ssS'mobley_7150646'
p5512
(dp5513
g3
S'c1cc(ccc1Br)Br'
p5514
sg27
g28
sg29
F0.02
sg8
(lp5515
g31
asg32
S'1,4-dibromobenzene'
p5516
sg13
I7804
sg14
F0.6
sg34
F-2.3
sg16
(lp5517
S'aryl bromide'
p5518
aS'aromatic'
p5519
asg39
F-0.01
sg20
S' 1,4-dibromobenzene'
p5520
sg41
g42
ssS'mobley_5708811'
p5521
(dp5522
g3
S'COc1c(ccc(c1C(=O)O)Cl)Cl'
p5523
sg177
g178
sg179
F0.04
sg8
(lp5524
g31
asg181
S'dicamba'
p5525
sg13
I3030
sg183
F1.93
sg184
F-9.86
sg16
(lp5526
S'alkyl aryl ether'
p5527
aS'aryl chloride'
p5528
aS'carboxylic acid'
p5529
aS'aromatic'
p5530
asg187
F-8.13
sg20
S' dicamba'
p5531
sg189
g190
ssS'mobley_6688723'
p5532
(dp5533
g3
S'COc1c(cc(c(c1O)OC)Cl)Cl'
p5534
sg273
g274
sg275
F0.023
sg8
(lp5535
g31
asg277
S'3,5-dichloro-2,6-dimethoxyphenol'
p5536
sg13
I93462
sg279
g280
(g284
S'R\xb8\x1e\x85\xebQ\xd8?'
p5537
tp5538
Rp5539
sg290
F-6.44
sg16
(lp5540
S'phenol or hydroxyhetarene'
p5541
aS'alkyl aryl ether'
p5542
aS'aryl chloride'
p5543
aS'aromatic'
p5544
asg298
F-6.13
sg20
S' 3,5-Dichlorosyringol'
p5545
sg300
g301
ssS'mobley_4252724'
p5546
(dp5547
g3
S'CC(C)Cc1ccccc1'
p5548
sg27
g28
sg29
F0.02
sg8
(lp5549
g31
asg32
S'isobutylbenzene'
p5550
sg13
I10870
sg14
F0.6
sg34
F0.16
sg16
(lp5551
S'aromatic'
p5552
asg39
F0.0
sg20
S' isobutylbenzene'
p5553
sg41
g42
ssS'mobley_8983100'
p5554
(dp5555
g3
S'CBr'
p5556
sg27
g28
sg29
F0.01
sg8
(lp5557
g31
asg32
S'bromomethane'
p5558
sg13
I6323
sg14
F0.6
sg34
F-0.82
sg16
(lp5559
S'alkyl bromide'
p5560
asg39
F1.09
sg20
S' bromomethane'
p5561
sg41
g42
ssS'mobley_1952272'
p5562
(dp5563
g3
S'C[N+](=O)[O-]'
p5564
sg27
g28
sg29
F0.01
sg8
(lp5565
g31
asg32
S'nitromethane'
p5566
sg13
I6375
sg14
F0.6
sg34
F-4.02
sg16
(lp5567
S'nitro'
p5568
asg39
F-2.03
sg20
S' nitromethane'
p5569
sg41
g42
ssS'mobley_9007496'
p5570
(dp5571
g3
S'CNC(=O)Oc1cccc2c1cccc2'
p5572
sg177
g178
sg179
F0.04
sg8
(lp5573
g31
aS'Changed IUPAC name from carbaryl to naphthalen-1-yl N-methylcarbamate for better handling/standardization.'
p5574
asg181
S'naphthalen-1-yl N-methylcarbamate'
p5575
sg13
I6129
sg183
F0.1
sg184
F-9.45
sg16
(lp5576
S'carbamic acid ester (urethane)'
p5577
aS'aromatic'
p5578
asg187
F-10.92
sg20
S' carbaryl'
p5579
sg189
g190
ssS'mobley_8124669'
p5580
(dp5581
g3
S'CCc1cccc(c1N(COC)C(=O)CCl)CC'
p5582
sg177
g178
sg179
F0.05
sg8
(lp5583
g31
asg181
S'alachlor'
p5584
sg13
I2078
sg183
F0.29
sg184
F-8.21
sg16
(lp5585
S'hemiaminal'
p5586
aS'alkyl chloride'
p5587
aS'tertiary carboxylic acid amide'
p5588
aS'aromatic'
p5589
asg187
F-7.28
sg20
S' alachlor'
p5590
sg189
g190
ssS'mobley_1728386'
p5591
(dp5592
g3
S'c1ccc(cc1)C(=O)N'
p5593
sg5
g6
sg7
F0.1
sg8
(lp5594
g10
asg11
S'benzamide'
p5595
sg13
I2331
sg14
F0.2
sg15
F-11.0
sg16
(lp5596
S'primary carboxylic acid amide'
p5597
aS'aromatic'
p5598
asg19
F-9.9
sg20
S' benzamide'
p5599
sg22
g23
ssS'mobley_9100956'
p5600
(dp5601
g3
S'CC1CCCCC1'
p5602
sg27
g28
sg29
F0.02
sg8
(lp5603
g31
asg32
S'methylcyclohexane'
p5604
sg13
I7962
sg14
F0.6
sg34
F1.7
sg16
(lp5605
g68
asg39
F1.82
sg20
S' methylcyclohexane'
p5606
sg41
g42
ssS'mobley_7768165'
p5607
(dp5608
g3
S'C(CBr)Cl'
p5609
sg27
g28
sg29
F0.02
sg8
(lp5610
g31
asg32
S'1-bromo-2-chloro-ethane'
p5611
sg13
I7849
sg14
F0.6
sg34
F-1.95
sg16
(lp5612
S'alkyl chloride'
p5613
aS'alkyl bromide'
p5614
asg39
F0.02
sg20
S' 1-bromo-2-chloro-ethane'
p5615
sg41
g42
ssS'mobley_664966'
p5616
(dp5617
g3
S'C(I)I'
p5618
sg27
g28
sg29
F0.02
sg8
(lp5619
g31
asg32
S'diiodomethane'
p5620
sg13
I6346
sg14
F0.6
sg34
F-2.49
sg16
(lp5621
S'alkyl iodide'
p5622
asg39
F-0.74
sg20
S' diiodomethane'
p5623
sg41
g42
ssS'mobley_852937'
p5624
(dp5625
g3
S'c1cc(ccc1O)F'
p5626
sg27
g28
sg29
F0.03
sg8
(lp5627
g31
asg32
S'4-fluorophenol'
p5628
sg13
I9732
sg14
F0.6
sg34
F-6.19
sg16
(lp5629
S'phenol or hydroxyhetarene'
p5630
aS'aryl fluoride'
p5631
aS'aromatic'
p5632
asg39
F-4.99
sg20
S' 4-fluorophenol'
p5633
sg41
g42
ssS'mobley_8789864'
p5634
(dp5635
g3
S'COC(CC#N)(OC)OC'
p5636
sg27
g46
sg29
F0.04
sg8
(lp5637
g31
asg32
S'3,3,3-trimethoxypropanenitrile'
p5638
sg13
I144381
sg14
F0.6
sg34
F-6.4
sg16
(lp5639
S'carbonitrile'
p5640
aS'orthocarboxylic acid derivative'
p5641
aS'orthoester'
p5642
asg39
F-5.74
sg20
S' 3,3,3-trimethoxypropanenitrile'
p5643
sg41
g42
ssS'mobley_7364468'
p5644
(dp5645
g3
S'CC1=CC(=O)CC(C1)(C)C'
p5646
sg177
g178
sg179
F0.03
sg8
(lp5647
g31
aS'Changed IUPAC name from isophorone to 3,5,5-trimethylcyclohex-2-en-1-one for better handling/standardization.'
p5648
asg181
S'3,5,5-trimethylcyclohex-2-en-1-one'
p5649
sg13
I6544
sg183
F1.37
sg184
F-5.18
sg16
(lp5650
S'ketone'
p5651
aS'alkene'
p5652
asg187
F-3.82
sg20
S' 3,5,5-trimethylcyclohex-2-en-1-one'
p5653
sg189
g190
ssS'mobley_3414356'
p5654
(dp5655
g3
S'CCCC(C)(C)O'
p5656
sg27
g28
sg29
F0.02
sg8
(lp5657
g31
asg32
S'2-methylpentan-2-ol'
p5658
sg13
I11543
sg14
F0.6
sg34
F-3.92
sg16
(lp5659
S'tertiary alcohol'
p5660
asg39
F-2.79
sg20
S' 2-methylpentan-2-ol'
p5661
sg41
g42
ssS'mobley_778352'
p5662
(dp5663
g3
S'CC=C(C)C'
p5664
sg27
g4896
sg29
F0.02
sg8
(lp5665
g31
asg32
S'2-methylbut-2-ene'
p5666
sg13
I10553
sg14
F0.6
sg34
F1.31
sg16
(lp5667
S'alkene'
p5668
asg39
F2.28
sg20
S' 2-methylbut-2-ene'
p5669
sg41
g42
ssS'mobley_4395315'
p5670
(dp5671
g3
S'Cc1cc(ccc1Cl)O'
p5672
sg27
g28
sg29
F0.03
sg8
(lp5673
g31
asg32
S'4-chloro-3-methyl-phenol'
p5674
sg13
I1732
sg14
F0.6
sg34
F-6.79
sg16
(lp5675
S'phenol or hydroxyhetarene'
p5676
aS'aryl chloride'
p5677
aS'aromatic'
p5678
asg39
F-4.9
sg20
S' 4-chloro-3-methyl-phenol'
p5679
sg41
g42
ssS'mobley_1424265'
p5680
(dp5681
g3
S'Cc1cccc(c1)C'
p5682
sg27
g28
sg29
F0.02
sg8
(lp5683
g31
asg32
S'm-xylene'
p5684
sg13
I7929
sg14
F0.6
sg34
F-0.83
sg16
(lp5685
S'aromatic'
p5686
asg39
F-0.17
sg20
S' m-xylene'
p5687
sg41
g42
ssS'mobley_7610437'
p5688
(dp5689
g3
S'CC[C@H](C(C)C)O'
p5690
sg27
g28
sg29
F0.03
sg8
(lp5691
S'Renamed mobley_7610437 from 2-methylpentan-3-ol to (3R)-2-methylpentan-3-ol (the name from the 3D structure) since the former did not completely specify stereochemistry.\n'
p5692
asg32
S'2-methylpentan-3-ol'
p5693
sg13
I11264
sg14
F0.6
sg34
F-3.88
sg16
(lp5694
S'secondary alcohol'
p5695
asg39
F-2.19
sg20
S' 2-methylpentan-3-ol'
p5696
sg41
g42
ssS'mobley_4609460'
p5697
(dp5698
g3
S'CCOC(=O)c1ccc(cc1)O'
p5699
sg443
g444
sg445
F0.06
sg8
(lp5700
g31
asg447
S'ethyl paraben'
p5701
sg13
I8434
sg449
F0.3
sg450
F-9.2
sg16
(lp5702
S'phenol or hydroxyhetarene'
p5703
aS'carboxylic acid ester'
p5704
aS'aromatic'
p5705
asg456
F-9.57
sg20
S' ethyl paraben'
p5706
sg458
g459
ssS'mobley_8713762'
p5707
(dp5708
g3
S'CCCN(CCC)C(=O)SCCC'
p5709
sg177
g178
sg179
F0.04
sg8
(lp5710
g31
aS'Changed IUPAC name from vernolate to N,N-dipropyl(propylsulfanyl)formamide for better handling/standardization.'
p5711
asg181
S'N,N-dipropyl(propylsulfanyl)formamide'
p5712
sg13
I16003
sg183
F1.36
sg184
F-4.13
sg16
(lp5713
S'thiocarbamic acid ester'
p5714
asg187
F-4.17
sg20
S' vernolate'
p5715
sg189
g190
ssS'mobley_2178600'
p5716
(dp5717
g3
S'CCCCCCl'
p5718
sg5
g6
sg7
F0.1
sg8
(lp5719
g10
asg11
S'1-chloro-pentane'
p5720
sg13
I10977
sg14
F0.2
sg15
F-0.1
sg16
(lp5721
S'alkyl chloride'
p5722
asg19
F1.1
sg20
S' 1-chloro-pentane'
p5723
sg22
g23
ssS'mobley_4936555'
p5724
(dp5725
g3
S'Cc1cccc(c1C)Nc2ccccc2C(=O)O'
p5726
sg273
g274
sg275
F0.025
sg8
(lp5727
g31
asg277
S'2-(2,3-dimethylphenyl)aminobenzoic acid'
p5728
sg13
I4044
sg279
g280
(g284
S'\x9a\x99\x99\x99\x99\x99\xb9?'
p5729
tp5730
Rp5731
sg290
g280
(g284
S'\x1f\x85\xebQ\xb8\x1e\x1b\xc0'
p5732
tp5733
Rp5734
sg16
(lp5735
S'secondary amine'
p5736
aS'secondary aromatic amine (diarylamine)'
p5737
aS'carboxylic acid'
p5738
aS'aromatic'
p5739
asg298
F-7.69
sg20
S' mefenamic acid'
p5740
sg300
g301
ssS'mobley_1760914'
p5741
(dp5742
g3
S'Cc1ccccc1Cl'
p5743
sg27
g28
sg29
F0.02
sg8
(lp5744
g31
asg32
S'1-chloro-2-methyl-benzene'
p5745
sg13
I7238
sg14
F0.6
sg34
F-1.14
sg16
(lp5746
S'aryl chloride'
p5747
aS'aromatic'
p5748
asg39
F-0.51
sg20
S' 1-chloro-2-methyl-benzene'
p5749
sg41
g42
ssS'mobley_9883303'
p5750
(dp5751
g3
S'CCC[C@H](C)CC'
p5752
sg27
g28
sg29
F0.02
sg8
(lp5753
S'Renamed mobley_9883303 from 3-methylhexane to (3R)-3-methylhexane (the name from the 3D structure) since the former did not completely specify stereochemistry.\n'
p5754
asg32
S'3-methylhexane'
p5755
sg13
I11507
sg14
F0.6
sg34
F2.71
sg16
(lp5756
g68
asg39
F2.76
sg20
S' 3-methylhexane'
p5757
sg41
g42
ssS'mobley_9029594'
p5758
(dp5759
g3
S'CF'
p5760
sg27
g28
sg29
F0.01
sg8
(lp5761
g31
asg32
S'fluoromethane'
p5762
sg13
I11638
sg14
F0.6
sg34
F-0.22
sg16
(lp5763
S'alkyl fluoride'
p5764
asg39
F0.79
sg20
S' fluoromethane'
p5765
sg41
g42
ssS'mobley_1502181'
p5766
(dp5767
g3
S'CCCCCCCC(=O)C'
p5768
sg27
g28
sg29
F0.03
sg8
(lp5769
g31
asg32
S'nonan-2-one'
p5770
sg13
I13187
sg14
F0.6
sg34
F-2.49
sg16
(lp5771
S'ketone'
p5772
asg39
F-2.51
sg20
S' nonan-2-one'
p5773
sg41
g42
ssS'mobley_9478823'
p5774
(dp5775
g3
S'Cc1ccccc1C'
p5776
sg27
g28
sg29
F0.02
sg8
(lp5777
g31
asg32
S'o-xylene'
p5778
sg13
I7237
sg14
F0.6
sg34
F-0.9
sg16
(lp5779
S'aromatic'
p5780
asg39
F-0.52
sg20
S' o-xylene'
p5781
sg41
g42
ssS'mobley_9201263'
p5782
(dp5783
g3
S'COS(=O)(=O)C'
p5784
sg27
g1469
sg29
F0.03
sg8
(lp5785
g31
asg32
S'methyl methanesulfonate'
p5786
sg13
I4156
sg14
F0.6
sg34
F-4.87
sg16
(lp5787
S'sulfonic acid ester'
p5788
asg39
F-8.29
sg20
S' methyl methanesulfonate'
p5789
sg41
g42
ssS'mobley_2613240'
p5790
(dp5791
g3
S'COc1ccccc1OC'
p5792
sg273
g274
sg275
F0.021
sg8
(lp5793
g31
asg277
S'1,2-dimethoxybenzene'
p5794
sg13
I7043
sg279
g280
(g284
S'\x9a\x99\x99\x99\x99\x99\xb9?'
p5795
tp5796
Rp5797
sg290
g280
(g284
S'R\xb8\x1e\x85\xebQ\x15\xc0'
p5798
tp5799
Rp5800
sg16
(lp5801
S'alkyl aryl ether'
p5802
aS'aromatic'
p5803
asg298
F-3.52
sg20
S' 1,2-dimethoxybenzene'
p5804
sg300
g301
ssS'mobley_7769613'
p5805
(dp5806
g3
S'CC(C)(C)Br'
p5807
sg27
g28
sg29
F0.02
sg8
(lp5808
g31
asg32
S'2-bromo-2-methyl-propane'
p5809
sg13
I10485
sg14
F0.6
sg34
F0.84
sg16
(lp5810
S'alkyl bromide'
p5811
asg39
F0.89
sg20
S' 2-bromo-2-methyl-propane'
p5812
sg41
g42
ssS'mobley_4434915'
p5813
(dp5814
g3
S'CCl'
p5815
sg27
g28
sg29
F0.01
sg8
(lp5816
g31
asg32
S'chloromethane'
p5817
sg13
I6327
sg14
F0.6
sg34
F-0.55
sg16
(lp5818
S'alkyl chloride'
p5819
asg39
F0.81
sg20
S' chloromethane'
p5820
sg41
g42
ssS'mobley_2410897'
p5821
(dp5822
g3
S'CCN'
p5823
sg27
g28
sg29
F0.02
sg8
(lp5824
g31
asg32
S'ethanamine'
p5825
sg13
I6341
sg14
F0.6
sg34
F-4.5
sg16
(lp5826
S'primary amine'
p5827
aS'primary aliphatic amine (alkylamine)'
p5828
asg39
F-3.14
sg20
S' ethanamine'
p5829
sg41
g42
ssS'mobley_5003962'
p5830
(dp5831
g3
S'c1ccc2c(c1)C(=O)c3ccc(cc3C2=O)N'
p5832
sg273
g274
sg275
F0.026
sg8
(lp5833
g31
asg277
S'2-amino-9,10-anthraquinone'
p5834
sg13
I8341
sg279
g280
(g284
S'\x8f\xc2\xf5(\\\x8f\xd2?'
p5835
tp5836
Rp5837
sg290
g280
(g284
S"\x8f\xc2\xf5(\\\x0f'\xc0"
p5838
tp5839
Rp5840
sg16
(lp5841
S'ketone'
p5842
aS'primary amine'
p5843
aS'primary aromatic amine'
p5844
aS'aromatic'
p5845
asg298
F-13.71
sg20
S' 2-amino-9,10-anthraquinone'
p5846
sg300
g301
ssS'mobley_1929982'
p5847
(dp5848
g3
S'S'
p5849
sg27
g28
sg29
F0.01
sg8
(lp5850
g31
asg32
S'hydrogen sulfide'
p5851
sg13
I402
sg14
F0.6
sg34
F-0.7
sg16
(lp5852
g68
asg39
F-1.17
sg20
S' hydrogen sulfide'
p5853
sg41
g42
ssS'mobley_1650157'
p5854
(dp5855
g3
S'CC(C)(C)O'
p5856
sg27
g28
sg29
F0.02
sg8
(lp5857
g31
asg32
S'2-methylpropan-2-ol'
p5858
sg13
I6386
sg14
F0.6
sg34
F-4.47
sg16
(lp5859
S'tertiary alcohol'
p5860
asg39
F-3.09
sg20
S' 2-methylpropan-2-ol'
p5861
sg41
g42
ssS'mobley_5935995'
p5862
(dp5863
g3
S'CCC(C)(C)C'
p5864
sg27
g28
sg29
F0.02
sg8
(lp5865
g31
asg32
S'2,2-dimethylbutane'
p5866
sg13
I6403
sg14
F0.6
sg34
F2.51
sg16
(lp5867
g68
asg39
F2.53
sg20
S' 2,2-dimethylbutane'
p5868
sg41
g42
ssS'mobley_8048190'
p5869
(dp5870
g3
S'CC(=O)N'
p5871
sg27
g28
sg29
F0.03
sg8
(lp5872
g31
asg32
S'acetamide'
p5873
sg13
I178
sg14
F0.6
sg34
F-9.71
sg16
(lp5874
S'primary carboxylic acid amide'
p5875
asg39
F-8.62
sg20
S' acetamide'
p5876
sg41
g42
ssS'mobley_5917842'
p5877
(dp5878
g3
S'Cc1ccc(c(c1)OC)O'
p5879
sg273
g274
sg275
F0.021
sg8
(lp5880
g31
asg277
S'4-methyl-2-methoxyphenol'
p5881
sg13
I7144
sg279
g280
(g284
S'\x9a\x99\x99\x99\x99\x99\xb9?'
p5882
tp5883
Rp5884
sg290
g280
(g284
S'333333\x17\xc0'
p5885
tp5886
Rp5887
sg16
(lp5888
S'phenol or hydroxyhetarene'
p5889
aS'alkyl aryl ether'
p5890
aS'aromatic'
p5891
asg298
F-4.46
sg20
S' 4-methyl-2-methoxyphenol'
p5892
sg300
g301
ssS'mobley_7106722'
p5893
(dp5894
g3
S'CCCC(C)C'
p5895
sg27
g28
sg29
F0.02
sg8
(lp5896
g31
asg32
S'isohexane'
p5897
sg13
I7892
sg14
F0.6
sg34
F2.51
sg16
(lp5898
g68
asg39
F2.78
sg20
S' isohexane'
p5899
sg41
g42
ssS'mobley_8883511'
p5900
(dp5901
g3
S'Cc1ccccc1C=O'
p5902
sg273
g274
sg275
F0.019
sg8
(lp5903
g31
asg277
S'2-methylbenzaldehyde'
p5904
sg13
I10722
sg279
g280
(g284
S'\x9a\x99\x99\x99\x99\x99\xb9?'
p5905
tp5906
Rp5907
sg290
g280
(g284
S'q=\n\xd7\xa3p\x0f\xc0'
p5908
tp5909
Rp5910
sg16
(lp5911
S'aldehyde'
p5912
aS'aromatic'
p5913
asg298
F-4.64
sg20
S' 2-methylbenzaldehyde'
p5914
sg300
g301
ssS'mobley_7732703'
p5915
(dp5916
g3
S'C(F)(F)(F)Br'
p5917
sg27
g28
sg29
F0.02
sg8
(lp5918
g31
asg32
S'bromo-trifluoro-methane'
p5919
sg13
I6384
sg14
F0.6
sg34
F1.79
sg16
(lp5920
S'halogen derivative'
p5921
asg39
F2.03
sg20
S' bromo-trifluoro-methane'
p5922
sg41
g42
ssS'mobley_3639400'
p5923
(dp5924
g3
S'CCCCCl'
p5925
sg27
g28
sg29
F0.02
sg8
(lp5926
g31
asg32
S'1-chlorobutane'
p5927
sg13
I8005
sg14
F0.6
sg34
F-0.16
sg16
(lp5928
S'alkyl chloride'
p5929
asg39
F0.99
sg20
S' 1-chlorobutane'
p5930
sg41
g42
ssS'mobley_9185328'
p5931
(dp5932
g3
S'CCCN'
p5933
sg27
g28
sg29
F0.02
sg8
(lp5934
g31
asg32
S'propan-1-amine'
p5935
sg13
I7852
sg14
F0.6
sg34
F-4.39
sg16
(lp5936
S'primary amine'
p5937
aS'primary aliphatic amine (alkylamine)'
p5938
asg39
F-3.05
sg20
S' propan-1-amine'
p5939
sg41
g42
ssS'mobley_3105103'
p5940
(dp5941
g3
S'Cc1c(c(=O)n(c(=O)[nH]1)C(C)(C)C)Cl'
p5942
sg177
g178
sg179
F0.04
sg8
(lp5943
g31
asg181
S'terbacil'
p5944
sg13
I22188
sg183
F1.93
sg184
F-11.14
sg16
(lp5945
S'aryl chloride'
p5946
aS'oxo(het)arene'
p5947
aS'aromatic'
p5948
aS'heterocyclic'
p5949
asg187
F-13.33
sg20
S' terbacil'
p5950
sg189
g190
ssS'mobley_8337977'
p5951
(dp5952
g3
S'CC(C)CC(=O)C'
p5953
sg27
g28
sg29
F0.02
sg8
(lp5954
g31
asg32
S'4-methylpentan-2-one'
p5955
sg13
I7909
sg14
F0.6
sg34
F-3.05
sg16
(lp5956
S'ketone'
p5957
asg39
F-2.96
sg20
S' 4-methylpentan-2-one'
p5958
sg41
g42
ssS'mobley_5347550'
p5959
(dp5960
g3
S'COC(C(Cl)Cl)(F)F'
p5961
sg27
g28
sg29
F0.02
sg8
(lp5962
g31
asg32
S'2,2-dichloro-1,1-difluoro-1-methoxy-ethane'
p5963
sg13
I4116
sg14
F0.6
sg34
F-1.12
sg16
(lp5964
S'alkyl chloride'
p5965
aS'orthocarboxylic acid derivative'
p5966
asg39
F-0.71
sg20
S' methoxyflurane'
p5967
sg41
g42
ssS'mobley_1733799'
p5968
(dp5969
g3
S'c1cc(ccc1O)Br'
p5970
sg27
S'10.1039/J29710000533 and 10.1007/BF00646936'
p5971
sg29
F0.02
sg8
(lp5972
g31
aS'Experimental value updated 10/22/13 from J. Peter Guthrie (University of Western Ontario) taken as a weighted average of the values -7.13 from a Cabani review, and -5.24 from experimental data from Parsons, Rochester, and Wood (see reference). The weighting gives preference to the latter since it gives source data.\n'
p5973
asg32
S'4-bromophenol'
p5974
sg13
I7808
sg14
F0.83
sg34
F-5.85
sg16
(lp5975
S'phenol or hydroxyhetarene'
p5976
aS'aryl bromide'
p5977
aS'aromatic'
p5978
asg39
F-5.47
sg20
S' 4-bromophenol'
p5979
sg41
g42
ssS'mobley_5494918'
p5980
(dp5981
g3
S'C(=C(F)F)(C(F)(F)F)F'
p5982
sg27
S'10.1021/cr60306a003'
p5983
sg29
F0.02
sS'notes'
p5984
(lp5985
S'Updated correcting an error in the Rizzo/Mobley sets that had arisen from confusing the abbreviation HFP with hexafluoropropan-2-ol versus hexafluoropropene. Reference: Wilhelm, E., Battino, R., Wilcock, R. J., Chem. Rev. 1977, 77, 223-262.\n'
p5986
ag31
asg32
S'1,1,2,3,3,3-hexafluoroprop-1-ene'
p5987
sg13
I83439
sg14
F0.6
sg34
F2.93
sg16
(lp5988
S'halogen derivative'
p5989
asg39
F2.29
sg20
S' 1,1,2,3,3,3-hexafluoroprop-1-ene'
p5990
sg41
g42
ssS'mobley_7010316'
p5991
(dp5992
g3
S'C1CCC(CC1)O'
p5993
sg27
g28
sg29
F0.02
sg8
(lp5994
g31
asg32
S'cyclohexanol'
p5995
sg13
I7966
sg14
F0.6
sg34
F-5.46
sg16
(lp5996
S'secondary alcohol'
p5997
asg39
F-4.26
sg20
S' cyclohexanol'
p5998
sg41
g42
ssS'mobley_8320545'
p5999
(dp6000
g3
S'CC[N+](=O)[O-]'
p6001
sg27
g28
sg29
F0.02
sg8
(lp6002
g31
asg32
S'1-nitroethane'
p6003
sg13
I6587
sg14
F0.6
sg34
F-3.71
sg16
(lp6004
S'nitro'
p6005
asg39
F-1.73
sg20
S' 1-nitroethane'
p6006
sg41
g42
ssS'mobley_3775790'
p6007
(dp6008
g3
S'Cn1cccc1'
p6009
sg27
g28
sg29
F0.02
sg8
(lp6010
g31
asg32
S'1-methylpyrrole'
p6011
sg13
I7304
sg14
F0.6
sg34
F-2.89
sg16
(lp6012
S'aromatic'
p6013
aS'heterocyclic'
p6014
asg39
F-2.59
sg20
S' 1-methylpyrrole'
p6015
sg41
g42
ssS'mobley_7157427'
p6016
(dp6017
g3
S'CCCCCCCCl'
p6018
sg27
g28
sg29
F0.03
sg8
(lp6019
g31
asg32
S'1-chloroheptane'
p6020
sg13
I12371
sg14
F0.6
sg34
F0.29
sg16
(lp6021
S'alkyl chloride'
p6022
asg39
F1.53
sg20
S' 1-chloroheptane'
p6023
sg41
g42
ssS'mobley_3746675'
p6024
(dp6025
g3
S'CC(=C)c1ccccc1'
p6026
sg27
g28
sg29
F0.02
sg8
(lp6027
g31
asg32
S'isopropenylbenzene'
p6028
sg13
I7407
sg14
F0.6
sg34
F-1.24
sg16
(lp6029
S'alkene'
p6030
aS'aromatic'
p6031
asg39
F-1.26
sg20
S' isopropenylbenzene'
p6032
sg41
g42
ssS'mobley_3715043'
p6033
(dp6034
g3
S'Cc1ccc(c2c1cccc2)C'
p6035
sg27
g28
sg29
F0.03
sg8
(lp6036
g31
asg32
S'1,4-dimethylnaphthalene'
p6037
sg13
I11304
sg14
F0.6
sg34
F-2.82
sg16
(lp6038
S'aromatic'
p6039
asg39
F-3.29
sg20
S' 1,4-dimethylnaphthalene'
p6040
sg41
g42
ssS'mobley_5263791'
p6041
(dp6042
g3
S'CCc1cccc2c1cccc2'
p6043
sg27
g28
sg29
F0.03
sg8
(lp6044
g31
asg32
S'1-ethylnaphthalene'
p6045
sg13
I14315
sg14
F0.6
sg34
F-2.4
sg16
(lp6046
S'aromatic'
p6047
asg39
F-3.0
sg20
S' 1-ethylnaphthalene'
p6048
sg41
g42
ss.