(dp0
S'mobley_1323538'
p1
(dp2
S'smiles'
p3
S'CCOP(=O)(OCC)OCC'
p4
sS'calc'
p5
F-10.8
sS'd_calc'
p6
F0.1
sS'notes'
p7
(lp8
S'Experimental uncertainty as suggested by 10.1039/P29900000291 -- 0.2 kcal/mol.'
p9
asS'iupac'
p10
S'triethylphosphate'
p11
sS'PubChemID'
p12
I6535
sS'd_expt'
p13
F0.2
sS'expt'
p14
F-7.5
sS'groups'
p15
(lp16
S'phosphoric acid ester'
p17
asS'expt_reference'
p18
S'10.1039/P29900000291'
p19
sS'nickname'
p20
S' triethylphosphate'
p21
sS'calc_reference'
p22
S'10.1021/jp0667442'
p23
ssS'mobley_2661134'
p24
(dp25
g3
S'c1cc(cc(c1)O)C#N'
p26
sS'calc'
p27
F-6.99
sS'd_calc'
p28
F0.03
sg7
(lp29
S'Experimental uncertainty not presently available, so assigned a default value.'
p30
asS'iupac'
p31
S'3-hydroxybenzonitrile'
p32
sg12
I13394
sg13
F0.6
sS'expt'
p33
F-9.65
sg15
(lp34
S'phenol or hydroxyhetarene'
p35
aS'carbonitrile'
p36
aS'aromatic'
p37
asS'expt_reference'
p38
S'10.1021/ct050097l'
p39
sg20
S' 3-hydroxybenzonitrile'
p40
sS'calc_reference'
p41
S'10.1021/ct800409d'
p42
ssS'mobley_6929123'
p43
(dp44
g3
S'COC(=O)CCl'
p45
sg27
F-3.92
sg28
F0.02
sg7
(lp46
g30
asg31
S'methyl 2-chloroacetate'
p47
sg12
I7295
sg13
F0.6
sg33
F-4.0
sg15
(lp48
S'alkyl chloride'
p49
aS'carboxylic acid ester'
p50
asg38
S'10.1139/v80-201'
p51
sg20
S' methyl 2-chloroacetate'
p52
sg41
g42
ssS'mobley_3395921'
p53
(dp54
g3
S'C1CCOCC1'
p55
sg27
F-1.78
sg28
F0.02
sg7
(lp56
g30
asg31
S'tetrahydropyran'
p57
sg12
I8894
sg13
F0.6
sg33
F-3.12
sg15
(lp58
S'dialkyl ether'
p59
aS'heterocyclic'
p60
asg38
g39
sg20
S' tetrahydropyran'
p61
sg41
g42
ssS'mobley_5449201'
p62
(dp63
g3
S'CCCCC'
p64
sg5
F2.6
sg6
F0.1
sg7
(lp65
g9
asg10
S'n-pentane'
p66
sg12
I8003
sg13
F0.2
sg14
F2.3
sg15
(lp67
S''
p68
asg18
g19
sg20
S' n-pentane'
p69
sg22
g23
ssS'mobley_5631798'
p70
(dp71
g3
S'N'
p72
sg27
F-4.04
sg28
F0.01
sg7
(lp73
g30
asg31
S'ammonia'
p74
sg12
I222
sg13
F0.6
sg33
F-4.29
sg15
(lp75
g68
asg38
g39
sg20
S' ammonia'
p76
sg41
g42
ssS'mobley_1674094'
p77
(dp78
g3
S'CCCCC#C'
p79
sg27
F0.79
sg28
F0.02
sg7
(lp80
g30
asg31
S'hex-1-yne'
p81
sg12
I12732
sg13
F0.6
sg33
F0.29
sg15
(lp82
S'alkyne'
p83
asg38
g39
sg20
S' hex-1-yne'
p84
sg41
g42
ssS'mobley_9838013'
p85
(dp86
g3
S'CCC(C)(C)O'
p87
sg27
F-2.96
sg28
F0.03
sg7
(lp88
g30
asg31
S'2-methylbutan-2-ol'
p89
sg12
I6405
sg13
F0.6
sg33
F-4.43
sg15
(lp90
S'tertiary alcohol'
p91
asg38
g39
sg20
S' 2-methylbutan-2-ol'
p92
sg41
g42
ssS'mobley_1735893'
p93
(dp94
g3
S'CCCCCC(=O)O'
p95
sg27
F-5.08
sg28
F0.03
sg7
(lp96
g30
asg31
S'hexanoic acid'
p97
sg12
I8892
sg13
F0.6
sg33
F-6.21
sg15
(lp98
S'carboxylic acid'
p99
asg38
g39
sg20
S' hexanoic acid'
p100
sg41
g42
ssS'mobley_2198613'
p101
(dp102
g3
S'CCCl'
p103
sg27
F0.78
sg28
F0.02
sg7
(lp104
g30
asg31
S'chloroethane'
p105
sg12
I6337
sg13
F0.6
sg33
F-0.63
sg15
(lp106
S'alkyl chloride'
p107
asg38
g39
sg20
S' chloroethane'
p108
sg41
g42
ssS'mobley_1449384'
p109
(dp110
g3
S'Cc1ccc(cc1)C(C)C'
p111
sg27
F0.2
sg28
F0.03
sg7
(lp112
g30
asg31
S'1-isopropyl-4-methyl-benzene'
p113
sg12
I7463
sg13
F0.6
sg33
F-0.68
sg15
(lp114
S'aromatic'
p115
asg38
g39
sg20
S' 1-isopropyl-4-methyl-benzene'
p116
sg41
g42
ssS'mobley_3682850'
p117
(dp118
g3
S'C1CCC(=O)CC1'
p119
sg27
F-3.84
sg28
F0.02
sg7
(lp120
g30
asg31
S'cyclohexanone'
p121
sg12
I7967
sg13
F0.6
sg33
F-4.91
sg15
(lp122
S'ketone'
p123
asg38
g39
sg20
S' cyclohexanone'
p124
sg41
g42
ssS'mobley_3264884'
p125
(dp126
g3
S'c1ccc2cc(ccc2c1)N'
p127
sg27
F-7.87
sg28
F0.03
sg7
(lp128
g30
asg31
S'naphthalen-2-amine'
p129
sg12
I7057
sg13
F0.6
sg33
F-7.47
sg15
(lp130
S'primary amine'
p131
aS'primary aromatic amine'
p132
aS'aromatic'
p133
asg38
g39
sg20
S' naphthalen-2-amine'
p134
sg41
g42
ssS'mobley_8614858'
p135
(dp136
g3
S'CCCCCCC'
p137
sg27
F3.2
sg28
F0.02
sg7
(lp138
g30
asg31
S'heptane'
p139
sg12
I8900
sg13
F0.6
sg33
F2.67
sg15
(lp140
g68
asg38
g39
sg20
S' heptane'
p141
sg41
g42
ssS'mobley_4043987'
p142
(dp143
g3
S'CCCCC(C)C'
p144
sg27
F3.0
sg28
F0.03
sg7
(lp145
g30
asg31
S'2-methylhexane'
p146
sg12
I11582
sg13
F0.6
sg33
F2.93
sg15
(lp147
g68
asg38
g39
sg20
S' 2-methylhexane'
p148
sg41
g42
ssS'mobley_2864987'
p149
(dp150
g3
S'CCC[C@@H](C)O'
p151
sg27
F-2.87
sg28
F0.02
sg7
(lp152
S'Renamed mobley_2864987 from pentan-2-ol to (2R)-pentan-2-ol (the name from the 3D structure) since the former did not completely specify stereochemistry.\n'
p153
asg31
S'pentan-2-ol'
p154
sg12
I22386
sg13
F0.6
sg33
F-4.39
sg15
(lp155
S'secondary alcohol'
p156
asg38
g39
sg20
S' pentan-2-ol'
p157
sg41
g42
ssS'mobley_859464'
p158
(dp159
g3
S'CC(C)COC(=O)C'
p160
sg27
F-2.8
sg28
F0.02
sg7
(lp161
g30
asg31
S'isobutyl acetate'
p162
sg12
I8038
sg13
F0.6
sg33
F-2.36
sg15
(lp163
S'carboxylic acid ester'
p164
asg38
g39
sg20
S' isobutyl acetate'
p165
sg41
g42
ssS'mobley_3053621'
p166
(dp167
g3
S'c1ccccc1'
p168
sg5
F-0.6
sg6
F0.1
sg7
(lp169
g9
asg10
S'benzene'
p170
sg12
I241
sg13
F0.2
sg14
F-0.9
sg15
(lp171
S'aromatic'
p172
asg18
g19
sg20
S' benzene'
p173
sg22
g23
ssS'mobley_1352110'
p174
(dp175
g3
S'CCCCN(CC)C(=O)SCCC'
p176
sS'calc'
p177
F-4.85
sS'd_calc'
p178
F0.04
sg7
(lp179
g30
asS'iupac'
p180
S'pebulate'
p181
sg12
I14215
sS'd_expt'
p182
F1.93
sS'expt'
p183
F-3.64
sg15
(lp184
S'thiocarbamic acid ester'
p185
asS'expt_reference'
p186
S'10.1021/jp806724u'
p187
sg20
S' pebulate'
p188
sS'calc_reference'
p189
S'10.1021/jp806838b'
p190
ssS'mobley_4291494'
p191
(dp192
g3
S'c1ccnc(c1)Cl'
p193
sg27
F-3.36
sg28
F0.02
sg7
(lp194
g30
asg31
S'2-chloropyridine'
p195
sg12
I7977
sg13
F0.6
sg33
F-4.39
sg15
(lp196
S'aryl chloride'
p197
aS'aromatic'
p198
aS'heterocyclic'
p199
asg38
g39
sg20
S' 2-chloropyridine'
p200
sg41
g42
ssS'mobley_2364370'
p201
(dp202
g3
S'CCCCOC(=O)C'
p203
sg27
F-3.17
sg28
F0.02
sg7
(lp204
g30
asg31
S'butyl acetate'
p205
sg12
I31272
sg13
F0.6
sg33
F-2.64
sg15
(lp206
S'carboxylic acid ester'
p207
asg38
g39
sg20
S' butyl acetate'
p208
sg41
g42
ssS'mobley_1893815'
p209
(dp210
g3
S'C(C(Cl)(Cl)Cl)Cl'
p211
sS'calc'
p212
F-0.11
sS'd_calc'
p213
F0.02
sg7
(lp214
g30
asS'iupac'
p215
S'1,1,1,2-tetrachloroethane'
p216
sg12
I12418
sS'd_expt'
p217
F0.1
sS'expt'
p218
F-1.43
sg15
(lp219
S'alkyl chloride'
p220
asS'expt_reference'
p221
S'10.1007/s10822-012-9568-8'
p222
sg20
S' 1,1,1,2-tetrachloroethane'
p223
sS'calc_reference'
p224
S'10.1007/s10822-011-9528-8'
p225
ssS'mobley_5200358'
p226
(dp227
g3
S'CC(C)(/C=N\\OC(=O)NC)SC'
p228
sg177
F-10.27
sg178
F0.05
sg7
(lp229
S'Renamed mobley_5200358 from aldicarb to [(Z)-(2-methyl-2-methylsulfanyl-propylidene)amino] N-methylcarbamate (the name from the 3D structure) since the former did not completely specify stereochemistry.\n'
p230
asg180
S'aldicarb'
p231
sg12
I9570071
sg182
F0.1
sg183
F-9.84
sg15
(lp232
S'thioether'
p233
aS'carbamic acid'
p234
asg186
g187
sg20
S' aldicarb'
p235
sg189
g190
ssS'mobley_9246215'
p236
(dp237
g3
S'C=CCC=C'
p238
sg27
F2.18
sg28
F0.02
sg7
(lp239
g30
asg31
S'penta-1,4-diene'
p240
sg12
I11587
sg13
F0.6
sg33
F0.93
sg15
(lp241
S'alkene'
p242
asg38
g39
sg20
S' penta-1,4-diene'
p243
sg41
g42
ssS'mobley_5110043'
p244
(dp245
g3
S'Cc1ccc2cc(ccc2c1)C'
p246
sg27
F-2.65
sg28
F0.03
sg7
(lp247
g30
asg31
S'2,6-dimethylnaphthalene'
p248
sg12
I11387
sg13
F0.6
sg33
F-2.63
sg15
(lp249
S'aromatic'
p250
asg38
g39
sg20
S' 2,6-dimethylnaphthalene'
p251
sg41
g42
ssS'mobley_6190089'
p252
(dp253
g3
S'C(C(Cl)Cl)(Cl)Cl'
p254
sg212
F-0.53
sg213
F0.02
sg7
(lp255
g30
asg215
S'1,1,2,2-tetrachloroethane'
p256
sg12
I6591
sg217
F0.1
sg218
F-2.37
sg15
(lp257
S'alkyl chloride'
p258
asg221
g222
sg20
S' 1,1,2,2-tetrachloroethane'
p259
sg224
g225
ssS'mobley_6266306'
p260
(dp261
g3
S'C1CNC1'
p262
sg27
F-3.41
sg28
F0.02
sg7
(lp263
g30
asg31
S'azetidine'
p264
sg12
I10422
sg13
F0.6
sg33
F-5.56
sg15
(lp265
S'secondary amine'
p266
aS'secondary aliphatic amine (dialkylamine)'
p267
aS'heterocyclic'
p268
asg38
g39
sg20
S' azetidine'
p269
sg41
g42
ssS'mobley_4219614'
p270
(dp271
g3
S'c1cc(c(c(c1Cl)Cl)Cl)Cl'
p272
sg27
F-0.32
sg28
F0.02
sg7
(lp273
g30
asg31
S'1,2,3,4-tetrachlorobenzene'
p274
sg12
I12463
sg13
F0.6
sg33
F-1.34
sg15
(lp275
S'aryl chloride'
p276
aS'aromatic'
p277
asg38
g39
sg20
S' 1,2,3,4-tetrachlorobenzene'
p278
sg41
g42
ssS'mobley_9246351'
p279
(dp280
g3
S'C(Br)Br'
p281
sg27
F0.87
sg28
F0.02
sg7
(lp282
g30
asg31
S'dibromomethane'
p283
sg12
I3024
sg13
F0.6
sg33
F-1.96
sg15
(lp284
S'alkyl bromide'
p285
asg38
g39
sg20
S' dibromomethane'
p286
sg41
g42
ssS'mobley_8011706'
p287
(dp288
g3
S'CN(C)C=O'
p289
sg27
F-6.86
sg28
F0.03
sg7
(lp290
g30
asg31
S'N,N-dimethylformamide'
p291
sg12
I6228
sg13
F0.6
sg33
F-7.81
sg15
(lp292
S'tertiary carboxylic acid amide'
p293
asg38
g39
sg20
S' N,N-dimethylformamide'
p294
sg41
g42
ssS'mobley_2577969'
p295
(dp296
g3
S'c1cc2ccc3cccc4c3c2c(c1)cc4'
p297
sg27
F-6.62
sg28
F0.03
sg7
(lp298
g30
asg31
S'pyrene'
p299
sg12
I31423
sg13
F0.6
sg33
F-4.52
sg15
(lp300
S'aromatic'
p301
asg38
g39
sg20
S' pyrene'
p302
sg41
g42
ssS'mobley_9942801'
p303
(dp304
g3
S'CCc1ccc(cc1)C'
p305
sg27
F-0.05
sg28
F0.02
sg7
(lp306
g30
asg31
S'1-ethyl-4-methyl-benzene'
p307
sg12
I12160
sg13
F0.6
sg33
F-0.95
sg15
(lp308
S'aromatic'
p309
asg38
g39
sg20
S' 1-ethyl-4-methyl-benzene'
p310
sg41
g42
ssS'mobley_7578802'
p311
(dp312
g3
S'C(Br)(Br)Br'
p313
sg27
F0.88
sg28
F0.02
sg7
(lp314
g30
asg31
S'bromoform'
p315
sg12
I5558
sg13
F0.6
sg33
F-2.13
sg15
(lp316
S'halogen derivative'
p317
asg38
g39
sg20
S' bromoform'
p318
sg41
g42
ssS'mobley_8861672'
p319
(dp320
g3
S'Cc1ccnc(c1)C'
p321
sg27
F-3.18
sg28
F0.02
sg7
(lp322
g30
asg31
S'2,4-dimethylpyridine'
p323
sg12
I7936
sg13
F0.6
sg33
F-4.86
sg15
(lp324
S'aromatic'
p325
aS'heterocyclic'
p326
asg38
g39
sg20
S' 2,4-dimethylpyridine'
p327
sg41
g42
ssS'mobley_194273'
p328
(dp329
g3
S'CC[C@H](C)n1c(=O)c(c([nH]c1=O)C)Br'
p330
sg177
F-13.74
sg178
F0.04
sg7
(lp331
S'Renamed mobley_194273 from bromacil to 5-bromo-6-methyl-3-[(1S)-1-methylpropyl]-1H-pyrimidine-2,4-dione (the name from the 3D structure) since the former did not completely specify stereochemistry.\n'
p332
asg180
S'bromacil'
p333
sg12
I9411
sg182
F1.93
sg183
F-9.73
sg15
(lp334
S'aryl bromide'
p335
aS'oxo(het)arene'
p336
aS'aromatic'
p337
aS'heterocyclic'
p338
asg186
g187
sg20
S' bromacil'
p339
sg189
g190
ssS'mobley_1244778'
p340
(dp341
g3
S'C1CCCC(CC1)O'
p342
sg27
F-4.15
sg28
F0.05
sg7
(lp343
g30
asg31
S'cycloheptanol'
p344
sg12
I10399
sg13
F0.6
sg33
F-5.48
sg15
(lp345
S'secondary alcohol'
p346
asg38
g39
sg20
S' cycloheptanol'
p347
sg41
g42
ssS'mobley_468867'
p348
(dp349
g3
S'C1=C[C@@H]([C@@H]2[C@H]1[C@@]3(C(=C([C@]2(C3(Cl)Cl)Cl)Cl)Cl)Cl)Cl'
p350
sg177
F-0.98
sg178
F0.03
sg7
(lp351
g30
asg180
S'heptachlor'
p352
sg12
I3589
sg182
F0.1
sg183
F-2.55
sg15
(lp353
S'alkyl chloride'
p354
aS'alkene'
p355
asg186
g187
sg20
S' heptachlor'
p356
sg189
g190
ssS'mobley_8827942'
p357
(dp358
g3
S'c1ccc2c(c1)Oc3c(cc(c(c3O2)Cl)Cl)Cl'
p359
sg212
F-3.29
sg213
F0.03
sg7
(lp360
g30
asg215
S'1,2,4-trichlorodibenzo-p-dioxin'
p361
sg12
I38253
sg217
F0.1
sg218
F-4.05
sg15
(lp362
S'diaryl ether'
p363
aS'aryl chloride'
p364
aS'aromatic'
p365
aS'heterocyclic'
p366
asg221
g222
sg20
S' 1,2,4-trichlorodibenzo-p-dioxin'
p367
sg224
g225
ssS'mobley_3738859'
p368
(dp369
g3
S'CCCCCBr'
p370
sg5
F1.5
sg6
F0.1
sg7
(lp371
g9
asg10
S'1-bromo-pentane'
p372
sg12
I8057
sg13
F0.2
sg14
F-0.1
sg15
(lp373
S'alkyl bromide'
p374
asg18
g19
sg20
S' 1-bromo-pentane'
p375
sg22
g23
ssS'mobley_8427539'
p376
(dp377
g3
S'CCC(=O)N'
p378
sg5
F-9.3
sg6
F0.1
sg7
(lp379
g9
asg10
S'propionamide'
p380
sg12
I6578
sg13
F0.2
sg14
F-9.4
sg15
(lp381
S'primary carboxylic acid amide'
p382
asg18
g19
sg20
S' propionamide'
p383
sg22
g23
ssS'mobley_1107178'
p384
(dp385
g3
S'CCI'
p386
sg27
F-0.1
sg28
F0.02
sg7
(lp387
g30
asg31
S'iodoethane'
p388
sg12
I6340
sg13
F0.6
sg33
F-0.74
sg15
(lp389
S'alkyl iodide'
p390
asg38
g39
sg20
S' iodoethane'
p391
sg41
g42
ssS'mobley_2789243'
p392
(dp393
g3
S'c1cc(cnc1)Cl'
p394
sg27
F-2.5
sg28
F0.02
sg7
(lp395
g30
asg31
S'3-chloropyridine'
p396
sg12
I12287
sg13
F0.6
sg33
F-4.01
sg15
(lp397
S'aryl chloride'
p398
aS'aromatic'
p399
aS'heterocyclic'
p400
asg38
g39
sg20
S' 3-chloropyridine'
p401
sg41
g42
ssS'mobley_2008055'
p402
(dp403
g3
S'CC'
p404
sg27
F2.58
sg28
F0.01
sg7
(lp405
g30
asg31
S'ethane'
p406
sg12
I6324
sg13
F0.6
sg33
F1.83
sg15
(lp407
g68
asg38
g39
sg20
S' ethane'
p408
sg41
g42
ssS'mobley_1873346'
p409
(dp410
g3
S'Cc1ccccc1'
p411
sg5
F-0.7
sg6
F0.1
sg7
(lp412
g9
asg10
S'toluene'
p413
sg12
I1140
sg13
F0.2
sg14
F-0.9
sg15
(lp414
S'aromatic'
p415
asg18
g19
sg20
S' toluene'
p416
sg22
g23
ssS'mobley_7794077'
p417
(dp418
g3
S'c1c(c(=O)[nH]c(=O)[nH]1)C(F)(F)F'
p419
sS'calc'
p420
F-17.17
sS'd_calc'
p421
F0.07
sg7
(lp422
g30
asS'iupac'
p423
S'5-trifluoromethyluracil'
p424
sg12
I5899
sS'd_expt'
p425
F0.16
sS'expt'
p426
F-15.46
sg15
(lp427
S'halogen derivative'
p428
aS'oxo(het)arene'
p429
aS'aromatic'
p430
aS'heterocyclic'
p431
asS'expt_reference'
p432
S'10.1007/s10822-010-9350-8'
p433
sg20
S' 5-trifluoromethyluracil'
p434
sS'calc_reference'
p435
S'10.1007/s10822-010-9343-7'
p436
ssS'mobley_1849020'
p437
(dp438
g3
S'CCOP(=S)(OCC)SCSc1ccc(cc1)Cl'
p439
sg177
F-8.34
sg178
F0.05
sg7
(lp440
g30
aS'Changed IUPAC name from carbophenothion to 4-chlorophenyl)sulfanylmethylsulfanyl-diethoxy-thioxo-$l^{5}-phosphane for better handling/standardization.'
p441
asg180
S'4-chlorophenyl)sulfanylmethylsulfanyl-diethoxy-thioxo-$l^{5}-phosphane'
p442
sg12
I13081
sg182
F0.83
sg183
F-6.5
sg15
(lp443
S'aryl chloride'
p444
aS'thiophosphoric acid ester'
p445
aS'aromatic'
p446
asg186
g187
sg20
S' carbophenothion'
p447
sg189
g190
ssS'mobley_8798016'
p448
(dp449
g3
S'c1cnccc1C=O'
p450
sg27
F-7.31
sg28
F0.03
sg7
(lp451
g30
asg31
S'pyridine-4-carbaldehyde'
p452
sg12
I13389
sg13
F0.6
sg33
F-7.0
sg15
(lp453
S'aldehyde'
p454
aS'aromatic'
p455
aS'heterocyclic'
p456
asg38
g39
sg20
S' pyridine-4-carbaldehyde'
p457
sg41
g42
ssS'mobley_5157661'
p458
(dp459
g3
S'CC(C)C'
p460
sg5
F2.7
sg6
F0.1
sg7
(lp461
g9
asg10
S'isobutane'
p462
sg12
I6360
sg13
F0.2
sg14
F2.3
sg15
(lp463
g68
asg18
g19
sg20
S' isobutane'
p464
sg22
g23
ssS'mobley_6201330'
p465
(dp466
g3
S'CCCOC(=O)c1ccc(cc1)O'
p467
sg420
F-9.34
sg421
F0.06
sg7
(lp468
g30
asg423
S'propyl paraben'
p469
sg12
I7175
sg425
F0.22
sg426
F-9.37
sg15
(lp470
S'phenol or hydroxyhetarene'
p471
aS'carboxylic acid ester'
p472
aS'aromatic'
p473
asg432
g433
sg20
S' propyl paraben'
p474
sg435
g436
ssS'mobley_4620651'
p475
(dp476
g3
S'COC(=O)C1CC1'
p477
sg27
F-4.49
sg28
F0.04
sg7
(lp478
g30
asg31
S'methyl cyclopropanecarboxylate'
p479
sg12
I76122
sg13
F0.6
sg33
F-4.1
sg15
(lp480
S'carboxylic acid ester'
p481
asg38
g39
sg20
S' methyl cyclopropanecarboxylate'
p482
sg41
g42
ssS'mobley_9717937'
p483
(dp484
g3
S'c1ccc(cc1)c2ccccc2Cl'
p485
sg212
F-2.42
sg213
F0.03
sg7
(lp486
g30
asg215
S'1-chloro-2-phenyl-benzene'
p487
sg12
I249266
sg217
F0.1
sg218
F-2.69
sg15
(lp488
S'aryl chloride'
p489
aS'aromatic'
p490
asg221
g222
sg20
S' 1-chloro-2-phenyl-benzene'
p491
sg224
g225
ssS'mobley_6861308'
p492
(dp493
g3
S'CN(C)C(=O)Nc1ccccc1'
p494
sg177
F-12.08
sg178
F0.04
sg7
(lp495
g30
asg180
S'fenuron'
p496
sg12
I7560
sg182
F1.93
sg183
F-9.13
sg15
(lp497
S'urea'
p498
aS'aromatic'
p499
asg186
g187
sg20
S' fenuron'
p500
sg189
g190
ssS'mobley_4630641'
p501
(dp502
g3
S'COCCOC'
p503
sg27
F-3.36
sg28
F0.02
sg7
(lp504
g30
asg31
S'1,2-dimethoxyethane'
p505
sg12
I8071
sg13
F0.6
sg33
F-4.84
sg15
(lp506
S'dialkyl ether'
p507
asg38
g39
sg20
S' 1,2-dimethoxyethane'
p508
sg41
g42
ssS'mobley_2636578'
p509
(dp510
g3
S'C(CO[N+](=O)[O-])CO[N+](=O)[O-]'
p511
sS'calc'
p512
F-5.53
sS'd_calc'
p513
F0.02
sg7
(lp514
g30
aS'IUPAC name and SMILES standardized in v0.2 to match PubChem.\n'
p515
asS'iupac'
p516
S'3-nitrooxypropyl nitrate'
p517
sg12
I96257
sS'd_expt'
p518
cnumpy.core.multiarray
scalar
p519
(cnumpy
dtype
p520
(S'f8'
p521
I0
I1
tp522
Rp523
(I3
S'<'
p524
NNNI-1
I-1
I0
tp525
bS'\xf6(\\\x8f\xc2\xf5\xd8?'
p526
tp527
Rp528
sS'expt'
p529
g519
(g523
S'333333\x13\xc0'
p530
tp531
Rp532
sg15
(lp533
S'anion'
p534
asS'expt_reference'
p535
S'SAMPL4_Guthrie'
p536
sg20
S' 3-nitrooxypropyl nitrate'
p537
sS'calc_reference'
p538
S'SAMPL4_Mobley'
p539
ssS'mobley_5571660'
p540
(dp541
g3
S'Cc1cccc(c1N)C'
p542
sg27
F-4.87
sg28
F0.03
sg7
(lp543
g30
asg31
S'2,6-dimethylaniline'
p544
sg12
I6896
sg13
F0.6
sg33
F-5.21
sg15
(lp545
S'primary amine'
p546
aS'primary aromatic amine'
p547
aS'aromatic'
p548
asg38
g39
sg20
S' 2,6-dimethylaniline'
p549
sg41
g42
ssS'mobley_7690440'
p550
(dp551
g3
S'CSSC'
p552
sg27
F1.48
sg28
F0.02
sg7
(lp553
g30
asg31
S'methyldisulfanylmethane'
p554
sg12
I12232
sg13
F0.6
sg33
F-1.83
sg15
(lp555
S'disulfide'
p556
asg38
g39
sg20
S' methyldisulfanylmethane'
p557
sg41
g42
ssS'mobley_7463799'
p558
(dp559
g3
S'c1ccc(cc1)CCCO'
p560
sg27
F-5.5
sg28
F0.03
sg7
(lp561
g30
asg31
S'3-phenylpropan-1-ol'
p562
sg12
I31234
sg13
F0.6
sg33
F-6.92
sg15
(lp563
S'primary alcohol'
p564
aS'aromatic'
p565
asg38
g39
sg20
S' 3-phenylpropan-1-ol'
p566
sg41
g42
ssS'mobley_4479135'
p567
(dp568
g3
S'C=C(c1ccccc1)c2ccccc2'
p569
sg512
F-3.92
sg513
F0.023
sg7
(lp570
g30
asg516
S'1,1-diphenylethene'
p571
sg12
I10740
sg518
g519
(g523
S'\x9a\x99\x99\x99\x99\x99\xb9?'
p572
tp573
Rp574
sg529
g519
(g523
S'=\n\xd7\xa3p=\x06\xc0'
p575
tp576
Rp577
sg15
(lp578
S'alkene'
p579
aS'aromatic'
p580
asg535
g536
sg20
S' 1,1-diphenylethene'
p581
sg538
g539
ssS'mobley_7176248'
p582
(dp583
g3
S'CCCN(CCC)c1c(cc(cc1[N+](=O)[O-])C(F)(F)F)[N+](=O)[O-]'
p584
sg177
F-2.58
sg178
F0.04
sg7
(lp585
g30
aS'Changed IUPAC name from trifluralin to 2,6-Dinitro-N,N-dipropyl-4-(trifluoromethyl)aniline for better handling/standardization.'
p586
asg180
S'trifluralin'
p587
sg12
I5569
sg182
F0.1
sg183
F-3.25
sg15
(lp588
S'tertiary amine'
p589
aS'tertiary aliphatic/aromatic amine (alkylarylamine)'
p590
aS'halogen derivative'
p591
aS'nitro'
p592
aS'aromatic'
p593
asg186
g187
sg20
S' trifluralin'
p594
sg189
g190
ssS'mobley_2295058'
p595
(dp596
g3
S'COC(=O)c1ccc(cc1)O'
p597
sg420
F-9.94
sg421
F0.05
sg7
(lp598
g30
asg423
S'methyl paraben'
p599
sg12
I7456
sg425
F0.26
sg426
F-9.51
sg15
(lp600
S'phenol or hydroxyhetarene'
p601
aS'carboxylic acid ester'
p602
aS'aromatic'
p603
asg432
g433
sg20
S' methyl paraben'
p604
sg435
g436
ssS'mobley_819018'
p605
(dp606
g3
S'CC(=CCC/C(=C/CO)/C)C'
p607
sg512
F-2.54
sg513
F0.021
sg7
(lp608
g30
aS'IUPAC name standardized in v0.2 to match PubChem.\n'
p609
asg516
S'(2E)-3,7-dimethylocta-2,6-dien-1-ol'
p610
sg12
I637566
sg518
g519
(g523
S'\xb8\x1e\x85\xebQ\xb8\xce?'
p611
tp612
Rp613
sg529
g519
(g523
S'\xcd\xcc\xcc\xcc\xcc\xcc\x11\xc0'
p614
tp615
Rp616
sg15
(lp617
S'primary alcohol'
p618
aS'alkene'
p619
asg535
g536
sg20
S' (2E)-3,7-dimethylocta-2,6-dien-1-ol'
p620
sg538
g539
ssS'mobley_1976156'
p621
(dp622
g3
S'CCCCCCCCC=O'
p623
sg27
F-2.51
sg28
F0.03
sg7
(lp624
g30
asg31
S'nonanal'
p625
sg12
I31289
sg13
F0.6
sg33
F-2.07
sg15
(lp626
S'aldehyde'
p627
asg38
g39
sg20
S' nonanal'
p628
sg41
g42
ssS'mobley_2197088'
p629
(dp630
g3
S'CCCCCCCCCC'
p631
sg27
F3.43
sg28
F0.03
sg7
(lp632
g30
asg31
S'decane'
p633
sg12
I15600
sg13
F0.6
sg33
F3.16
sg15
(lp634
g68
asg38
g39
sg20
S' decane'
p635
sg41
g42
ssS'mobley_627267'
p636
(dp637
g3
S'CC(C)CBr'
p638
sg27
F1.24
sg28
F0.02
sg7
(lp639
g30
asg31
S'1-bromo-2-methyl-propane'
p640
sg12
I6555
sg13
F0.6
sg33
F-0.03
sg15
(lp641
S'alkyl bromide'
p642
asg38
g39
sg20
S' 1-bromo-2-methyl-propane'
p643
sg41
g42
ssS'mobley_7415647'
p644
(dp645
g3
S'CN(C)C(=O)c1ccc(cc1)[N+](=O)[O-]'
p646
sg27
F-9.92
sg28
F0.04
sg7
(lp647
g30
asg31
S'N,N-dimethyl-4-nitro-benzamide'
p648
sg12
I138975
sg13
F0.6
sg33
F-11.95
sg15
(lp649
S'tertiary carboxylic acid amide'
p650
aS'nitro'
p651
aS'aromatic'
p652
asg38
S'10.1139/v92-210'
p653
sg20
S' N,N-dimethyl-4-nitro-benzamide'
p654
sg41
g42
ssS'mobley_6812653'
p655
(dp656
g3
S'CCCCCC'
p657
sg27
F3.05
sg28
F0.02
sg7
(lp658
g30
asg31
S'hexane'
p659
sg12
I8058
sg13
F0.6
sg33
F2.48
sg15
(lp660
g68
asg38
g39
sg20
S' hexane'
p661
sg41
g42
ssS'mobley_5052949'
p662
(dp663
g3
S'CCCSCCC'
p664
sg27
F0.49
sg28
F0.02
sg7
(lp665
g30
asg31
S'1-propylsulfanylpropane'
p666
sg12
I8118
sg13
F0.6
sg33
F-1.28
sg15
(lp667
S'thioether'
p668
asg38
g39
sg20
S' 1-propylsulfanylpropane'
p669
sg41
g42
ssS'mobley_3151666'
p670
(dp671
g3
S'CCCCCCCCCCO'
p672
sg27
F-2.49
sg28
F0.03
sg7
(lp673
g30
asg31
S'decan-1-ol'
p674
sg12
I8174
sg13
F0.6
sg33
F-3.64
sg15
(lp675
S'primary alcohol'
p676
asg38
g39
sg20
S' decan-1-ol'
p677
sg41
g42
ssS'mobley_1659169'
p678
(dp679
g3
S'C1COCCN1'
p680
sg27
F-6.28
sg28
F0.02
sg7
(lp681
g30
asg31
S'morpholine'
p682
sg12
I8083
sg13
F0.6
sg33
F-7.17
sg15
(lp683
S'dialkyl ether'
p684
aS'secondary amine'
p685
aS'secondary aliphatic amine (dialkylamine)'
p686
aS'heterocyclic'
p687
asg38
g39
sg20
S' morpholine'
p688
sg41
g42
ssS'mobley_9534740'
p689
(dp690
g3
S'C([C@@H]1[C@H]([C@@H]([C@H]([C@@H](O1)O)O)O)O)O'
p691
sg420
F-17.01
sg421
F0.09
sg7
(lp692
g30
aS'Changed IUPAC name from d-glucose to (2R,3R,4S,5S,6R)-6-(hydroxymethyl)tetrahydropyran-2,3,4,5-tetrol for better handling/standardization.'
p693
asg423
S'(2R,3R,4S,5S,6R)-6-(hydroxymethyl)tetrahydropyran-2,3,4,5-tetrol'
p694
sg12
I64689
sg425
F0.22
sg426
F-25.47
sg15
(lp695
S'hemiacetal'
p696
aS'primary alcohol'
p697
aS'secondary alcohol'
p698
aS'1,2-diol'
p699
aS'heterocyclic'
p700
asg432
g433
sg20
S' d-glucose'
p701
sg435
g436
ssS'mobley_994483'
p702
(dp703
g3
S'CCBr'
p704
sg27
F0.93
sg28
F0.02
sg7
(lp705
g30
asg31
S'bromoethane'
p706
sg12
I6332
sg13
F0.6
sg33
F-0.74
sg15
(lp707
S'alkyl bromide'
p708
asg38
g39
sg20
S' bromoethane'
p709
sg41
g42
ssS'mobley_1189457'
p710
(dp711
g3
S'CSc1ccccc1'
p712
sg27
F-1.21
sg28
F0.02
sg7
(lp713
g30
asg31
S'methylsulfanylbenzene'
p714
sg12
I7520
sg13
F0.6
sg33
F-2.73
sg15
(lp715
S'thioether'
p716
aS'aromatic'
p717
asg38
g39
sg20
S' methylsulfanylbenzene'
p718
sg41
g42
ssS'mobley_8260524'
p719
(dp720
g3
S'CC#C'
p721
sg27
F0.2
sg28
F0.01
sg7
(lp722
g30
asg31
S'prop-1-yne'
p723
sg12
I6335
sg13
F0.6
sg33
F-0.48
sg15
(lp724
S'alkyne'
p725
asg38
g39
sg20
S' prop-1-yne'
p726
sg41
g42
ssS'mobley_646007'
p727
(dp728
g3
S'C1CCNC1'
p729
sg27
F-3.91
sg28
F0.02
sg7
(lp730
g30
asg31
S'pyrrolidine'
p731
sg12
I31268
sg13
F0.6
sg33
F-5.48
sg15
(lp732
S'secondary amine'
p733
aS'secondary aliphatic amine (dialkylamine)'
p734
aS'heterocyclic'
p735
asg38
g39
sg20
S' pyrrolidine'
p736
sg41
g42
ssS'mobley_8436428'
p737
(dp738
g3
S'CC(C)CC(C)C'
p739
sg27
F2.89
sg28
F0.03
sg7
(lp740
g30
asg31
S'2,4-dimethylpentane'
p741
sg12
I7907
sg13
F0.6
sg33
F2.83
sg15
(lp742
g68
asg38
g39
sg20
S' 2,4-dimethylpentane'
p743
sg41
g42
ssS'mobley_6804509'
p744
(dp745
g3
S'c1c(c(cc(c1Cl)Cl)Cl)Cl'
p746
sg27
F0.25
sg28
F0.02
sg7
(lp747
g30
asg31
S'1,2,4,5-tetrachlorobenzene'
p748
sg12
I7270
sg13
F0.6
sg33
F-1.34
sg15
(lp749
S'aryl chloride'
p750
aS'aromatic'
p751
asg38
g39
sg20
S' 1,2,4,5-tetrachlorobenzene'
p752
sg41
g42
ssS'mobley_6843802'
p753
(dp754
g3
S'c1ccc(cc1)O[C@@H](C(F)F)F'
p755
sg27
F-2.93
sg28
F0.02
sg7
(lp756
S'Renamed mobley_6843802 from 1,2,2-trifluoroethoxybenzene to [(1R)-1,2,2-trifluoroethoxy]benzene (the name from the 3D structure) since the former did not completely specify stereochemistry.\n'
p757
asg31
S'1,2,2-trifluoroethoxybenzene'
p758
sg12
I21269179
sg13
F0.6
sg33
F-1.29
sg15
(lp759
S'alkyl fluoride'
p760
aS'aromatic'
p761
asg38
S'J. Lu, 1994, Ph.D. Thesis, University of Western Ontario'
p762
sg20
S' 1,2,2-trifluoroethoxybenzene'
p763
sg41
g42
ssS'mobley_1922649'
p764
(dp765
g3
S'COP(=S)(OC)Oc1ccc(cc1)[N+](=O)[O-]'
p766
sg177
F-9.87
sg178
F0.04
sg7
(lp767
g30
aS'Changed IUPAC name from methyparathion to methylparathion for better handling/standardization.'
p768
asg180
S'methylparathion'
p769
sg12
I4130
sg182
F0.1
sg183
F-7.19
sg15
(lp770
S'nitro'
p771
aS'thiophosphoric acid ester'
p772
aS'aromatic'
p773
asg186
g187
sg20
S' methylparathion'
p774
sg189
g190
ssS'mobley_632905'
p775
(dp776
g3
S'CC(=O)c1ccc(cc1)OC'
p777
sg27
F-6.29
sg28
F0.03
sg7
(lp778
g30
asg31
S'1-(4-methoxyphenyl)ethanone'
p779
sg12
I7476
sg13
F0.6
sg33
F-4.4
sg15
(lp780
S'ketone'
p781
aS'alkyl aryl ether'
p782
aS'aromatic'
p783
asg38
g39
sg20
S' 4-acetylanisole'
p784
sg41
g42
ssS'mobley_4039055'
p785
(dp786
g3
S'c1c(c(=O)[nH]c(=O)[nH]1)Br'
p787
sg420
F-16.61
sg421
F0.06
sg7
(lp788
g30
asg423
S'5-bromouracil'
p789
sg12
I5802
sg425
F0.55
sg426
F-18.17
sg15
(lp790
S'aryl bromide'
p791
aS'oxo(het)arene'
p792
aS'aromatic'
p793
aS'heterocyclic'
p794
asg432
g433
sg20
S' 5-bromouracil'
p795
sg435
g436
ssS'mobley_4934872'
p796
(dp797
g3
S'CCOC(OCC)Oc1ccccc1'
p798
sg27
F-4.44
sg28
F0.04
sg7
(lp799
g30
asg31
S'diethoxymethoxybenzene'
p800
sg12
I84440
sg13
F0.6
sg33
F-5.23
sg15
(lp801
S'orthocarboxylic acid derivative'
p802
aS'orthoester'
p803
aS'aromatic'
p804
asg38
S'J. Peter Guthrie, unpublished data, as provided to D. Mobley 2007/2008, and as cited in 10.1021/jp0764384'
p805
sg20
S' diethoxymethoxybenzene'
p806
sg41
g42
ssS'mobley_4683624'
p807
(dp808
g3
S'CCCc1ccc(cc1)O'
p809
sg27
F-5.5
sg28
F0.02
sg7
(lp810
g30
aS'Experimental value updated 10/22/13 as the average of -5.90 and -4.52, which are measured experimental values from Varhanickova, D., Shiu, W., Mackay, D., J. Chem. Eng. Data 1995, 40, 448-451 and Terres, E., Gebert, F., Hulsemann, H., Petereit, H., Toepsch, H., Ruppert, W., Brennstoff-Chemie 1955, 36, 272-274., respectively. The uncertainty was taken as the standard deviation across these two measurements.\n'
p811
asg31
S'4-propylphenol'
p812
sg12
I12580
sg13
F0.69
sg33
g519
(g523
S'\xd7\xa3p=\n\xd7\x14\xc0'
p813
tp814
Rp815
sg15
(lp816
S'phenol or hydroxyhetarene'
p817
aS'aromatic'
p818
asg38
S'10.1021/je00018a020 and Terres, E., Gebert, F., Hulsemann, H., Petereit, H., Toepsch, H., Ruppert, W., Brennstoff-Chemie 1955, 36, 272-274'
p819
sg20
S' 4-propylphenol'
p820
sg41
g42
ssS'mobley_6619554'
p821
(dp822
g3
S'CCCCC(=O)OCC'
p823
sg27
F-3.09
sg28
F0.03
sg7
(lp824
g30
asg31
S'ethyl pentanoate'
p825
sg12
I10882
sg13
F0.6
sg33
F-2.49
sg15
(lp826
S'carboxylic acid ester'
p827
asg38
g39
sg20
S' ethyl pentanoate'
p828
sg41
g42
ssS'mobley_3034976'
p829
(dp830
g3
S'CC(=O)O'
p831
sg27
F-5.95
sg28
F0.02
sg7
(lp832
g30
asg31
S'acetic acid'
p833
sg12
I176
sg13
F0.6
sg33
F-6.69
sg15
(lp834
S'carboxylic acid'
p835
asg38
g39
sg20
S' acetic acid'
p836
sg41
g42
ssS'mobley_8426916'
p837
(dp838
g3
S'CCNCC'
p839
sg27
F-2.72
sg28
F0.02
sg7
(lp840
g30
asg31
S'N-ethylethanamine'
p841
sg12
I8021
sg13
F0.6
sg33
F-4.07
sg15
(lp842
S'secondary amine'
p843
aS'secondary aliphatic amine (dialkylamine)'
p844
asg38
g39
sg20
S' N-ethylethanamine'
p845
sg41
g42
ssS'mobley_550662'
p846
(dp847
g3
S'CC(OC)(OC)OC'
p848
sg27
F-3.89
sg28
F0.02
sg7
(lp849
g30
asg31
S'1,1,1-trimethoxyethane'
p850
sg12
I15050
sg13
F0.6
sg33
F-4.42
sg15
(lp851
S'orthocarboxylic acid derivative'
p852
aS'orthoester'
p853
asg38
S'10.1021/ja00802a021'
p854
sg20
S' 1,1,1-trimethoxyethane'
p855
sg41
g42
ssS'mobley_755351'
p856
(dp857
g3
S'COc1cccc(c1)N'
p858
sg27
F-7.45
sg28
F0.03
sg7
(lp859
g30
asg31
S'3-methoxyaniline'
p860
sg12
I10824
sg13
F0.6
sg33
F-7.29
sg15
(lp861
S'alkyl aryl ether'
p862
aS'primary amine'
p863
aS'primary aromatic amine'
p864
aS'aromatic'
p865
asg38
g39
sg20
S' 3-methoxyaniline'
p866
sg41
g42
ssS'mobley_2751110'
p867
(dp868
g3
S'c1cc(ccc1[N+](=O)[O-])O'
p869
sg27
F-8.22
sg28
F0.02
sg7
(lp870
g30
asg31
S'4-nitrophenol'
p871
sg12
I980
sg13
F0.6
sg33
F-10.64
sg15
(lp872
S'phenol or hydroxyhetarene'
p873
aS'nitro'
p874
aS'aromatic'
p875
asg38
g39
sg20
S' 4-nitrophenol'
p876
sg41
g42
ssS'mobley_5977084'
p877
(dp878
g3
S'Cc1cccnc1'
p879
sg27
F-3.19
sg28
F0.02
sg7
(lp880
g30
asg31
S'3-methylpyridine'
p881
sg12
I7970
sg13
F0.6
sg33
F-4.77
sg15
(lp882
S'aromatic'
p883
aS'heterocyclic'
p884
asg38
g39
sg20
S' 3-methylpyridine'
p885
sg41
g42
ssS'mobley_5816127'
p886
(dp887
g3
S'COCCO'
p888
sg27
F-5.37
sg28
F0.03
sg7
(lp889
g30
aS'Updated 10/22/13 using the mean of experimental data from two sources listed as experimental references.\n'
p890
asg31
S'2-methoxyethanol'
p891
sg12
I8019
sg13
F0.4
sg33
g519
(g523
S'z\x14\xaeG\xe1z\x1a\xc0'
p892
tp893
Rp894
sg15
(lp895
S'primary alcohol'
p896
aS'dialkyl ether'
p897
asg38
S'10.1007/BF00646936 and 10.1136/oem.45.8.561'
p898
sg20
S' 2-methoxyethanol'
p899
sg41
g42
ssS'mobley_6257907'
p900
(dp901
g3
S'c1cc(cc(c1)Cl)N'
p902
sg27
F-5.37
sg28
F0.02
sg7
(lp903
g30
asg31
S'3-chloroaniline'
p904
sg12
I7932
sg13
F0.6
sg33
F-5.82
sg15
(lp905
S'primary amine'
p906
aS'primary aromatic amine'
p907
aS'aryl chloride'
p908
aS'aromatic'
p909
asg38
g39
sg20
S' 3-chloroaniline'
p910
sg41
g42
ssS'mobley_1963873'
p911
(dp912
g3
S'CC(=O)NC'
p913
sg27
F-8.39
sg28
F0.03
sg7
(lp914
g30
asg31
S'N-methylacetamide'
p915
sg12
I6582
sg13
F0.6
sg33
F-10.0
sg15
(lp916
S'secondary carboxylic acid amide'
p917
asg38
g39
sg20
S' N-methylacetamide'
p918
sg41
g42
ssS'mobley_7015518'
p919
(dp920
g3
S'COC'
p921
sg27
F-0.85
sg28
F0.02
sg7
(lp922
g30
asg31
S'methoxymethane'
p923
sg12
I8254
sg13
F0.6
sg33
F-1.91
sg15
(lp924
S'dialkyl ether'
p925
asg38
g39
sg20
S' methoxymethane'
p926
sg41
g42
ssS'mobley_6195751'
p927
(dp928
g3
S'COc1c(c(c(c(c1Cl)C=O)Cl)OC)O'
p929
sg512
F-9.94
sg513
F0.024
sg7
(lp930
g30
asg516
S'2,6-dichlorosyringaldehyde'
p931
sg12
I53476
sg518
g519
(g523
S'R\xb8\x1e\x85\xebQ\xe8?'
p932
tp933
Rp934
sg529
F-8.68
sg15
(lp935
S'aldehyde'
p936
aS'phenol or hydroxyhetarene'
p937
aS'alkyl aryl ether'
p938
aS'aryl chloride'
p939
aS'aromatic'
p940
asg535
g536
sg20
S' 2,6-dichlorosyringaldehyde'
p941
sg538
g539
ssS'mobley_5390332'
p942
(dp943
g3
S'CCCC(=O)OC'
p944
sg27
F-3.32
sg28
F0.02
sg7
(lp945
g30
asg31
S'methyl butanoate'
p946
sg12
I12180
sg13
F0.6
sg33
F-2.83
sg15
(lp947
S'carboxylic acid ester'
p948
asg38
g39
sg20
S' methyl butanoate'
p949
sg41
g42
ssS'mobley_1017962'
p950
(dp951
g3
S'CCCCCC(=O)OC'
p952
sg27
F-3.02
sg28
F0.03
sg7
(lp953
g30
asg31
S'methyl hexanoate'
p954
sg12
I7824
sg13
F0.6
sg33
F-2.49
sg15
(lp955
S'carboxylic acid ester'
p956
asg38
g39
sg20
S' methyl hexanoate'
p957
sg41
g42
ssS'mobley_5538249'
p958
(dp959
g3
S'c1ccc(cc1)c2c(cc(cc2Cl)Cl)Cl'
p960
sg212
F-1.14
sg213
F0.03
sg7
(lp961
g30
asg215
S'1,3,5-trichloro-2-phenyl-benzene'
p962
sg12
I37247
sg217
F0.1
sg218
F-2.16
sg15
(lp963
S'aryl chloride'
p964
aS'aromatic'
p965
asg221
g222
sg20
S' 1,3,5-trichloro-2-phenyl-benzene'
p966
sg224
g225
ssS'mobley_9741965'
p967
(dp968
g3
S'C[C@@H](CCON([O-])[O-])ON([O-])[O-]'
p969
sg512
F-5.35
sg513
F0.021
sg7
(lp970
g30
asg516
S'1,3-bis-(nitrooxy)butane'
p971
sg12
I138747
sg518
g519
(g523
S'\xf6(\\\x8f\xc2\xf5\xd8?'
p972
tp973
Rp974
sg529
g519
(g523
S')\\\x8f\xc2\xf5(\x11\xc0'
p975
tp976
Rp977
sg15
(lp978
S'anion'
p979
asg535
g536
sg20
S' 1,3-bis-(nitrooxy)butane'
p980
sg538
g539
ssS'mobley_5616693'
p981
(dp982
g3
S'C[C@@H]1CC[C@H](C(=O)C1)C(C)C'
p983
sg512
F-3.42
sg513
F0.021
sg7
(lp984
g30
asg516
S'(2S,5R)-2-isopropyl-5-methylcyclohexanone'
p985
sg12
I26447
sg518
F0.25
sg529
F-2.53
sg15
(lp986
S'ketone'
p987
asg535
g536
sg20
S' i-menthone'
p988
sg538
g539
ssS'mobley_9114381'
p989
(dp990
g3
S'COC(=O)CC#N'
p991
sg27
F-6.34
sg28
F0.02
sg7
(lp992
g30
asg31
S'methyl 2-cyanoacetate'
p993
sg12
I7747
sg13
F0.6
sg33
F-6.72
sg15
(lp994
S'carboxylic acid ester'
p995
aS'carbonitrile'
p996
asg38
g51
sg20
S' methyl 2-cyanoacetate'
p997
sg41
g42
ssS'mobley_9209581'
p998
(dp999
g3
S'CN(C)C'
p1000
sg27
F-2.32
sg28
F0.02
sg7
(lp1001
g30
asg31
S'N,N-dimethylmethanamine'
p1002
sg12
I1146
sg13
F0.6
sg33
F-3.2
sg15
(lp1003
S'tertiary amine'
p1004
aS'tertiary aliphatic amine (trialkylamine)'
p1005
asg38
g39
sg20
S' N,N-dimethylmethanamine'
p1006
sg41
g42
ssS'mobley_52782'
p1007
(dp1008
g3
S'C(CO[N+](=O)[O-])O[N+](=O)[O-]'
p1009
sg177
F-5.97
sg178
F0.02
sg7
(lp1010
g30
aS'Changed IUPAC name from nitroglycol to 1,2-dinitroxyethane for better handling/standardization.'
p1011
asg180
S'1,2-dinitroxyethane'
p1012
sg12
I40818
sg182
F0.1
sg183
F-5.73
sg15
(lp1013
S'nitrate'
p1014
asg186
g187
sg20
S' 1,2-dinitroxyethane'
p1015
sg189
g190
ssS'mobley_3515580'
p1016
(dp1017
g3
S'COc1ccccc1O'
p1018
sg512
F-4.62
sg513
F0.018
sg7
(lp1019
g30
asg516
S'2-methoxyphenol'
p1020
sg12
I460
sg518
g519
(g523
S'\x9a\x99\x99\x99\x99\x99\xb9?'
p1021
tp1022
Rp1023
sg529
g519
(g523
S'\xc3\xf5(\\\x8f\xc2\x17\xc0'
p1024
tp1025
Rp1026
sg15
(lp1027
S'phenol or hydroxyhetarene'
p1028
aS'alkyl aryl ether'
p1029
aS'aromatic'
p1030
asg535
g536
sg20
S' 2-methoxyphenol'
p1031
sg538
g539
ssS'mobley_1571523'
p1032
(dp1033
g3
S'Cc1cccc(c1C)O'
p1034
sg27
F-4.67
sg28
F0.03
sg7
(lp1035
g30
asg31
S'2,3-dimethylphenol'
p1036
sg12
I10687
sg13
F0.6
sg33
F-6.16
sg15
(lp1037
S'phenol or hydroxyhetarene'
p1038
aS'aromatic'
p1039
asg38
g39
sg20
S' 2,3-dimethylphenol'
p1040
sg41
g42
ssS'mobley_2023925'
p1041
(dp1042
g3
S'[C@@H](C(F)(F)F)(OC(F)F)Cl'
p1043
sg27
F-1.38
sg28
F0.02
sg7
(lp1044
S'Renamed mobley_2023925 from 2-chloro-2-(difluoromethoxy)-1,1,1-trifluoro-ethane to (2R)-2-chloro-2-(difluoromethoxy)-1,1,1-trifluoro-ethane (the name from the 3D structure) since the former did not completely specify stereochemistry.\n'
p1045
asg31
S'2-chloro-2-(difluoromethoxy)-1,1,1-trifluoro-ethane'
p1046
sg12
I11095291
sg13
F0.6
sg33
F0.1
sg15
(lp1047
S'alkyl chloride'
p1048
aS'orthocarboxylic acid derivative'
p1049
asg38
g39
sg20
S' isoflurane'
p1050
sg41
g42
ssS'mobley_8785107'
p1051
(dp1052
g3
S'C[C@H]1CC[C@@H](O1)C'
p1053
sg27
F-1.89
sg28
F0.02
sg7
(lp1054
S'Renamed mobley_8785107 from 2,5-dimethyltetrahydrofuran to (2S,5S)-2,5-dimethyltetrahydrofuran (the name from the 3D structure) since the former did not completely specify stereochemistry.\n'
p1055
asg31
S'2,5-dimethyltetrahydrofuran'
p1056
sg12
I13855
sg13
F0.6
sg33
F-2.92
sg15
(lp1057
S'dialkyl ether'
p1058
aS'heterocyclic'
p1059
asg38
g39
sg20
S' 2,5-dimethyltetrahydrofuran'
p1060
sg41
g42
ssS'mobley_2881590'
p1061
(dp1062
g3
S'CC(C)CO[N+](=O)[O-]'
p1063
sg177
F-1.72
sg178
F0.03
sg7
(lp1064
g30
asg180
S'isobutyl nitrate'
p1065
sg12
I10974
sg182
F0.1
sg183
F-1.88
sg15
(lp1066
S'nitrate'
p1067
asg186
g187
sg20
S' isobutyl nitrate'
p1068
sg189
g190
ssS'mobley_313406'
p1069
(dp1070
g3
S'CCCO'
p1071
sg27
F-3.12
sg28
F0.02
sg7
(lp1072
g30
asg31
S'propan-1-ol'
p1073
sg12
I1031
sg13
F0.6
sg33
F-4.85
sg15
(lp1074
S'primary alcohol'
p1075
asg38
g39
sg20
S' propan-1-ol'
p1076
sg41
g42
ssS'mobley_3274817'
p1077
(dp1078
g3
S'CC[C@@H](C)c1cc(cc(c1O)[N+](=O)[O-])[N+](=O)[O-]'
p1079
sg177
F-5.76
sg178
F0.04
sg7
(lp1080
g30
aS'Changed IUPAC name from dinoseb to 2-[(1R)-1-methylpropyl]-4,6-dinitro-phenolate for better handling/standardization.'
p1081
asg180
S'2-[(1R)-1-methylpropyl]-4,6-dinitro-phenolate'
p1082
sg12
I688400
sg182
F1.93
sg183
F-6.23
sg15
(lp1083
S'phenol or hydroxyhetarene'
p1084
aS'nitro'
p1085
aS'aromatic'
p1086
asg186
g187
sg20
S' dinoseb'
p1087
sg189
g190
ssS'mobley_9979854'
p1088
(dp1089
g3
S'C[C@H](C(F)(F)F)O'
p1090
sg5
F-3.8
sg6
F0.1
sg7
(lp1091
S'Renamed mobley_9979854 from 1,1,1-trifluoropropan-2-ol to (2R)-1,1,1-trifluoropropan-2-ol (the name from the 3D structure) since the former did not completely specify stereochemistry.\n'
p1092
asg10
S'111-trifluoropropan-2-ol'
p1093
sg12
I6993809
sg13
F0.2
sg14
F-4.2
sg15
(lp1094
S'secondary alcohol'
p1095
aS'halogen derivative'
p1096
asg18
g19
sg20
S' 111-trifluoropropan-2-ol'
p1097
sg22
g23
ssS'mobley_2126135'
p1098
(dp1099
g3
S'CCc1ccccc1O'
p1100
sg512
F-4.7
sg513
F0.019
sg7
(lp1101
g30
asg516
S'2-ethylphenol'
p1102
sg12
I6997
sg518
g519
(g523
S'\x9a\x99\x99\x99\x99\x99\xb9?'
p1103
tp1104
Rp1105
sg529
g519
(g523
S'\xa4p=\n\xd7\xa3\x16\xc0'
p1106
tp1107
Rp1108
sg15
(lp1109
S'phenol or hydroxyhetarene'
p1110
aS'aromatic'
p1111
asg535
g536
sg20
S' 2-ethylphenol'
p1112
sg538
g539
ssS'mobley_6743808'
p1113
(dp1114
g3
S'Cc1ccc(cc1C)O'
p1115
sg27
F-5.33
sg28
F0.03
sg7
(lp1116
g30
asg31
S'3,4-dimethylphenol'
p1117
sg12
I7249
sg13
F0.6
sg33
F-6.5
sg15
(lp1118
S'phenol or hydroxyhetarene'
p1119
aS'aromatic'
p1120
asg38
g39
sg20
S' 3,4-dimethylphenol'
p1121
sg41
g42
ssS'mobley_2493732'
p1122
(dp1123
g3
S'C=C(Cl)Cl'
p1124
sg27
F1.24
sg28
F0.02
sg7
(lp1125
g30
asg31
S'1,1-dichloroethylene'
p1126
sg12
I6366
sg13
F0.6
sg33
F0.25
sg15
(lp1127
S'ketene acetal or derivative'
p1128
aS'halogen derivative'
p1129
asg38
g39
sg20
S' 1,1-dichloroethylene'
p1130
sg41
g42
ssS'mobley_9407874'
p1131
(dp1132
g3
S'CCCCCCC(=O)C'
p1133
sg27
F-2.3
sg28
F0.03
sg7
(lp1134
g30
asg31
S'octan-2-one'
p1135
sg12
I8093
sg13
F0.6
sg33
F-2.88
sg15
(lp1136
S'ketone'
p1137
asg38
g39
sg20
S' octan-2-one'
p1138
sg41
g42
ssS'mobley_7142697'
p1139
(dp1140
g3
S'CCCCCN'
p1141
sg27
F-2.99
sg28
F0.02
sg7
(lp1142
g30
asg31
S'pentan-1-amine'
p1143
sg12
I8060
sg13
F0.6
sg33
F-4.09
sg15
(lp1144
S'primary amine'
p1145
aS'primary aliphatic amine (alkylamine)'
p1146
asg38
g39
sg20
S' pentan-1-amine'
p1147
sg41
g42
ssS'mobley_8311303'
p1148
(dp1149
g3
S'c1cc(c(cc1c2c(c(cc(c2Cl)Cl)Cl)Cl)Cl)Cl'
p1150
sg212
F-0.7
sg213
F0.04
sg7
(lp1151
g30
asg215
S'1,2,4,5-tetrachloro-3-(3,4-dichlorophenyl)benzene'
p1152
sg12
I63079
sg217
F0.22
sg218
F-4.38
sg15
(lp1153
S'aryl chloride'
p1154
aS'aromatic'
p1155
asg221
g222
sg20
S" 2,3,3',4',5,6-Hexachlorobiphenyl"
p1156
sg224
g225
ssS'mobley_49274'
p1157
(dp1158
g3
S'CCCCCC#C'
p1159
sg27
F0.84
sg28
F0.02
sg7
(lp1160
g30
asg31
S'hept-1-yne'
p1161
sg12
I12350
sg13
F0.6
sg33
F0.6
sg15
(lp1162
S'alkyne'
p1163
asg38
g39
sg20
S' hept-1-yne'
p1164
sg41
g42
ssS'mobley_4694328'
p1165
(dp1166
g3
S'CCCCCCCC=O'
p1167
sg27
F-2.57
sg28
F0.03
sg7
(lp1168
g30
asg31
S'octanal'
p1169
sg12
I454
sg13
F0.6
sg33
F-2.29
sg15
(lp1170
S'aldehyde'
p1171
asg38
g39
sg20
S' octanal'
p1172
sg41
g42
ssS'mobley_7913234'
p1173
(dp1174
g3
S'CCCCOC[C@H](C)O'
p1175
sg512
F-3.78
sg513
F0.023
sg7
(lp1176
S'Renamed mobley_7913234 from 1-butoxy-2-propanol to (2S)-1-butoxypropan-2-ol (the name from the 3D structure) since the former did not completely specify stereochemistry.\n'
p1177
asg516
S'1-butoxy-2-propanol'
p1178
sg12
I21210
sg518
g519
(g523
S'333333\xc3?'
p1179
tp1180
Rp1181
sg529
g519
(g523
S'\xecQ\xb8\x1e\x85\xeb\x16\xc0'
p1182
tp1183
Rp1184
sg15
(lp1185
S'secondary alcohol'
p1186
aS'dialkyl ether'
p1187
asg535
g536
sg20
S' 1-butoxy-2-propanol'
p1188
sg538
g539
ssS'mobley_2763835'
p1189
(dp1190
g3
S'CCOc1ccccc1'
p1191
sg27
F-2.01
sg28
F0.02
sg7
(lp1192
g30
asg31
S'ethoxybenzene'
p1193
sg12
I7674
sg13
F0.6
sg33
F-2.22
sg15
(lp1194
S'alkyl aryl ether'
p1195
aS'aromatic'
p1196
asg38
g39
sg20
S' ethoxybenzene'
p1197
sg41
g42
ssS'mobley_951560'
p1198
(dp1199
g3
S'C1CNCCN1'
p1200
sg27
F-8.34
sg28
F0.03
sg7
(lp1201
g30
asg31
S'piperazine'
p1202
sg12
I4837
sg13
F0.6
sg33
F-7.4
sg15
(lp1203
S'secondary amine'
p1204
aS'secondary aliphatic amine (dialkylamine)'
p1205
aS'heterocyclic'
p1206
asg38
g39
sg20
S' piperazine'
p1207
sg41
g42
ssS'mobley_3211679'
p1208
(dp1209
g3
S'C1CCC=CC1'
p1210
sg512
F1.14
sg513
F0.017
sg7
(lp1211
g30
asg516
S'cyclohexene'
p1212
sg12
I8079
sg518
g519
(g523
S'\x9a\x99\x99\x99\x99\x99\xb9?'
p1213
tp1214
Rp1215
sg529
g519
(g523
S'\xecQ\xb8\x1e\x85\xeb\xc1?'
p1216
tp1217
Rp1218
sg15
(lp1219
S'alkene'
p1220
asg535
g536
sg20
S' cyclohexene'
p1221
sg538
g539
ssS'mobley_6359156'
p1222
(dp1223
g3
S'c1ccc(cc1)c2cc(ccc2Cl)Cl'
p1224
sg212
F-1.77
sg213
F0.03
sg7
(lp1225
g30
asg215
S'1,4-dichloro-2-phenyl-benzene'
p1226
sg12
I36980
sg217
F0.1
sg218
F-2.46
sg15
(lp1227
S'aryl chloride'
p1228
aS'aromatic'
p1229
asg221
g222
sg20
S' 1,4-dichloro-2-phenyl-benzene'
p1230
sg224
g225
ssS'mobley_3234716'
p1231
(dp1232
g3
S'Cc1ccc(cc1)C'
p1233
sg27
F-0.67
sg28
F0.02
sg7
(lp1234
g30
asg31
S'p-xylene'
p1235
sg12
I7809
sg13
F0.6
sg33
F-0.8
sg15
(lp1236
S'aromatic'
p1237
asg38
g39
sg20
S' p-xylene'
p1238
sg41
g42
ssS'mobley_5286200'
p1239
(dp1240
g3
S'C(CCCl)CCl'
p1241
sg27
F-0.27
sg28
F0.02
sg7
(lp1242
g30
asg31
S'1,4-dichlorobutane'
p1243
sg12
I8059
sg13
F0.6
sg33
F-2.32
sg15
(lp1244
S'alkyl chloride'
p1245
asg38
g39
sg20
S' 1,4-dichlorobutane'
p1246
sg41
g42
ssS'mobley_2727678'
p1247
(dp1248
g3
S'c1c(c(=O)[nH]c(=O)[nH]1)I'
p1249
sg420
F-17.14
sg421
F0.06
sg7
(lp1250
g30
asg423
S'5-iodouracil'
p1251
sg12
I69672
sg425
F0.64
sg426
F-18.72
sg15
(lp1252
S'aryl iodide'
p1253
aS'oxo(het)arene'
p1254
aS'aromatic'
p1255
aS'heterocyclic'
p1256
asg432
g433
sg20
S' 5-iodouracil'
p1257
sg435
g436
ssS'mobley_6973347'
p1258
(dp1259
g3
S'CCOC(=O)C'
p1260
sg27
F-3.23
sg28
F0.02
sg7
(lp1261
g30
asg31
S'ethyl acetate'
p1262
sg12
I8857
sg13
F0.6
sg33
F-2.94
sg15
(lp1263
S'carboxylic acid ester'
p1264
asg38
g39
sg20
S' ethyl acetate'
p1265
sg41
g42
ssS'mobley_9617923'
p1266
(dp1267
g3
S'CCCCCCCCC(=O)C'
p1268
sg27
F-1.98
sg28
F0.03
sg7
(lp1269
g30
asg31
S'decan-2-one'
p1270
sg12
I12741
sg13
F0.6
sg33
F-2.34
sg15
(lp1271
S'ketone'
p1272
asg38
g39
sg20
S' decan-2-one'
p1273
sg41
g42
ssS'mobley_6309289'
p1274
(dp1275
g3
S'C1CCNCC1'
p1276
sg27
F-3.46
sg28
F0.02
sg7
(lp1277
g30
asg31
S'piperidine'
p1278
sg12
I8082
sg13
F0.6
sg33
F-5.11
sg15
(lp1279
S'secondary amine'
p1280
aS'secondary aliphatic amine (dialkylamine)'
p1281
aS'heterocyclic'
p1282
asg38
g39
sg20
S' piperidine'
p1283
sg41
g42
ssS'mobley_1235151'
p1284
(dp1285
g3
S'CCCCC[N+](=O)[O-]'
p1286
sg27
F-1.29
sg28
F0.02
sg7
(lp1287
g30
asg31
S'1-nitropentane'
p1288
sg12
I220639
sg13
F0.6
sg33
F-2.82
sg15
(lp1289
S'nitro'
p1290
asg38
g39
sg20
S' 1-nitropentane'
p1291
sg41
g42
ssS'mobley_2689721'
p1292
(dp1293
g3
S'C1CCCCC1'
p1294
sg27
F1.67
sg28
F0.02
sg7
(lp1295
g30
asg31
S'cyclohexane'
p1296
sg12
I8078
sg13
F0.6
sg33
F1.23
sg15
(lp1297
g68
asg38
g39
sg20
S' cyclohexane'
p1298
sg41
g42
ssS'mobley_820789'
p1299
(dp1300
g3
S'CCCC(=O)O'
p1301
sg27
F-5.46
sg28
F0.03
sg7
(lp1302
g30
asg31
S'butyric acid'
p1303
sg12
I264
sg13
F0.6
sg33
F-6.35
sg15
(lp1304
S'carboxylic acid'
p1305
asg38
g39
sg20
S' butyric acid'
p1306
sg41
g42
ssS'mobley_1838110'
p1307
(dp1308
g3
S'C(C(F)(Cl)Cl)(F)(F)Cl'
p1309
sg27
F1.53
sg28
F0.02
sg7
(lp1310
g30
asg31
S'1,1,2-trichloro-1,2,2-trifluoro-ethane'
p1311
sg12
I6428
sg13
F0.6
sg33
F1.77
sg15
(lp1312
S'halogen derivative'
p1313
asg38
g39
sg20
S' 1,1,2-Trichlorotrifluoroethane'
p1314
sg41
g42
ssS'mobley_3083321'
p1315
(dp1316
g3
S'COCOC'
p1317
sS'calc'
p1318
F-3.2
sS'd_calc'
p1319
F0.1
sS'notes'
p1320
(lp1321
S'Topology and coordinate files re-generated 10/9/13 from original .mol2 files.'
p1322
ag30
aS'Experimental uncertainty estimate updated to 0.2 as of v0.2 to match uncertainty estimate given in Nicholls et al. paper.\n'
p1323
asS'iupac'
p1324
S'dimethoxymethane'
p1325
sg12
I8020
sg13
F0.2
sS'expt'
p1326
F-2.93
sg15
(lp1327
S'acetal'
p1328
asS'expt_reference'
p1329
S'10.1021/jm070549+'
p1330
sg20
S' dimethoxymethane'
p1331
sS'calc_reference'
p1332
g1330
ssS'mobley_3572203'
p1333
(dp1334
g3
S'CCCCCOC(=O)CC'
p1335
sg27
F-3.36
sg28
F0.03
sg7
(lp1336
g30
asg31
S'pentyl propanoate'
p1337
sg12
I12217
sg13
F0.6
sg33
F-2.11
sg15
(lp1338
S'carboxylic acid ester'
p1339
asg38
g39
sg20
S' pentyl propanoate'
p1340
sg41
g42
ssS'mobley_3843583'
p1341
(dp1342
g3
S'c1ccc2c(c1)cccc2N'
p1343
sg27
F-7.76
sg28
F0.03
sg7
(lp1344
g30
asg31
S'naphthalen-1-amine'
p1345
sg12
I8640
sg13
F0.6
sg33
F-7.28
sg15
(lp1346
S'primary amine'
p1347
aS'primary aromatic amine'
p1348
aS'aromatic'
p1349
asg38
g39
sg20
S' naphthalen-1-amine'
p1350
sg41
g42
ssS'mobley_8127829'
p1351
(dp1352
g3
S'CCc1ccccc1'
p1353
sg27
F-0.59
sg28
F0.02
sg7
(lp1354
g30
asg31
S'ethylbenzene'
p1355
sg12
I7500
sg13
F0.6
sg33
F-0.79
sg15
(lp1356
S'aromatic'
p1357
asg38
g39
sg20
S' ethylbenzene'
p1358
sg41
g42
ssS'mobley_7983227'
p1359
(dp1360
g3
S'CC[C@@H](C)CO'
p1361
sg27
F-2.78
sg28
F0.02
sg7
(lp1362
S'Renamed mobley_7983227 from 2-methylbutan-1-ol to (2R)-2-methylbutan-1-ol (the name from the 3D structure) since the former did not completely specify stereochemistry.\n'
p1363
asg31
S'2-methylbutan-1-ol'
p1364
sg12
I8723
sg13
F0.6
sg33
F-4.42
sg15
(lp1365
S'primary alcohol'
p1366
asg38
g39
sg20
S' 2-methylbutan-1-ol'
p1367
sg41
g42
ssS'mobley_2390199'
p1368
(dp1369
g3
S'CCCC(=O)CCC'
p1370
sg27
F-2.68
sg28
F0.02
sg7
(lp1371
g30
asg31
S'heptan-4-one'
p1372
sg12
I31246
sg13
F0.6
sg33
F-2.92
sg15
(lp1373
S'ketone'
p1374
asg38
g39
sg20
S' heptan-4-one'
p1375
sg41
g42
ssS'mobley_2960202'
p1376
(dp1377
g3
S'c1c2c(cc(c1Cl)Cl)Oc3c(c(c(c(c3Cl)Cl)Cl)Cl)O2'
p1378
sg212
F-1.9
sg213
F0.03
sg7
(lp1379
g30
asg215
S'1,2,3,4,7,8-hexachlorodibenzo-p-dioxin'
p1380
sg12
I38251
sg217
F1.0
sg218
F-3.71
sg15
(lp1381
S'diaryl ether'
p1382
aS'aryl chloride'
p1383
aS'aromatic'
p1384
aS'heterocyclic'
p1385
asg221
g222
sg20
S' 1,2,3,4,7,8-hexachlorodibenzo-p-dioxin'
p1386
sg224
g225
ssS'mobley_5326154'
p1387
(dp1388
g3
S'CN(C)c1ccccc1'
p1389
sg27
F-4.7
sg28
F0.02
sg7
(lp1390
g30
asg31
S'N,N-dimethylaniline'
p1391
sg12
I949
sg13
F0.6
sg33
F-3.45
sg15
(lp1392
S'tertiary amine'
p1393
aS'tertiary aliphatic/aromatic amine (alkylarylamine)'
p1394
aS'aromatic'
p1395
asg38
g39
sg20
S' N,N-dimethylaniline'
p1396
sg41
g42
ssS'mobley_7176290'
p1397
(dp1398
g3
S'c1cc(cc(c1)O)[N+](=O)[O-]'
p1399
sg27
F-7.66
sg28
F0.03
sg7
(lp1400
g30
asg31
S'3-nitrophenol'
p1401
sg12
I11137
sg13
F0.6
sg33
F-9.62
sg15
(lp1402
S'phenol or hydroxyhetarene'
p1403
aS'nitro'
p1404
aS'aromatic'
p1405
asg38
g39
sg20
S' 3-nitrophenol'
p1406
sg41
g42
ssS'mobley_6334915'
p1407
(dp1408
g3
S'COP(=O)([C@H](C(Cl)(Cl)Cl)O)OC'
p1409
sg177
F-14.03
sg178
F0.04
sg7
(lp1410
g30
aS'Changed IUPAC name from trichlorfon to (1R)-2,2,2-trichloro-1-dimethoxyphosphoryl-ethanol for better handling/standardization.'
p1411
asg180
S'(1R)-2,2,2-trichloro-1-dimethoxyphosphoryl-ethanol'
p1412
sg12
I6604183
sg182
F1.93
sg183
F-12.74
sg15
(lp1413
S'halogen derivative'
p1414
aS'phosphonic acid derivative'
p1415
aS'phosphonic acid ester'
p1416
asg186
g187
sg20
S' trichlorfon'
p1417
sg189
g190
ssS'mobley_6497672'
p1418
(dp1419
g3
S'C/C=C/C=O'
p1420
sg27
F-3.66
sg28
F0.02
sg7
(lp1421
S'Renamed mobley_6497672 from but-2-enal to (E)-but-2-enal (the name from the 3D structure) since the former did not completely specify stereochemistry.\n'
p1422
asg31
S'but-2-enal'
p1423
sg12
I447466
sg13
F0.6
sg33
F-4.22
sg15
(lp1424
S'aldehyde'
p1425
aS'alkene'
p1426
asg38
g39
sg20
S' but-2-enal'
p1427
sg41
g42
ssS'mobley_5665561'
p1428
(dp1429
g3
S'Cc1cc(c2ccccc2c1)C'
p1430
sg27
F-2.79
sg28
F0.03
sg7
(lp1431
g30
asg31
S'1,3-dimethylnaphthalene'
p1432
sg12
I11327
sg13
F0.6
sg33
F-2.47
sg15
(lp1433
S'aromatic'
p1434
asg38
g39
sg20
S' 1,3-dimethylnaphthalene'
p1435
sg41
g42
ssS'mobley_4850657'
p1436
(dp1437
g3
S'CS(=O)(=O)Cl'
p1438
sg27
F-6.33
sg28
F0.02
sg7
(lp1439
g30
asg31
S'methanesulfonyl chloride'
p1440
sg12
I31297
sg13
F0.6
sg33
F-4.87
sg15
(lp1441
S'sulfonyl halide'
p1442
asg38
S'10.1139/v98-084'
p1443
sg20
S' methanesulfonyl chloride'
p1444
sg41
g42
ssS'mobley_8809190'
p1445
(dp1446
g3
S'CCCCc1ccccc1'
p1447
sg27
F-0.3
sg28
F0.02
sg7
(lp1448
g30
asg31
S'butylbenzene'
p1449
sg12
I7705
sg13
F0.6
sg33
F-0.4
sg15
(lp1450
S'aromatic'
p1451
asg38
g39
sg20
S' butylbenzene'
p1452
sg41
g42
ssS'mobley_1743409'
p1453
(dp1454
g3
S'CCOC(=O)CCC(=O)OCC'
p1455
sg27
F-8.47
sg28
F0.04
sg7
(lp1456
g30
asg31
S'diethyl butanedioate'
p1457
sg12
I31249
sg13
F0.6
sg33
F-5.71
sg15
(lp1458
S'carboxylic acid ester'
p1459
asg38
S'10.1139/v91-2'
p1460
sg20
S' diethyl butanedioate'
p1461
sg41
g42
ssS'mobley_900088'
p1462
(dp1463
g3
S'CC(=C)C(=C)C'
p1464
sg27
F1.69
sg28
F0.02
sg7
(lp1465
g30
asg31
S'2,3-dimethylbuta-1,3-diene'
p1466
sg12
I10566
sg13
F0.6
sg33
F0.4
sg15
(lp1467
S'alkene'
p1468
asg38
g39
sg20
S' 2,3-dimethylbuta-1,3-diene'
p1469
sg41
g42
ssS'mobley_5759258'
p1470
(dp1471
g3
S'CCCCCO'
p1472
sg27
F-3.14
sg28
F0.02
sg7
(lp1473
g30
asg31
S'pentan-1-ol'
p1474
sg12
I6276
sg13
F0.6
sg33
F-4.57
sg15
(lp1475
S'primary alcohol'
p1476
asg38
g39
sg20
S' pentan-1-ol'
p1477
sg41
g42
ssS'mobley_7608435'
p1478
(dp1479
g3
S'CCCCCCCC(=O)OC'
p1480
sg27
F-2.94
sg28
F0.03
sg7
(lp1481
g30
asg31
S'methyl octanoate'
p1482
sg12
I8091
sg13
F0.6
sg33
F-2.04
sg15
(lp1483
S'carboxylic acid ester'
p1484
asg38
g39
sg20
S' methyl octanoate'
p1485
sg41
g42
ssS'mobley_3006808'
p1486
(dp1487
g3
S'C(C(F)(F)F)O'
p1488
sg27
F-3.95
sg28
F0.03
sg7
(lp1489
g30
asg31
S'2,2,2-trifluoroethanol'
p1490
sg12
I6409
sg13
F0.6
sg33
F-4.31
sg15
(lp1491
S'primary alcohol'
p1492
aS'halogen derivative'
p1493
asg38
S'10.1039/F19736901577'
p1494
sg20
S' 2,2,2-trifluoroethanol'
p1495
sg41
g42
ssS'mobley_6303022'
p1496
(dp1497
g3
S'CCc1ccncc1'
p1498
sg27
F-2.87
sg28
F0.02
sg7
(lp1499
g30
asg31
S'4-ethylpyridine'
p1500
sg12
I10822
sg13
F0.6
sg33
F-4.73
sg15
(lp1501
S'aromatic'
p1502
aS'heterocyclic'
p1503
asg38
g39
sg20
S' 4-ethylpyridine'
p1504
sg41
g42
ssS'mobley_7047032'
p1505
(dp1506
g3
S'CC(C)(C)Cl'
p1507
sg27
F0.82
sg28
F0.02
sg7
(lp1508
g30
asg31
S'2-chloro-2-methyl-propane'
p1509
sg12
I10486
sg13
F0.6
sg33
F1.09
sg15
(lp1510
S'alkyl chloride'
p1511
asg38
g39
sg20
S' 2-chloro-2-methyl-propane'
p1512
sg41
g42
ssS'mobley_1708457'
p1513
(dp1514
g3
S'CS(=O)(=O)C'
p1515
sg27
F-10.36
sg28
F0.03
sg7
(lp1516
g30
asg31
S'methylsulfonylmethane'
p1517
sg12
I6213
sg13
F0.6
sg33
F-10.08
sg15
(lp1518
S'sulfone'
p1519
asg38
g805
sg20
S' methylsulfonylmethane'
p1520
sg41
g42
ssS'mobley_1079207'
p1521
(dp1522
g3
S'c1cc(cc(c1)Cl)Cl'
p1523
sg27
F0.01
sg28
F0.02
sg7
(lp1524
g30
asg31
S'1,3-dichlorobenzene'
p1525
sg12
I10943
sg13
F0.6
sg33
F-0.98
sg15
(lp1526
S'aryl chloride'
p1527
aS'aromatic'
p1528
asg38
g39
sg20
S' 1,3-dichlorobenzene'
p1529
sg41
g42
ssS'mobley_8573194'
p1530
(dp1531
g3
S'CCCC=O'
p1532
sg27
F-3.01
sg28
F0.02
sg7
(lp1533
g30
asg31
S'butanal'
p1534
sg12
I261
sg13
F0.6
sg33
F-3.18
sg15
(lp1535
S'aldehyde'
p1536
asg38
g39
sg20
S' butanal'
p1537
sg41
g42
ssS'mobley_7375018'
p1538
(dp1539
g3
S'CCCCCCCCCC(=O)C'
p1540
sg27
F-2.12
sg28
F0.03
sg7
(lp1541
g30
asg31
S'undecan-2-one'
p1542
sg12
I8163
sg13
F0.6
sg33
F-2.15
sg15
(lp1543
S'ketone'
p1544
asg38
g39
sg20
S' undecan-2-one'
p1545
sg41
g42
ssS'mobley_4792268'
p1546
(dp1547
g3
S'CCCCC(=O)O'
p1548
sg27
F-5.37
sg28
F0.06
sg7
(lp1549
g30
asg31
S'pentanoic acid'
p1550
sg12
I7991
sg13
F0.6
sg33
F-6.16
sg15
(lp1551
S'carboxylic acid'
p1552
asg38
g39
sg20
S' pentanoic acid'
p1553
sg41
g42
ssS'mobley_1520842'
p1554
(dp1555
g3
S'Cc1ccncc1'
p1556
sg27
F-3.41
sg28
F0.02
sg7
(lp1557
g30
asg31
S'4-methylpyridine'
p1558
sg12
I7963
sg13
F0.6
sg33
F-4.93
sg15
(lp1559
S'aromatic'
p1560
aS'heterocyclic'
p1561
asg38
g39
sg20
S' 4-methylpyridine'
p1562
sg41
g42
ssS'mobley_5520946'
p1563
(dp1564
g3
S'c1ccc(cc1)S'
p1565
sg27
F-1.43
sg28
F0.02
sg7
(lp1566
g30
asg31
S'benzenethiol'
p1567
sg12
I7969
sg13
F0.6
sg33
F-2.55
sg15
(lp1568
S'thiol (sulfanyl)'
p1569
aS'arylthiol (thiophenol)'
p1570
aS'aromatic'
p1571
asg38
g39
sg20
S' benzenethiol'
p1572
sg41
g42
ssS'mobley_2005792'
p1573
(dp1574
g3
S'c1ccc(cc1)c2ccccc2'
p1575
sg5
F-3.5
sg6
F0.1
sg7
(lp1576
g9
aS'Changed IUPAC name from biphenyle to biphenyl for better handling/standardization.'
p1577
asg10
S'biphenyl'
p1578
sg12
I7095
sg13
F0.2
sg14
F-2.7
sg15
(lp1579
S'aromatic'
p1580
asg18
g19
sg20
S' biphenyl'
p1581
sg22
g23
ssS'mobley_7688753'
p1582
(dp1583
g3
S'c1cc(cc(c1)O)C=O'
p1584
sg27
F-9.24
sg28
F0.03
sg7
(lp1585
g30
aS"Experimental value updated 10/22/13 from J. Peter Guthrie's examination of published data. A range of values -7.48 to -9.52 seem possible, but the original experimental data has not yet been located. More work is needed.\n"
p1586
asg31
S'3-hydroxybenzaldehyde'
p1587
sg12
I101
sg13
F1.9
sg33
F-9.52
sg15
(lp1588
S'aldehyde'
p1589
aS'phenol or hydroxyhetarene'
p1590
aS'aromatic'
p1591
asg38
g39
sg20
S' 3-hydroxybenzaldehyde'
p1592
sg41
g42
ssS'mobley_1723043'
p1593
(dp1594
g3
S'C1(C(C(C1(F)F)(F)F)(F)F)(F)F'
p1595
sg420
F3.01
sg421
F0.04
sg7
(lp1596
g30
asg423
S'octafluorocyclobutane'
p1597
sg12
I8263
sg425
F0.03
sg426
F3.43
sg15
(lp1598
S'alkyl fluoride'
p1599
asg432
g433
sg20
S' octafluorocyclobutane'
p1600
sg435
g436
ssS'mobley_7860938'
p1601
(dp1602
g3
S'CCCCNCCCC'
p1603
sg27
F-1.63
sg28
F0.03
sg7
(lp1604
g30
asg31
S'N-butylbutan-1-amine'
p1605
sg12
I8148
sg13
F0.6
sg33
F-3.24
sg15
(lp1606
S'secondary amine'
p1607
aS'secondary aliphatic amine (dialkylamine)'
p1608
asg38
g39
sg20
S' N-butylbutan-1-amine'
p1609
sg41
g42
ssS'mobley_4845722'
p1610
(dp1611
g3
S'c1(c(c(c(c(c1Cl)Cl)Cl)Cl)Cl)Cl'
p1612
sg420
F0.24
sg421
F0.04
sg7
(lp1613
g30
asg423
S'hexachlorobenzene'
p1614
sg12
I8370
sg425
F1.16
sg426
F-2.33
sg15
(lp1615
S'aryl chloride'
p1616
aS'aromatic'
p1617
asg432
g433
sg20
S' hexachlorobenzene'
p1618
sg435
g436
ssS'mobley_3709920'
p1619
(dp1620
g3
S'CCCCCCCC=C'
p1621
sg27
F2.91
sg28
F0.03
sg7
(lp1622
g30
asg31
S'non-1-ene'
p1623
sg12
I31285
sg13
F0.6
sg33
F2.06
sg15
(lp1624
S'alkene'
p1625
asg38
g39
sg20
S' non-1-ene'
p1626
sg41
g42
ssS'mobley_7542832'
p1627
(dp1628
g3
S'CCCOCCC'
p1629
sg27
F0.21
sg28
F0.02
sg7
(lp1630
g30
asg31
S'1-propoxypropane'
p1631
sg12
I8114
sg13
F0.6
sg33
F-1.16
sg15
(lp1632
S'dialkyl ether'
p1633
asg38
g39
sg20
S' 1-propoxypropane'
p1634
sg41
g42
ssS'mobley_2492140'
p1635
(dp1636
g3
S'C(C(Cl)(Cl)Cl)(Cl)Cl'
p1637
sg212
F0.13
sg213
F0.02
sg7
(lp1638
g30
asg215
S'1,1,1,2,2-pentachloroethane'
p1639
sg12
I6419
sg217
F0.1
sg218
F-1.23
sg15
(lp1640
S'alkyl chloride'
p1641
asg221
g222
sg20
S' 1,1,1,2,2-pentachloroethane'
p1642
sg224
g225
ssS'mobley_8899867'
p1643
(dp1644
g3
S'C1CCC(C1)O'
p1645
sg27
F-4.15
sg28
F0.02
sg7
(lp1646
g30
asg31
S'cyclopentanol'
p1647
sg12
I7298
sg13
F0.6
sg33
F-5.49
sg15
(lp1648
S'secondary alcohol'
p1649
asg38
g39
sg20
S' cyclopentanol'
p1650
sg41
g42
ssS'mobley_5371840'
p1651
(dp1652
g3
S'c1ccc2c(c1)Oc3ccc(cc3O2)Cl'
p1653
sg212
F-3.99
sg213
F0.02
sg7
(lp1654
g30
asg215
S'2-chlorodibenzo-p-dioxin'
p1655
sg12
I38252
sg217
F0.1
sg218
F-3.1
sg15
(lp1656
S'diaryl ether'
p1657
aS'aryl chloride'
p1658
aS'aromatic'
p1659
aS'heterocyclic'
p1660
asg221
g222
sg20
S' 2-chlorodibenzo-p-dioxin'
p1661
sg224
g225
ssS'mobley_2929847'
p1662
(dp1663
g3
S'CC(C)CC(=O)O'
p1664
sg27
F-5.51
sg28
F0.03
sg7
(lp1665
g30
asg31
S'3-methylbutanoic acid'
p1666
sg12
I10430
sg13
F0.6
sg33
F-6.09
sg15
(lp1667
S'carboxylic acid'
p1668
asg38
g39
sg20
S' 3-methylbutanoic acid'
p1669
sg41
g42
ssS'mobley_8006582'
p1670
(dp1671
g3
S'C1CCCC1'
p1672
sg27
F1.53
sg28
F0.02
sg7
(lp1673
g30
asg31
S'cyclopentane'
p1674
sg12
I9253
sg13
F0.6
sg33
F1.2
sg15
(lp1675
g68
asg38
g39
sg20
S' cyclopentane'
p1676
sg41
g42
ssS'mobley_2146331'
p1677
(dp1678
g3
S'C=O'
p1679
sg27
F-3.22
sg28
F0.01
sg7
(lp1680
g30
aS'Formaldehyde is covalently hydrated in water. Our value here is the true free energy of hydration (based on the concentration of formaldehyde in gas vs in water) as opposed to the apparent one. See Guthrie, J. P., J. Am. Chem. Soc. 2000, 122, 5529-5538.\n'
p1681
asg31
S'formaldehyde'
p1682
sg12
I712
sg13
F0.6
sg33
F-2.75
sg15
(lp1683
S'aldehyde'
p1684
asg38
g39
sg20
S' formaldehyde'
p1685
sg41
g42
ssS'mobley_2099370'
p1686
(dp1687
g3
S'C[C@@H](c1cccc(c1)C(=O)c2ccccc2)C(=O)O'
p1688
sg420
F-11.9
sg421
F0.1
sg7
(lp1689
S'Renamed mobley_2099370 from ketoprofen to (2S)-2-(3-benzoylphenyl)propanoic acid (the name from the 3D structure) since the former did not completely specify stereochemistry.\n'
p1690
asg423
S'ketoprofen'
p1691
sg12
I3825
sg425
F0.18
sg426
F-10.78
sg15
(lp1692
S'ketone'
p1693
aS'carboxylic acid'
p1694
aS'aromatic'
p1695
asg432
g433
sg20
S' ketoprofen'
p1696
sg435
g436
ssS'mobley_3968043'
p1697
(dp1698
g3
S'C1CCC(=O)C1'
p1699
sg27
F-3.71
sg28
F0.02
sg7
(lp1700
g30
asg31
S'cyclopentanone'
p1701
sg12
I8452
sg13
F0.6
sg33
F-4.7
sg15
(lp1702
S'ketone'
p1703
asg38
g39
sg20
S' cyclopentanone'
p1704
sg41
g42
ssS'mobley_3323117'
p1705
(dp1706
g3
S'C1CC[S+2](C1)([O-])[O-]'
p1707
sg420
F-9.45
sg421
F0.05
sg7
(lp1708
g30
asg423
S'sulfolane'
p1709
sg12
I31347
sg425
F0.31
sg426
F-8.61
sg15
(lp1710
S'cation'
p1711
aS'heterocyclic'
p1712
asg432
g433
sg20
S' sulfolane'
p1713
sg435
g436
ssS'mobley_4043951'
p1714
(dp1715
g3
S'CCCC=C'
p1716
sg27
F2.44
sg28
F0.02
sg7
(lp1717
g30
asg31
S'pent-1-ene'
p1718
sg12
I8004
sg13
F0.6
sg33
F1.68
sg15
(lp1719
S'alkene'
p1720
asg38
g39
sg20
S' pent-1-ene'
p1721
sg41
g42
ssS'mobley_8705848'
p1722
(dp1723
g3
S'CC(C)NC(C)C'
p1724
sg27
F-1.97
sg28
F0.02
sg7
(lp1725
g30
asg31
S'N-isopropylpropan-2-amine'
p1726
sg12
I7912
sg13
F0.6
sg33
F-3.22
sg15
(lp1727
S'secondary amine'
p1728
aS'secondary aliphatic amine (dialkylamine)'
p1729
asg38
g39
sg20
S' 2-Propanamine'
p1730
sg41
g42
ssS'mobley_2484519'
p1731
(dp1732
g3
S'c1ccc(cc1)CCl'
p1733
sg1318
F-1.5
sg1319
F0.08
sg1320
(lp1734
g1322
ag30
ag1323
asg1324
S'benzyl chloride'
p1735
sg12
I7503
sg13
F0.2
sg1326
F-1.93
sg15
(lp1736
S'alkyl chloride'
p1737
aS'aromatic'
p1738
asg1329
g1330
sg20
S' benzyl chloride'
p1739
sg1332
g1330
ssS'mobley_547634'
p1740
(dp1741
g3
S'Cc1cc2ccccc2cc1C'
p1742
sg27
F-2.59
sg28
F0.02
sg7
(lp1743
g30
asg31
S'2,3-dimethylnaphthalene'
p1744
sg12
I11386
sg13
F0.6
sg33
F-2.78
sg15
(lp1745
S'aromatic'
p1746
asg38
g39
sg20
S' 2,3-dimethylnaphthalene'
p1747
sg41
g42
ssS'mobley_8311321'
p1748
(dp1749
g3
S'C(F)(F)Cl'
p1750
sg27
F-0.04
sg28
F0.02
sg7
(lp1751
g30
asg31
S'chloro-difluoro-methane'
p1752
sg12
I6372
sg13
F0.6
sg33
F-0.5
sg15
(lp1753
S'halogen derivative'
p1754
asg38
g39
sg20
S' chloro-difluoro-methane'
p1755
sg41
g42
ssS'mobley_3318135'
p1756
(dp1757
g3
S'CCCCC(=O)CCCC'
p1758
sg27
F-2.34
sg28
F0.03
sg7
(lp1759
g30
asg31
S'nonan-5-one'
p1760
sg12
I10405
sg13
F0.6
sg33
F-2.64
sg15
(lp1761
S'ketone'
p1762
asg38
g39
sg20
S' nonan-5-one'
p1763
sg41
g42
ssS'mobley_3761215'
p1764
(dp1765
g3
S'CC(Cl)(Cl)Cl'
p1766
sg27
F0.75
sg28
F0.02
sg7
(lp1767
g30
asg31
S'1,1,1-trichloroethane'
p1768
sg12
I6278
sg13
F0.6
sg33
F-0.19
sg15
(lp1769
S'halogen derivative'
p1770
asg38
g39
sg20
S' 1,1,1-trichloroethane'
p1771
sg41
g42
ssS'mobley_282648'
p1772
(dp1773
g3
S'c1ccc2ccccc2c1'
p1774
sg27
F-3.34
sg28
F0.02
sg7
(lp1775
g30
asg31
S'naphthalene'
p1776
sg12
I931
sg13
F0.6
sg33
F-2.4
sg15
(lp1777
S'aromatic'
p1778
asg38
g39
sg20
S' naphthalene'
p1779
sg41
g42
ssS'mobley_3183805'
p1780
(dp1781
g3
S'Cc1ccc(c(c1)C)C'
p1782
sg27
F-0.36
sg28
F0.02
sg7
(lp1783
g30
asg31
S'1,2,4-trimethylbenzene'
p1784
sg12
I7247
sg13
F0.6
sg33
F-0.86
sg15
(lp1785
S'aromatic'
p1786
asg38
g39
sg20
S' 1,2,4-trimethylbenzene'
p1787
sg41
g42
ssS'mobley_1717215'
p1788
(dp1789
g3
S'COC=O'
p1790
sg27
F-3.17
sg28
F0.02
sg7
(lp1791
g30
asg31
S'methyl formate'
p1792
sg12
I7865
sg13
F0.6
sg33
F-2.78
sg15
(lp1793
S'carboxylic acid ester'
p1794
asg38
g39
sg20
S' methyl formate'
p1795
sg41
g42
ssS'mobley_5600967'
p1796
(dp1797
g3
S'CN(C)C(=O)c1ccc(cc1)OC'
p1798
sg27
F-9.29
sg28
F0.04
sg7
(lp1799
g30
asg31
S'4-methoxy-N,N-dimethyl-benzamide'
p1800
sg12
I81713
sg13
F0.6
sg33
F-11.01
sg15
(lp1801
S'alkyl aryl ether'
p1802
aS'tertiary carboxylic acid amide'
p1803
aS'aromatic'
p1804
asg38
g653
sg20
S' 4-methoxy-N,N-dimethyl-benzamide'
p1805
sg41
g42
ssS'mobley_6794076'
p1806
(dp1807
g3
S'CC(=O)c1ccncc1'
p1808
sg27
F-7.63
sg28
F0.03
sg7
(lp1809
g30
asg31
S'1-(4-pyridyl)ethanone'
p1810
sg12
I14282
sg13
F0.6
sg33
F-7.62
sg15
(lp1811
S'ketone'
p1812
aS'aromatic'
p1813
aS'heterocyclic'
p1814
asg38
g39
sg20
S' 1-(4-pyridyl)ethanone'
p1815
sg41
g42
ssS'mobley_6055410'
p1816
(dp1817
g3
S'c1cc(c(cc1c2ccc(cc2F)F)C(=O)O)O'
p1818
sg420
F-6.5
sg421
F0.1
sg7
(lp1819
g30
asg423
S'diflunisal'
p1820
sg12
I3059
sg425
F0.2
sg426
F-9.4
sg15
(lp1821
S'phenol or hydroxyhetarene'
p1822
aS'aryl fluoride'
p1823
aS'carboxylic acid'
p1824
aS'aromatic'
p1825
asg432
g433
sg20
S' diflunisal'
p1826
sg435
g436
ssS'mobley_7393673'
p1827
(dp1828
g3
S'COc1ccc(cc1)C(=O)OC'
p1829
sg27
F-6.32
sg28
F0.03
sg7
(lp1830
g30
asg31
S'methyl 4-methoxybenzoate'
p1831
sg12
I8499
sg13
F0.6
sg33
F-5.33
sg15
(lp1832
S'alkyl aryl ether'
p1833
aS'carboxylic acid ester'
p1834
aS'aromatic'
p1835
asg38
g653
sg20
S' methyl 4-methoxybenzoate'
p1836
sg41
g42
ssS'mobley_7676709'
p1837
(dp1838
g3
S'CC1=CC(=O)[C@@H](CC1)C(C)C'
p1839
sg512
F-3.81
sg513
F0.022
sg7
(lp1840
S'Renamed mobley_7676709 from 6-isopropyl-3-methyl-1-cyclohex-2-enone to (6S)-6-isopropyl-3-methyl-cyclohex-2-en-1-one (the name from the 3D structure) since the former did not completely specify stereochemistry.\n'
p1841
asg516
S'6-isopropyl-3-methyl-1-cyclohex-2-enone'
p1842
sg12
I61362
sg518
F0.1
sg529
F-4.51
sg15
(lp1843
S'ketone'
p1844
aS'alkene'
p1845
asg535
g536
sg20
S' d-piperitone'
p1846
sg538
g539
ssS'mobley_2845466'
p1847
(dp1848
g3
S'c1c2c(cc(c1Cl)Cl)Oc3cc(c(cc3O2)Cl)Cl'
p1849
sg212
F-2.49
sg213
F0.03
sg7
(lp1850
g30
asg215
S'2,3,7,8-tetrachlorodibenzo-p-dioxin'
p1851
sg12
I15625
sg217
F1.0
sg218
F-3.37
sg15
(lp1852
S'diaryl ether'
p1853
aS'aryl chloride'
p1854
aS'aromatic'
p1855
aS'heterocyclic'
p1856
asg221
g222
sg20
S' 2,3,7,8-tetrachlorodibenzo-p-dioxin'
p1857
sg224
g225
ssS'mobley_9197172'
p1858
(dp1859
g3
S'CCCCCCC=C'
p1860
sg27
F2.77
sg28
F0.03
sg7
(lp1861
g30
asg31
S'oct-1-ene'
p1862
sg12
I8125
sg13
F0.6
sg33
F1.92
sg15
(lp1863
S'alkene'
p1864
asg38
g39
sg20
S' oct-1-ene'
p1865
sg41
g42
ssS'mobley_9055303'
p1866
(dp1867
g3
S'C'
p1868
sg5
F2.6
sg6
F0.1
sg7
(lp1869
g9
asg10
S'methane'
p1870
sg12
I297
sg13
F0.2
sg14
F2.0
sg15
(lp1871
g68
asg18
g19
sg20
S' methane'
p1872
sg22
g23
ssS'mobley_6935906'
p1873
(dp1874
g3
S'CC(=CCC[C@](C)(C=C)OC(=O)C)C'
p1875
sg512
F-2.58
sg513
F0.024
sg7
(lp1876
g30
asg516
S'(3R)-3,7-Dimethylocta-1,6-dien-3-yl acetate'
p1877
sg12
I442474
sg518
g519
(g523
S'333333\xeb?'
p1878
tp1879
Rp1880
sg529
g519
(g523
S'\xecQ\xb8\x1e\x85\xeb\x03\xc0'
p1881
tp1882
Rp1883
sg15
(lp1884
S'carboxylic acid ester'
p1885
aS'alkene'
p1886
asg535
g536
sg20
S' AC1L9CWH'
p1887
sg538
g539
ssS'mobley_7239499'
p1888
(dp1889
g3
S'c1ccc2c(c1)Oc3cccc(c3O2)Cl'
p1890
sg212
F-4.38
sg213
F0.02
sg7
(lp1891
g30
asg215
S'1-chlorodibenzo-p-dioxin'
p1892
sg12
I37207
sg217
F0.1
sg218
F-3.52
sg15
(lp1893
S'diaryl ether'
p1894
aS'aryl chloride'
p1895
aS'aromatic'
p1896
aS'heterocyclic'
p1897
asg221
g222
sg20
S' 1-chlorodibenzo-p-dioxin'
p1898
sg224
g225
ssS'mobley_4193752'
p1899
(dp1900
g3
S'c1ccc(cc1)[N+](=O)[O-]'
p1901
sg27
F-3.4
sg28
F0.02
sg7
(lp1902
g30
asg31
S'nitrobenzene'
p1903
sg12
I7416
sg13
F0.6
sg33
F-4.12
sg15
(lp1904
S'nitro'
p1905
aS'aromatic'
p1906
asg38
g39
sg20
S' nitrobenzene'
p1907
sg41
g42
ssS'mobley_2844990'
p1908
(dp1909
g3
S'c1cc2c(cc1Cl)Oc3cc(c(c(c3O2)Cl)Cl)Cl'
p1910
sg212
F-2.58
sg213
F0.03
sg7
(lp1911
g30
asg215
S'1,2,3,7-tetrachlorodibenzo-p-dioxin'
p1912
sg12
I48889
sg217
F1.0
sg218
F-3.84
sg15
(lp1913
S'diaryl ether'
p1914
aS'aryl chloride'
p1915
aS'aromatic'
p1916
aS'heterocyclic'
p1917
asg221
g222
sg20
S' 1,2,3,7-tetrachlorodibenzo-p-dioxin'
p1918
sg224
g225
ssS'mobley_2925352'
p1919
(dp1920
g3
S'Cc1ccc(cc1)O'
p1921
sg27
F-5.36
sg28
F0.02
sg7
(lp1922
g30
asg31
S'p-cresol'
p1923
sg12
I2879
sg13
F0.6
sg33
F-6.13
sg15
(lp1924
S'phenol or hydroxyhetarene'
p1925
aS'aromatic'
p1926
asg38
g39
sg20
S' p-cresol'
p1927
sg41
g42
ssS'mobley_5346580'
p1928
(dp1929
g3
S'CC(=O)C(C)(C)C'
p1930
sg27
F-2.91
sg28
F0.02
sg7
(lp1931
g30
asg31
S'3,3-dimethylbutan-2-one'
p1932
sg12
I6416
sg13
F0.6
sg33
F-3.11
sg15
(lp1933
S'ketone'
p1934
asg38
g39
sg20
S' 3,3-dimethylbutan-2-one'
p1935
sg41
g42
ssS'mobley_1923244'
p1936
(dp1937
g3
S'CCCC'
p1938
sg5
F3.1
sg6
F0.1
sg7
(lp1939
g9
asg10
S'n-butane'
p1940
sg12
I7843
sg13
F0.2
sg14
F2.1
sg15
(lp1941
g68
asg18
g19
sg20
S' n-butane'
p1942
sg22
g23
ssS'mobley_3690931'
p1943
(dp1944
g3
S'CCCC(=O)OCCC'
p1945
sg27
F-2.88
sg28
F0.03
sg7
(lp1946
g30
asg31
S'propyl butanoate'
p1947
sg12
I7770
sg13
F0.6
sg33
F-2.28
sg15
(lp1948
S'carboxylic acid ester'
p1949
asg38
g39
sg20
S' propyl butanoate'
p1950
sg41
g42
ssS'mobley_6359135'
p1951
(dp1952
g3
S'C(Cl)(Cl)(Cl)Cl'
p1953
sg27
F1.41
sg28
F0.02
sg7
(lp1954
g30
asg31
S'carbon tetrachloride'
p1955
sg12
I5943
sg13
F0.6
sg33
F0.08
sg15
(lp1956
S'halogen derivative'
p1957
asg38
g39
sg20
S' carbon tetrachloride'
p1958
sg41
g42
ssS'mobley_1857976'
p1959
(dp1960
g3
S'C(CCl)Cl'
p1961
sg27
F-0.52
sg28
F0.02
sg7
(lp1962
g30
asg31
S'1,2-dichloroethane'
p1963
sg12
I11
sg13
F0.6
sg33
F-1.79
sg15
(lp1964
S'alkyl chloride'
p1965
asg38
g39
sg20
S' 1,2-dichloroethane'
p1966
sg41
g42
ssS'mobley_718988'
p1967
(dp1968
g3
S'CCCCCCCN'
p1969
sg27
F-2.72
sg28
F0.03
sg7
(lp1970
g30
asg31
S'heptan-1-amine'
p1971
sg12
I8127
sg13
F0.6
sg33
F-3.79
sg15
(lp1972
S'primary amine'
p1973
aS'primary aliphatic amine (alkylamine)'
p1974
asg38
g39
sg20
S' heptan-1-amine'
p1975
sg41
g42
ssS'mobley_1160109'
p1976
(dp1977
g3
S'C[C@@H]1CC[C@H](CC1=O)C(=C)C'
p1978
sg512
F-3.31
sg513
F0.021
sg7
(lp1979
g30
asg516
S'(2R,5R)-2-methyl-5-(1-methylethenyl)-cyclohexanone'
p1980
sg12
I22227
sg518
F0.21
sg529
F-3.75
sg15
(lp1981
S'ketone'
p1982
aS'alkene'
p1983
asg535
g536
sg20
S' (E)-dihydrocarvone'
p1984
sg538
g539
ssS'mobley_4584540'
p1985
(dp1986
g3
S'Cc1cccc(n1)C'
p1987
sg27
F-3.36
sg28
F0.02
sg7
(lp1988
g30
asg31
S'2,6-dimethylpyridine'
p1989
sg12
I7937
sg13
F0.6
sg33
F-4.59
sg15
(lp1990
S'aromatic'
p1991
aS'heterocyclic'
p1992
asg38
g39
sg20
S' 2,6-dimethylpyridine'
p1993
sg41
g42
ssS'mobley_7573149'
p1994
(dp1995
g3
S'CCCOC(=O)C'
p1996
sg27
F-3.33
sg28
F0.02
sg7
(lp1997
g30
asg31
S'propyl acetate'
p1998
sg12
I7997
sg13
F0.6
sg33
F-2.79
sg15
(lp1999
S'carboxylic acid ester'
p2000
asg38
g39
sg20
S' propyl acetate'
p2001
sg41
g42
ssS'mobley_7758918'
p2002
(dp2003
g3
S'CCC(=O)O'
p2004
sg27
F-6.41
sg28
F0.03
sg7
(lp2005
g30
asg31
S'propionic acid'
p2006
sg12
I1032
sg13
F0.6
sg33
F-6.46
sg15
(lp2007
S'carboxylic acid'
p2008
asg38
g39
sg20
S' propionic acid'
p2009
sg41
g42
ssS'mobley_1178614'
p2010
(dp2011
g3
S'c1ccc(c(c1)O)Cl'
p2012
sg27
F-3.23
sg28
F0.03
sg7
(lp2013
g30
asg31
S'2-chlorophenol'
p2014
sg12
I7245
sg13
F0.6
sg33
F-4.55
sg15
(lp2015
S'phenol or hydroxyhetarene'
p2016
aS'aryl chloride'
p2017
aS'aromatic'
p2018
asg38
g39
sg20
S' 2-chlorophenol'
p2019
sg41
g42
ssS'mobley_4218209'
p2020
(dp2021
g3
S'COc1ccc(cc1)N'
p2022
sg27
F-6.92
sg28
F0.03
sg7
(lp2023
g30
asg31
S'4-methoxyaniline'
p2024
sg12
I7732
sg13
F0.6
sg33
F-7.48
sg15
(lp2025
S'alkyl aryl ether'
p2026
aS'primary amine'
p2027
aS'primary aromatic amine'
p2028
aS'aromatic'
p2029
asg38
g39
sg20
S' 4-methoxyaniline'
p2030
sg41
g42
ssS'mobley_7988076'
p2031
(dp2032
g3
S'c1cc(ccc1C=O)O'
p2033
sg27
F-10.0
sg28
F0.03
sg7
(lp2034
g30
asg31
S'4-hydroxybenzaldehyde'
p2035
sg12
I126
sg13
F0.6
sg33
F-8.83
sg15
(lp2036
S'aldehyde'
p2037
aS'phenol or hydroxyhetarene'
p2038
aS'aromatic'
p2039
asg38
g39
sg20
S' 4-hydroxybenzaldehyde'
p2040
sg41
g42
ssS'mobley_6854178'
p2041
(dp2042
g3
S'CC(C)OC=O'
p2043
sg27
F-2.64
sg28
F0.02
sg7
(lp2044
g30
asg31
S'isopropyl formate'
p2045
sg12
I12257
sg13
F0.6
sg33
F-2.02
sg15
(lp2046
S'carboxylic acid ester'
p2047
asg38
g39
sg20
S' isopropyl formate'
p2048
sg41
g42
ssS'mobley_6175884'
p2049
(dp2050
g3
S'Cc1ccc(cc1)C=O'
p2051
sg27
F-4.9
sg28
F0.03
sg7
(lp2052
g30
asg31
S'4-methylbenzaldehyde'
p2053
sg12
I7725
sg13
F0.6
sg33
F-4.27
sg15
(lp2054
S'aldehyde'
p2055
aS'aromatic'
p2056
asg38
g39
sg20
S' 4-methylbenzaldehyde'
p2057
sg41
g42
ssS'mobley_6235784'
p2058
(dp2059
g3
S'CC[C@H](C)Cl'
p2060
sg27
F1.21
sg28
F0.02
sg7
(lp2061
S'Renamed mobley_6235784 from 2-chlorobutane to (2S)-2-chlorobutane (the name from the 3D structure) since the former did not completely specify stereochemistry.\n'
p2062
asg31
S'2-chlorobutane'
p2063
sg12
I6563
sg13
F0.6
sg33
F0.0
sg15
(lp2064
S'alkyl chloride'
p2065
asg38
g39
sg20
S' 2-chlorobutane'
p2066
sg41
g42
ssS'mobley_9100956'
p2067
(dp2068
g3
S'CC1CCCCC1'
p2069
sg27
F1.82
sg28
F0.02
sg7
(lp2070
g30
asg31
S'methylcyclohexane'
p2071
sg12
I7962
sg13
F0.6
sg33
F1.7
sg15
(lp2072
g68
asg38
g39
sg20
S' methylcyclohexane'
p2073
sg41
g42
ssS'mobley_5026370'
p2074
(dp2075
g3
S'c1cnccc1C#N'
p2076
sg27
F-5.01
sg28
F0.02
sg7
(lp2077
g30
asg31
S'pyridine-4-carbonitrile'
p2078
sg12
I7506
sg13
F0.6
sg33
F-6.02
sg15
(lp2079
S'carbonitrile'
p2080
aS'aromatic'
p2081
aS'heterocyclic'
p2082
asg38
g39
sg20
S' pyridine-4-carbonitrile'
p2083
sg41
g42
ssS'mobley_3762186'
p2084
(dp2085
g3
S'C(Cl)Cl'
p2086
sg27
F0.23
sg28
F0.01
sg7
(lp2087
g30
asg31
S'dichloromethane'
p2088
sg12
I6344
sg13
F0.6
sg33
F-1.31
sg15
(lp2089
S'alkyl chloride'
p2090
asg38
g39
sg20
S' dichloromethane'
p2091
sg41
g42
ssS'mobley_1977493'
p2092
(dp2093
g3
S'CCCCl'
p2094
sg27
F0.92
sg28
F0.02
sg7
(lp2095
g30
asg31
S'1-chloropropane'
p2096
sg12
I10899
sg13
F0.6
sg33
F-0.33
sg15
(lp2097
S'alkyl chloride'
p2098
asg38
g39
sg20
S' 1-chloropropane'
p2099
sg41
g42
ssS'mobley_9626434'
p2100
(dp2101
g3
S'CCOCCO'
p2102
sg27
F-4.77
sg28
F0.03
sg7
(lp2103
g30
asg31
S'2-ethoxyethanol'
p2104
sg12
I8076
sg13
F0.6
sg33
F-6.69
sg15
(lp2105
S'primary alcohol'
p2106
aS'dialkyl ether'
p2107
asg38
g39
sg20
S' 2-ethoxyethanol'
p2108
sg41
g42
ssS'mobley_1396156'
p2109
(dp2110
g3
S'c1(c(c(c(c(c1Cl)Cl)Cl)Cl)Cl)N(=O)=O'
p2111
sg420
F-2.26
sg421
F0.05
sg7
(lp2112
g30
asg423
S'pentachloronitrobenzene'
p2113
sg12
I6720
sg425
F0.25
sg426
F-5.22
sg15
(lp2114
S'aryl chloride'
p2115
aS'nitro'
p2116
aS'aromatic'
p2117
asg432
g433
sg20
S' pentachloronitrobenzene'
p2118
sg435
g436
ssS'mobley_9507933'
p2119
(dp2120
g3
S'Cc1ccc(nc1)C'
p2121
sg27
F-2.83
sg28
F0.02
sg7
(lp2122
g30
asg31
S'2,5-dimethylpyridine'
p2123
sg12
I11526
sg13
F0.6
sg33
F-4.72
sg15
(lp2124
S'aromatic'
p2125
aS'heterocyclic'
p2126
asg38
g39
sg20
S' 2,5-dimethylpyridine'
p2127
sg41
g42
ssS'mobley_9913368'
p2128
(dp2129
g3
S'C(=C/Cl)\\Cl'
p2130
sg27
F1.2
sg28
F0.02
sg7
(lp2131
S'Renamed mobley_9913368 from (E)-1,2-dichloroethylene to (E)-1,2-dichloroethylene (the name from the 3D structure) since the former did not completely specify stereochemistry.\n'
p2132
asg31
S'(E)-1,2-dichloroethylene'
p2133
sg12
I638186
sg13
F0.6
sg33
F-0.78
sg15
(lp2134
S'halogen derivative'
p2135
aS'alkene'
p2136
asg38
g39
sg20
S' (E)-1,2-dichloroethylene'
p2137
sg41
g42
ssS'mobley_3167746'
p2138
(dp2139
g3
S'CCCCCCCC'
p2140
sg27
F3.13
sg28
F0.03
sg7
(lp2141
g30
asg31
S'octane'
p2142
sg12
I356
sg13
F0.6
sg33
F2.88
sg15
(lp2143
g68
asg38
g39
sg20
S' octane'
p2144
sg41
g42
ssS'mobley_2725802'
p2145
(dp2146
g3
S'CC(=O)N1CCCC1'
p2147
sg27
F-7.97
sg28
F0.02
sg7
(lp2148
g30
asg31
S'1-pyrrolidin-1-ylethanone'
p2149
sg12
I77650
sg13
F0.6
sg33
F-9.8
sg15
(lp2150
S'tertiary carboxylic acid amide'
p2151
aS'heterocyclic'
p2152
asg38
g39
sg20
S' 1-pyrrolidin-1-ylethanone'
p2153
sg41
g42
ssS'mobley_4678740'
p2154
(dp2155
g3
S'c1cc(cc(c1)C(F)(F)F)C(F)(F)F'
p2156
sg1318
F-0.27
sg1319
F0.04
sg1320
(lp2157
g1322
ag30
aS'Changed IUPAC name from m-bis(trifluoromethyl)benzene to 1,3-bis(trifluoromethyl)benzene for better handling/standardization.'
p2158
ag1323
asg1324
S'm-bis(trifluoromethyl)benzene'
p2159
sg12
I223106
sg13
F0.2
sg1326
F1.07
sg15
(lp2160
S'halogen derivative'
p2161
aS'aromatic'
p2162
asg1329
g1330
sg20
S' m-bis(trifluoromethyl)benzene'
p2163
sg1332
g1330
ssS'mobley_242480'
p2164
(dp2165
g3
S'c1ccc2c(c1)C(=O)c3c(ccc(c3C2=O)N)N'
p2166
sg512
F-14.2
sg513
F0.024
sg7
(lp2167
g30
asg516
S'1,4-diamino-9,10-anthracenedione'
p2168
sg12
I31420
sg518
g519
(g523
S'ffffff\xd6?'
p2169
tp2170
Rp2171
sg529
g519
(g523
S"33333\xb3'\xc0"
p2172
tp2173
Rp2174
sg15
(lp2175
S'ketone'
p2176
aS'primary amine'
p2177
aS'primary aromatic amine'
p2178
aS'aromatic'
p2179
asg535
g536
sg20
S' disperse violet'
p2180
sg538
g539
ssS'mobley_5445548'
p2181
(dp2182
g3
S'CC(C)c1ccccc1'
p2183
sg27
F-0.31
sg28
F0.02
sg7
(lp2184
g30
asg31
S'cumene'
p2185
sg12
I7406
sg13
F0.6
sg33
F-0.3
sg15
(lp2186
S'aromatic'
p2187
asg38
g39
sg20
S' cumene'
p2188
sg41
g42
ssS'mobley_8823527'
p2189
(dp2190
g3
S'c1cc(c(cc1Cl)c2cc(c(c(c2)Cl)Cl)Cl)Cl'
p2191
sg212
F-0.86
sg213
F0.03
sg7
(lp2192
g30
asg215
S'1,2,3-trichloro-5-(2,5-dichlorophenyl)benzene'
p2193
sg12
I63088
sg217
F0.13
sg218
F-3.61
sg15
(lp2194
S'aryl chloride'
p2195
aS'aromatic'
p2196
asg221
g222
sg20
S" 2,3',4',5,5'-pentachloro-biphenyl"
p2197
sg224
g225
ssS'mobley_1019269'
p2198
(dp2199
g3
S'CCCCO'
p2200
sg27
F-3.14
sg28
F0.02
sg7
(lp2201
g30
asg31
S'butan-1-ol'
p2202
sg12
I263
sg13
F0.6
sg33
F-4.72
sg15
(lp2203
S'primary alcohol'
p2204
asg38
g39
sg20
S' butan-1-ol'
p2205
sg41
g42
ssS'mobley_1755375'
p2206
(dp2207
g3
S'Cc1cccc(c1O)C'
p2208
sg27
F-4.09
sg28
F0.03
sg7
(lp2209
g30
asg31
S'2,6-dimethylphenol'
p2210
sg12
I11335
sg13
F0.6
sg33
F-5.26
sg15
(lp2211
S'phenol or hydroxyhetarene'
p2212
aS'aromatic'
p2213
asg38
g39
sg20
S' 2,6-dimethylphenol'
p2214
sg41
g42
ssS'mobley_4371692'
p2215
(dp2216
g3
S'c1ccc2c(c1)C(=O)c3c(ccc(c3C2=O)O)N'
p2217
sg512
F-11.22
sg513
F0.022
sg7
(lp2218
g30
asg516
S'1-amino-4-hydroxy-9,10-anthracenedione'
p2219
sg12
I8323
sg518
g519
(g523
S'\xecQ\xb8\x1e\x85\xeb\xd1?'
p2220
tp2221
Rp2222
sg529
g519
(g523
S'\x8f\xc2\xf5(\\\x0f#\xc0'
p2223
tp2224
Rp2225
sg15
(lp2226
S'ketone'
p2227
aS'phenol or hydroxyhetarene'
p2228
aS'primary amine'
p2229
aS'primary aromatic amine'
p2230
aS'aromatic'
p2231
asg535
g536
sg20
S' 1-amino-4-hydroxyanthraquinone'
p2232
sg538
g539
ssS'mobley_1139153'
p2233
(dp2234
g3
S'CC(C)CC(C)(C)C'
p2235
sg27
F2.93
sg28
F0.03
sg7
(lp2236
g30
asg31
S'2,2,4-trimethylpentane'
p2237
sg12
I10907
sg13
F0.6
sg33
F2.89
sg15
(lp2238
g68
asg38
g39
sg20
S' 2,2,4-trimethylpentane'
p2239
sg41
g42
ssS'mobley_5471704'
p2240
(dp2241
g3
S'CC(C)CCOC(=O)C'
p2242
sg27
F-3.05
sg28
F0.03
sg7
(lp2243
g30
asg31
S'isopentyl acetate'
p2244
sg12
I31276
sg13
F0.6
sg33
F-2.21
sg15
(lp2245
S'carboxylic acid ester'
p2246
asg38
g39
sg20
S' isopentyl acetate'
p2247
sg41
g42
ssS'mobley_6060301'
p2248
(dp2249
g3
S'CCCCCCN'
p2250
sg27
F-2.54
sg28
F0.02
sg7
(lp2251
g30
asg31
S'hexan-1-amine'
p2252
sg12
I8102
sg13
F0.6
sg33
F-3.95
sg15
(lp2253
S'primary amine'
p2254
aS'primary aliphatic amine (alkylamine)'
p2255
asg38
g39
sg20
S' hexan-1-amine'
p2256
sg41
g42
ssS'mobley_588781'
p2257
(dp2258
g3
S'CCCCCCc1ccccc1'
p2259
sg27
F0.24
sg28
F0.03
sg7
(lp2260
g30
asg31
S'hexylbenzene'
p2261
sg12
I14109
sg13
F0.6
sg33
F-0.04
sg15
(lp2262
S'aromatic'
p2263
asg38
g39
sg20
S' hexylbenzene'
p2264
sg41
g42
ssS'mobley_2354112'
p2265
(dp2266
g3
S'CCc1cccc(c1)O'
p2267
sg27
F-5.02
sg28
F0.03
sg7
(lp2268
g30
asg31
S'3-ethylphenol'
p2269
sg12
I12101
sg13
F0.6
sg33
F-6.25
sg15
(lp2270
S'phenol or hydroxyhetarene'
p2271
aS'aromatic'
p2272
asg38
g39
sg20
S' 3-ethylphenol'
p2273
sg41
g42
ssS'mobley_8772587'
p2274
(dp2275
g3
S'CCCCI'
p2276
sg27
F0.58
sg28
F0.02
sg7
(lp2277
g30
asg31
S'1-iodobutane'
p2278
sg12
I10962
sg13
F0.6
sg33
F-0.25
sg15
(lp2279
S'alkyl iodide'
p2280
asg38
g39
sg20
S' 1-iodobutane'
p2281
sg41
g42
ssS'mobley_5456566'
p2282
(dp2283
g3
S'c1(c(c(c(c(c1Cl)Cl)Cl)Cl)Cl)c2c(c(c(c(c2Cl)Cl)Cl)Cl)Cl'
p2284
sg212
F0.87
sg213
F0.06
sg7
(lp2285
g30
asg215
S'1,2,3,4,5-pentachloro-6-(2,3,4,5,6-pentachlorophenyl)benzene'
p2286
sg12
I16318
sg217
F1.0
sg218
F-2.98
sg15
(lp2287
S'aryl chloride'
p2288
aS'aromatic'
p2289
asg221
g222
sg20
S' decachlorobiphenyl'
p2290
sg224
g225
ssS'mobley_2371092'
p2291
(dp2292
g3
S'Cc1ccncc1C'
p2293
sg27
F-3.18
sg28
F0.02
sg7
(lp2294
g30
asg31
S'3,4-dimethylpyridine'
p2295
sg12
I11417
sg13
F0.6
sg33
F-5.22
sg15
(lp2296
S'aromatic'
p2297
aS'heterocyclic'
p2298
asg38
g39
sg20
S' 3,4-dimethylpyridine'
p2299
sg41
g42
ssS'mobley_1328936'
p2300
(dp2301
g3
S'COC(=O)c1ccc(cc1)[N+](=O)[O-]'
p2302
sg27
F-6.39
sg28
F0.03
sg7
(lp2303
g30
asg31
S'methyl 4-nitrobenzoate'
p2304
sg12
I12083
sg13
F0.6
sg33
F-6.88
sg15
(lp2305
S'carboxylic acid ester'
p2306
aS'nitro'
p2307
aS'aromatic'
p2308
asg38
g653
sg20
S' methyl 4-nitrobenzoate'
p2309
sg41
g42
ssS'mobley_5499659'
p2310
(dp2311
g3
S'Cn1ccnc1'
p2312
sg27
F-6.33
sg28
F0.03
sg7
(lp2313
g30
asg31
S'1-methylimidazole'
p2314
sg12
I1390
sg13
F0.6
sg33
F-8.41
sg15
(lp2315
S'aromatic'
p2316
aS'heterocyclic'
p2317
asg38
g39
sg20
S' 1-methylimidazole'
p2318
sg41
g42
ssS'mobley_2792521'
p2319
(dp2320
g3
S'CCC/C=C/C=O'
p2321
sg27
F-3.22
sg28
F0.02
sg7
(lp2322
S'Renamed mobley_2792521 from hex-2-enal to (E)-hex-2-enal (the name from the 3D structure) since the former did not completely specify stereochemistry.\n'
p2323
aS'Experimental value provided by J. Peter Guthrie, University of Western Ontario, 10/23/2013, as a weighted average of the Buttery et al. and Karl et al. values noted in the experimental reference field.'
p2324
asg31
S'(2E)-hex-2-enal'
p2325
sg12
I5281168
sg13
F0.6
sg33
F-3.68
sg15
(lp2326
S'aldehyde'
p2327
aS'alkene'
p2328
asg38
S'10.1021/jf60178a004 and 10.1016/S1387-3806(02)00927-2'
p2329
sg20
S' (2E)-hex-2-enal'
p2330
sg41
g42
ssS'mobley_9974966'
p2331
(dp2332
g3
S'CC(C)SC(C)C'
p2333
sg27
F0.1
sg28
F0.02
sg7
(lp2334
g30
asg31
S'2-isopropylsulfanylpropane'
p2335
sg12
I12264
sg13
F0.6
sg33
F-1.21
sg15
(lp2336
S'thioether'
p2337
asg38
g39
sg20
S' 2-isopropylsulfanylpropane'
p2338
sg41
g42
ssS'mobley_6733657'
p2339
(dp2340
g3
S'C1[C@H]([C@@H]2[C@H]([C@H]1Cl)[C@]3(C(=C([C@@]2(C3(Cl)Cl)Cl)Cl)Cl)Cl)Cl'
p2341
sg177
F-3.25
sg178
F0.03
sg7
(lp2342
g30
asg180
S'chlordane'
p2343
sg12
I5993
sg182
F0.1
sg183
F-3.44
sg15
(lp2344
S'alkyl chloride'
p2345
aS'alkene'
p2346
asg186
g187
sg20
S' chlordane'
p2347
sg189
g190
ssS'mobley_6082662'
p2348
(dp2349
g3
S'c1cc(ccc1N)N(=O)=O'
p2350
sg420
F-10.38
sg421
F0.05
sg7
(lp2351
g30
asg423
S'4-nitroaniline'
p2352
sg12
I7475
sg425
F0.1
sg426
F-9.82
sg15
(lp2353
S'primary amine'
p2354
aS'primary aromatic amine'
p2355
aS'nitro'
p2356
aS'aromatic'
p2357
asg432
g433
sg20
S' 4-nitroaniline'
p2358
sg435
g436
ssS'mobley_2310185'
p2359
(dp2360
g3
S'CCO'
p2361
sg27
F-3.45
sg28
F0.03
sg7
(lp2362
g30
asg31
S'ethanol'
p2363
sg12
I702
sg13
F0.6
sg33
F-5.0
sg15
(lp2364
S'primary alcohol'
p2365
asg38
g39
sg20
S' ethanol'
p2366
sg41
g42
ssS'mobley_7099614'
p2367
(dp2368
g3
S'C=CCCl'
p2369
sg27
F0.88
sg28
F0.02
sg7
(lp2370
g30
asg31
S'3-chloroprop-1-ene'
p2371
sg12
I7850
sg13
F0.6
sg33
F-0.57
sg15
(lp2372
S'alkyl chloride'
p2373
aS'alkene'
p2374
asg38
g39
sg20
S' 3-chloroprop-1-ene'
p2375
sg41
g42
ssS'mobley_7859387'
p2376
(dp2377
g3
S'CCCCCCC=O'
p2378
sg27
F-2.63
sg28
F0.03
sg7
(lp2379
g30
asg31
S'heptanal'
p2380
sg12
I8130
sg13
F0.6
sg33
F-2.67
sg15
(lp2381
S'aldehyde'
p2382
asg38
g39
sg20
S' heptanal'
p2383
sg41
g42
ssS'mobley_63712'
p2384
(dp2385
g3
S'CN1CCCCC1'
p2386
sg27
F-3.21
sg28
F0.02
sg7
(lp2387
g30
asg31
S'1-methylpiperidine'
p2388
sg12
I12291
sg13
F0.6
sg33
F-3.88
sg15
(lp2389
S'tertiary amine'
p2390
aS'tertiary aliphatic amine (trialkylamine)'
p2391
aS'heterocyclic'
p2392
asg38
g39
sg20
S' 1-methylpiperidine'
p2393
sg41
g42
ssS'mobley_3060426'
p2394
(dp2395
g3
S'CC(C)CCC(C)(C)C'
p2396
sg27
F2.86
sg28
F0.03
sg7
(lp2397
g30
asg31
S'2,2,5-trimethylhexane'
p2398
sg12
I19041
sg13
F0.6
sg33
F2.93
sg15
(lp2399
g68
asg38
g39
sg20
S' 2,2,5-trimethylhexane'
p2400
sg41
g42
ssS'mobley_5282042'
p2401
(dp2402
g3
S'CN(C)CCC=C1c2ccccc2CCc3c1cccc3'
p2403
sg512
F-8.28
sg513
F0.031
sg7
(lp2404
g30
asg516
S'Amitriptyline'
p2405
sg12
I2160
sg518
F0.6
sg529
F-7.43
sg15
(lp2406
S'tertiary amine'
p2407
aS'tertiary aliphatic amine (trialkylamine)'
p2408
aS'alkene'
p2409
aS'aromatic'
p2410
asg535
g536
sg20
S' amitriptyline'
p2411
sg538
g539
ssS'mobley_2607611'
p2412
(dp2413
g3
S'CCCCCCOC(=O)C'
p2414
sg27
F-2.97
sg28
F0.03
sg7
(lp2415
g30
asg31
S'hexyl acetate'
p2416
sg12
I8908
sg13
F0.6
sg33
F-2.26
sg15
(lp2417
S'carboxylic acid ester'
p2418
asg38
g39
sg20
S' hexyl acetate'
p2419
sg41
g42
ssS'mobley_1036761'
p2420
(dp2421
g3
S'C1CCC(CC1)N'
p2422
sg27
F-3.94
sg28
F0.02
sg7
(lp2423
g30
asg31
S'cyclohexanamine'
p2424
sg12
I7965
sg13
F0.6
sg33
F-4.59
sg15
(lp2425
S'primary amine'
p2426
aS'primary aliphatic amine (alkylamine)'
p2427
asg38
g39
sg20
S' cyclohexanamine'
p2428
sg41
g42
ssS'mobley_4893032'
p2429
(dp2430
g3
S'CCCCC#N'
p2431
sg27
F-2.16
sg28
F0.02
sg7
(lp2432
g30
asg31
S'pentanenitrile'
p2433
sg12
I8061
sg13
F0.6
sg33
F-3.52
sg15
(lp2434
S'carbonitrile'
p2435
asg38
g39
sg20
S' pentanenitrile'
p2436
sg41
g42
ssS'mobley_8558116'
p2437
(dp2438
g3
S'CN1CCOCC1'
p2439
sg27
F-5.87
sg28
F0.03
sg7
(lp2440
g30
asg31
S'4-methylmorpholine'
p2441
sg12
I7972
sg13
F0.6
sg33
F-6.32
sg15
(lp2442
S'dialkyl ether'
p2443
aS'tertiary amine'
p2444
aS'tertiary aliphatic amine (trialkylamine)'
p2445
aS'heterocyclic'
p2446
asg38
g39
sg20
S' 4-methylmorpholine'
p2447
sg41
g42
ssS'mobley_5518547'
p2448
(dp2449
g3
S'Cc1ccc(cc1)N'
p2450
sg27
F-5.56
sg28
F0.03
sg7
(lp2451
g30
asg31
S'4-methylaniline'
p2452
sg12
I7813
sg13
F0.6
sg33
F-5.57
sg15
(lp2453
S'primary amine'
p2454
aS'primary aromatic amine'
p2455
aS'aromatic'
p2456
asg38
g39
sg20
S' 4-methylaniline'
p2457
sg41
g42
ssS'mobley_3378420'
p2458
(dp2459
g3
S'CCCCCCCCCO'
p2460
sg27
F-2.54
sg28
F0.03
sg7
(lp2461
g30
asg31
S'nonan-1-ol'
p2462
sg12
I8914
sg13
F0.6
sg33
F-3.88
sg15
(lp2463
S'primary alcohol'
p2464
asg38
g39
sg20
S' nonan-1-ol'
p2465
sg41
g42
ssS'mobley_9794857'
p2466
(dp2467
g3
S'CC(C)(C)OC'
p2468
sg27
F-0.68
sg28
F0.02
sg7
(lp2469
g30
asg31
S'2-methoxy-2-methyl-propane'
p2470
sg12
I15413
sg13
F0.6
sg33
F-2.21
sg15
(lp2471
S'dialkyl ether'
p2472
asg38
g1460
sg20
S' 2-methoxy-2-methyl-propane'
p2473
sg41
g42
ssS'mobley_6456034'
p2474
(dp2475
g3
S'CC(C)COC(=O)C(C)C'
p2476
sg27
F-2.55
sg28
F0.03
sg7
(lp2477
g30
asg31
S'isobutyl 2-methylpropanoate'
p2478
sg12
I7351
sg13
F0.6
sg33
F-1.69
sg15
(lp2479
S'carboxylic acid ester'
p2480
asg38
g39
sg20
S' isobutyl 2-methylpropanoate'
p2481
sg41
g42
ssS'mobley_3573480'
p2482
(dp2483
g3
S'CCCCCC(=O)C'
p2484
sg27
F-2.8
sg28
F0.02
sg7
(lp2485
g30
asg31
S'heptan-2-one'
p2486
sg12
I8051
sg13
F0.6
sg33
F-3.04
sg15
(lp2487
S'ketone'
p2488
asg38
g39
sg20
S' heptan-2-one'
p2489
sg41
g42
ssS'mobley_676247'
p2490
(dp2491
g3
S'C(F)(F)(F)F'
p2492
sg27
F2.42
sg28
F0.01
sg7
(lp2493
g30
asg31
S'tetrafluoromethane'
p2494
sg12
I6393
sg13
F0.6
sg33
F3.12
sg15
(lp2495
S'halogen derivative'
p2496
asg38
g39
sg20
S' tetrafluoromethane'
p2497
sg41
g42
ssS'mobley_5760563'
p2498
(dp2499
g3
S'COS(=O)(=O)OC'
p2500
sg27
F-7.85
sg28
F0.02
sg7
(lp2501
g30
asg31
S'dimethyl sulfate'
p2502
sg12
I6497
sg13
F0.6
sg33
F-5.1
sg15
(lp2503
S'sulfuric acid diester'
p2504
asg38
S'10.1139/v78-385'
p2505
sg20
S' dimethyl sulfate'
p2506
sg41
g42
ssS'mobley_8754702'
p2507
(dp2508
g3
S'CCCOC=O'
p2509
sg27
F-3.5
sg28
F0.02
sg7
(lp2510
g30
asg31
S'propyl formate'
p2511
sg12
I8073
sg13
F0.6
sg33
F-2.48
sg15
(lp2512
S'carboxylic acid ester'
p2513
asg38
g39
sg20
S' propyl formate'
p2514
sg41
g42
ssS'mobley_1424265'
p2515
(dp2516
g3
S'Cc1cccc(c1)C'
p2517
sg27
F-0.17
sg28
F0.02
sg7
(lp2518
g30
asg31
S'm-xylene'
p2519
sg12
I7929
sg13
F0.6
sg33
F-0.83
sg15
(lp2520
S'aromatic'
p2521
asg38
g39
sg20
S' m-xylene'
p2522
sg41
g42
ssS'mobley_3169935'
p2523
(dp2524
g3
S'c1ccc(c(c1)N)Cl'
p2525
sg27
F-4.96
sg28
F0.03
sg7
(lp2526
g30
asg31
S'2-chloroaniline'
p2527
sg12
I7240
sg13
F0.6
sg33
F-4.91
sg15
(lp2528
S'primary amine'
p2529
aS'primary aromatic amine'
p2530
aS'aryl chloride'
p2531
aS'aromatic'
p2532
asg38
g39
sg20
S' 2-chloroaniline'
p2533
sg41
g42
ssS'mobley_5311804'
p2534
(dp2535
g3
S'c1ccc(cc1)CO'
p2536
sg27
F-5.41
sg28
F0.03
sg7
(lp2537
g30
asg31
S'phenylmethanol'
p2538
sg12
I244
sg13
F0.6
sg33
F-6.62
sg15
(lp2539
S'primary alcohol'
p2540
aS'aromatic'
p2541
asg38
g39
sg20
S' phenylmethanol'
p2542
sg41
g42
ssS'mobley_6115639'
p2543
(dp2544
g3
S'COP(=O)(OC)OC'
p2545
sg420
F-11.36
sg421
F0.06
sg7
(lp2546
g30
asg423
S'trimethyl phosphate'
p2547
sg12
I10541
sg425
F0.1
sg426
F-8.7
sg15
(lp2548
S'phosphoric acid ester'
p2549
asg432
g433
sg20
S' trimethyl phosphate'
p2550
sg435
g436
ssS'mobley_6714389'
p2551
(dp2552
g3
S'CN'
p2553
sg27
F-3.44
sg28
F0.01
sg7
(lp2554
g30
asg31
S'methanamine'
p2555
sg12
I6329
sg13
F0.6
sg33
F-4.55
sg15
(lp2556
S'primary amine'
p2557
aS'primary aliphatic amine (alkylamine)'
p2558
asg38
g39
sg20
S' methanamine'
p2559
sg41
g42
ssS'mobley_9015240'
p2560
(dp2561
g3
S'CCCCCCCCBr'
p2562
sg27
F1.92
sg28
F0.03
sg7
(lp2563
g30
asg31
S'1-bromooctane'
p2564
sg12
I8140
sg13
F0.6
sg33
F0.52
sg15
(lp2565
S'alkyl bromide'
p2566
asg38
g39
sg20
S' 1-bromooctane'
p2567
sg41
g42
ssS'mobley_1417007'
p2568
(dp2569
g3
S'C1C=CC[C@@H]2[C@@H]1C(=O)N(C2=O)SC(Cl)(Cl)Cl'
p2570
sg177
F-8.71
sg178
F0.04
sg7
(lp2571
S'Renamed mobley_1417007 from captan to (3aR,7aR)-2-(trichloromethylsulfanyl)-3a,4,7,7a-tetrahydroisoindole-1,3-dione (the name from the 3D structure) since the former did not completely specify stereochemistry.\n'
p2572
asg180
S'captan'
p2573
sg12
I8606
sg182
F1.93
sg183
F-9.01
sg15
(lp2574
S'halogen derivative'
p2575
aS'carboxylic acid imide, N-substituted'
p2576
aS'alkene'
p2577
aS'heterocyclic'
p2578
asg186
g187
sg20
S' captan'
p2579
sg189
g190
ssS'mobley_2681549'
p2580
(dp2581
g3
S'c1c(cc(cc1Cl)Cl)Cl'
p2582
sg27
F0.45
sg28
F0.02
sg7
(lp2583
g30
asg31
S'1,3,5-trichlorobenzene'
p2584
sg12
I7950
sg13
F0.6
sg33
F-0.78
sg15
(lp2585
S'aryl chloride'
p2586
aS'aromatic'
p2587
asg38
g39
sg20
S' 1,3,5-trichlorobenzene'
p2588
sg41
g42
ssS'mobley_4287564'
p2589
(dp2590
g3
S'Cc1ccccn1'
p2591
sg27
F-3.41
sg28
F0.02
sg7
(lp2592
g30
asg31
S'2-methylpyridine'
p2593
sg12
I7975
sg13
F0.6
sg33
F-4.63
sg15
(lp2594
S'aromatic'
p2595
aS'heterocyclic'
p2596
asg38
g39
sg20
S' 2-methylpyridine'
p2597
sg41
g42
ssS'mobley_2043882'
p2598
(dp2599
g3
S'CC(=O)C1CCCCC1'
p2600
sg27
F-3.9
sg28
F0.02
sg7
(lp2601
g30
asg31
S'1-cyclohexylethanone'
p2602
sg12
I13207
sg13
F0.6
sg33
F-3.9
sg15
(lp2603
S'ketone'
p2604
asg38
g39
sg20
S' 1-cyclohexylethanone'
p2605
sg41
g42
ssS'mobley_352111'
p2606
(dp2607
g3
S'CC(=O)OCCOC(=O)C'
p2608
sg27
F-8.32
sg28
F0.04
sg7
(lp2609
g30
asg31
S'2-acetoxyethyl acetate'
p2610
sg12
I8121
sg13
F0.6
sg33
F-6.34
sg15
(lp2611
S'carboxylic acid ester'
p2612
asg38
g39
sg20
S' 2-acetoxyethyl acetate'
p2613
sg41
g42
ssS'mobley_3686115'
p2614
(dp2615
g3
S'CCOC(C)OCC'
p2616
sg1318
F-1.89
sg1319
F0.08
sg1320
(lp2617
g1322
ag30
ag1323
asg1324
S'1,1-diethoxyethane'
p2618
sg12
I7765
sg13
F0.2
sg1326
F-3.28
sg15
(lp2619
S'acetal'
p2620
asg1329
g1330
sg20
S' 1,1-diethoxyethane'
p2621
sg1332
g1330
ssS'mobley_8337722'
p2622
(dp2623
g3
S'C[C@@H]1CC[C@H]([C@@H](C1)O)C(C)C'
p2624
sg512
F-3.39
sg513
F0.021
sg7
(lp2625
g30
asg516
S'(1R,2S,5R)-2-isopropyl-5-methylcyclohexanol'
p2626
sg12
I16666
sg518
F0.28
sg529
F-3.2
sg15
(lp2627
S'secondary alcohol'
p2628
asg535
g536
sg20
S' i-menthol'
p2629
sg538
g539
ssS'mobley_7326706'
p2630
(dp2631
g3
S'CCOP(=S)(OCC)Oc1c(cc(c(n1)Cl)Cl)Cl'
p2632
sg177
F-9.05
sg178
F0.04
sg7
(lp2633
g30
asg180
S'chlorpyrifos'
p2634
sg12
I2730
sg182
F0.21
sg183
F-5.04
sg15
(lp2635
S'aryl chloride'
p2636
aS'thiophosphoric acid ester'
p2637
aS'aromatic'
p2638
aS'heterocyclic'
p2639
asg186
g187
sg20
S' chlorpyrifos'
p2640
sg189
g190
ssS'mobley_3144334'
p2641
(dp2642
g3
S'Cc1ccc(c(c1)O)C'
p2643
sg27
F-4.39
sg28
F0.03
sg7
(lp2644
g30
asg31
S'2,5-dimethylphenol'
p2645
sg12
I7267
sg13
F0.6
sg33
F-5.91
sg15
(lp2646
S'phenol or hydroxyhetarene'
p2647
aS'aromatic'
p2648
asg38
g39
sg20
S' 2,5-dimethylphenol'
p2649
sg41
g42
ssS'mobley_7608462'
p2650
(dp2651
g3
S'c1ccc(cc1)Cl'
p2652
sg27
F-0.6
sg28
F0.02
sg7
(lp2653
g30
asg31
S'chlorobenzene'
p2654
sg12
I7964
sg13
F0.6
sg33
F-1.12
sg15
(lp2655
S'aryl chloride'
p2656
aS'aromatic'
p2657
asg38
g39
sg20
S' chlorobenzene'
p2658
sg41
g42
ssS'mobley_2078467'
p2659
(dp2660
g3
S'C[C@@H](c1ccc(cc1)CC(C)C)C(=O)O'
p2661
sg420
F-6.91
sg421
F0.07
sg7
(lp2662
g30
asg423
S'ibuprofen'
p2663
sg12
I3672
sg425
F0.64
sg426
F-7.0
sg15
(lp2664
S'carboxylic acid'
p2665
aS'aromatic'
p2666
asg432
g433
sg20
S' ibuprofen'
p2667
sg435
g436
ssS'mobley_5973402'
p2668
(dp2669
g3
S'CC(C)CCO'
p2670
sg27
F-2.92
sg28
F0.03
sg7
(lp2671
g30
asg31
S'3-methylbutan-1-ol'
p2672
sg12
I31260
sg13
F0.6
sg33
F-4.42
sg15
(lp2673
S'primary alcohol'
p2674
asg38
g39
sg20
S' 3-methylbutan-1-ol'
p2675
sg41
g42
ssS'mobley_6353617'
p2676
(dp2677
g3
S'CC(=O)c1cccnc1'
p2678
sg27
F-7.1
sg28
F0.03
sg7
(lp2679
g30
asg31
S'1-(3-pyridyl)ethanone'
p2680
sg12
I9589
sg13
F0.6
sg33
F-8.26
sg15
(lp2681
S'ketone'
p2682
aS'aromatic'
p2683
aS'heterocyclic'
p2684
asg38
g39
sg20
S' 1-(3-pyridyl)ethanone'
p2685
sg41
g42
ssS'mobley_2261979'
p2686
(dp2687
g3
S'c1cc2cccc3c2c(c1)CC3'
p2688
sg27
F-3.51
sg28
F0.03
sg7
(lp2689
g30
asg31
S'acenaphthene'
p2690
sg12
I6734
sg13
F0.6
sg33
F-3.15
sg15
(lp2691
S'aromatic'
p2692
asg38
g39
sg20
S' acenaphthene'
p2693
sg41
g42
ssS'mobley_4715906'
p2694
(dp2695
g3
S'C[C@@H]1CCCC[C@@H]1C'
p2696
sg27
F2.05
sg28
F0.02
sg7
(lp2697
S'Renamed mobley_4715906 from 1,2-dimethylcyclohexane to (1R,2S)-1,2-dimethylcyclohexane (the name from the 3D structure) since the former did not completely specify stereochemistry.\n'
p2698
asg31
S'1,2-dimethylcyclohexane'
p2699
sg12
I11416
sg13
F0.6
sg33
F1.58
sg15
(lp2700
g68
asg38
g39
sg20
S' 1,2-dimethylcyclohexane'
p2701
sg41
g42
ssS'mobley_5952846'
p2702
(dp2703
g3
S'C(=C(Cl)Cl)(Cl)Cl'
p2704
sg27
F1.41
sg28
F0.02
sg7
(lp2705
g30
asg31
S'1,1,2,2-tetrachloroethylene'
p2706
sg12
I31373
sg13
F0.6
sg33
F0.1
sg15
(lp2707
S'halogen derivative'
p2708
asg38
g39
sg20
S' 1,1,2,2-tetrachloroethylene'
p2709
sg41
g42
ssS'mobley_1903702'
p2710
(dp2711
g3
S'CC[C@H](C)O'
p2712
sg27
F-3.12
sg28
F0.03
sg7
(lp2713
S'Renamed mobley_1903702 from butan-2-ol to (2S)-butan-2-ol (the name from the 3D structure) since the former did not completely specify stereochemistry.\n'
p2714
asg31
S'butan-2-ol'
p2715
sg12
I6568
sg13
F0.6
sg33
F-4.62
sg15
(lp2716
S'secondary alcohol'
p2717
asg38
g39
sg20
S' butan-2-ol'
p2718
sg41
g42
ssS'mobley_5220185'
p2719
(dp2720
g3
S'CCc1cnccn1'
p2721
sg27
F-5.68
sg28
F0.03
sg7
(lp2722
g30
asg31
S'2-ethylpyrazine'
p2723
sg12
I26331
sg13
F0.6
sg33
F-5.45
sg15
(lp2724
S'aromatic'
p2725
aS'heterocyclic'
p2726
asg38
g39
sg20
S' 2-ethylpyrazine'
p2727
sg41
g42
ssS'mobley_5510474'
p2728
(dp2729
g3
S'c1ccc2c(c1)Oc3c(c(c(c(c3Cl)Cl)Cl)Cl)O2'
p2730
sg212
F-2.7
sg213
F0.03
sg7
(lp2731
g30
asg215
S'1,2,3,4-tetrachlorodibenzo-p-dioxin'
p2732
sg12
I35454
sg217
F0.14
sg218
F-3.81
sg15
(lp2733
S'diaryl ether'
p2734
aS'aryl chloride'
p2735
aS'aromatic'
p2736
aS'heterocyclic'
p2737
asg221
g222
sg20
S' 1,2,3,4-tetrachlorodibenzo-p-dioxin'
p2738
sg224
g225
ssS'mobley_3980099'
p2739
(dp2740
g3
S'c1cc(c(c(c1)Cl)Cl)Cl'
p2741
sg27
F-0.38
sg28
F0.02
sg7
(lp2742
g30
asg31
S'1,2,3-trichlorobenzene'
p2743
sg12
I6895
sg13
F0.6
sg33
F-1.24
sg15
(lp2744
S'aryl chloride'
p2745
aS'aromatic'
p2746
asg38
g39
sg20
S' 1,2,3-trichlorobenzene'
p2747
sg41
g42
ssS'mobley_2501588'
p2748
(dp2749
g3
S'CCC[N@@](CC1CC1)c2c(cc(cc2[N+](=O)[O-])C(F)(F)F)[N+](=O)[O-]'
p2750
sg177
F-1.81
sg178
F0.04
sg7
(lp2751
g30
asg180
S'profluralin'
p2752
sg12
I33500
sg182
F1.37
sg183
F-2.45
sg15
(lp2753
S'tertiary amine'
p2754
aS'tertiary aliphatic/aromatic amine (alkylarylamine)'
p2755
aS'halogen derivative'
p2756
aS'nitro'
p2757
aS'aromatic'
p2758
asg186
g187
sg20
S' profluralin'
p2759
sg189
g190
ssS'mobley_3968739'
p2760
(dp2761
g3
S'COC(=O)c1ccccc1'
p2762
sg27
F-5.06
sg28
F0.03
sg7
(lp2763
g30
asg31
S'methyl benzoate'
p2764
sg12
I7150
sg13
F0.6
sg33
F-3.92
sg15
(lp2765
S'carboxylic acid ester'
p2766
aS'aromatic'
p2767
asg38
g39
sg20
S' methyl benzoate'
p2768
sg41
g42
ssS'mobley_9897248'
p2769
(dp2770
g3
S'CC(=CCC/C(=C\\CO)/C)C'
p2771
sg512
F-2.64
sg513
F0.022
sg7
(lp2772
g30
aS'Former IUPAC name Nerol replaced with one generated from the 3D structure, (2Z)-3,7-dimethylocta-2,6-dien-1-ol'
p2773
asg516
S'(2Z)-3,7-dimethylocta-2,6-dien-1-ol'
p2774
sg12
I643820
sg518
g519
(g523
S'\x00\x00\x00\x00\x00\x00\xd0?'
p2775
tp2776
Rp2777
sg529
g519
(g523
S'\x1f\x85\xebQ\xb8\x1e\x13\xc0'
p2778
tp2779
Rp2780
sg15
(lp2781
S'primary alcohol'
p2782
aS'alkene'
p2783
asg535
g536
sg20
S' nerol'
p2784
sg538
g539
ssS'mobley_3727287'
p2785
(dp2786
g3
S'C1=CC(=O)C=CC1=O'
p2787
sg5
F-6.9
sg6
F0.1
sg7
(lp2788
g9
asg10
S'quinone'
p2789
sg12
I4650
sg13
F0.2
sg14
F-6.5
sg15
(lp2790
S'ketone'
p2791
aS'alkene'
p2792
asg18
g19
sg20
S' quinone'
p2793
sg22
g23
ssS'mobley_4924862'
p2794
(dp2795
g3
S'CC(C)CCOC=O'
p2796
sg27
F-3.39
sg28
F0.02
sg7
(lp2797
g30
asg31
S'isopentyl formate'
p2798
sg12
I8052
sg13
F0.6
sg33
F-2.13
sg15
(lp2799
S'carboxylic acid ester'
p2800
asg38
g39
sg20
S' isopentyl formate'
p2801
sg41
g42
ssS'mobley_6620221'
p2802
(dp2803
g3
S'CC1(Cc2cccc(c2O1)OC(=O)NC)C'
p2804
sg177
F-11.21
sg178
F0.04
sg7
(lp2805
g30
asg180
S'carbofuran'
p2806
sg12
I2566
sg182
F0.3
sg183
F-9.61
sg15
(lp2807
S'alkyl aryl ether'
p2808
aS'carbamic acid ester (urethane)'
p2809
aS'aromatic'
p2810
aS'heterocyclic'
p2811
asg186
g187
sg20
S' carbofuran'
p2812
sg189
g190
ssS'mobley_3370989'
p2813
(dp2814
g3
S'CC(F)F'
p2815
sg27
F0.19
sg28
F0.02
sg7
(lp2816
g30
asg31
S'1,1-difluoroethane'
p2817
sg12
I6368
sg13
F0.6
sg33
F-0.11
sg15
(lp2818
S'alkyl fluoride'
p2819
asg38
g39
sg20
S' 1,1-difluoroethane'
p2820
sg41
g42
ssS'mobley_6232400'
p2821
(dp2822
g3
S'c1cc(cnc1)C=O'
p2823
sg27
F-7.64
sg28
F0.03
sg7
(lp2824
g30
asg31
S'pyridine-3-carbaldehyde'
p2825
sg12
I10371
sg13
F0.6
sg33
F-7.1
sg15
(lp2826
S'aldehyde'
p2827
aS'aromatic'
p2828
aS'heterocyclic'
p2829
asg38
g39
sg20
S' pyridine-3-carbaldehyde'
p2830
sg41
g42
ssS'mobley_5056289'
p2831
(dp2832
g3
S'C[C@H]1CCCO1'
p2833
sg27
F-1.95
sg28
F0.02
sg7
(lp2834
S'Renamed mobley_5056289 from 2-methyltetrahydrofuran to (2S)-2-methyltetrahydrofuran (the name from the 3D structure) since the former did not completely specify stereochemistry.\n'
p2835
asg31
S'2-methyltetrahydrofuran'
p2836
sg12
I7301
sg13
F0.6
sg33
F-3.3
sg15
(lp2837
S'dialkyl ether'
p2838
aS'heterocyclic'
p2839
asg38
g39
sg20
S' 2-methyltetrahydrofuran'
p2840
sg41
g42
ssS'mobley_6358463'
p2841
(dp2842
g3
S'c1ccc(c(c1)C(F)(F)F)C(F)(F)F'
p2843
sg27
F-1.58
sg28
F0.03
sg7
(lp2844
g30
asg31
S'1,2-bis(trifluoromethyl)benzene'
p2845
sg12
I9818
sg13
F0.6
sg33
F1.07
sg15
(lp2846
S'halogen derivative'
p2847
aS'aromatic'
p2848
asg38
g39
sg20
S' 1,2-bis(trifluoromethyl)benzene'
p2849
sg41
g42
ssS'mobley_1722522'
p2850
(dp2851
g3
S'CCCC(=O)OCC'
p2852
sg27
F-3.04
sg28
F0.02
sg7
(lp2853
g30
asg31
S'ethyl butanoate'
p2854
sg12
I7762
sg13
F0.6
sg33
F-2.49
sg15
(lp2855
S'carboxylic acid ester'
p2856
asg38
g39
sg20
S' ethyl butanoate'
p2857
sg41
g42
ssS'mobley_1261349'
p2858
(dp2859
g3
S'CC(C)(C)C'
p2860
sg27
F2.6
sg28
F0.02
sg7
(lp2861
g30
asg31
S'neopentane'
p2862
sg12
I10041
sg13
F0.6
sg33
F2.51
sg15
(lp2863
g68
asg38
g39
sg20
S' neopentane'
p2864
sg41
g42
ssS'mobley_1363784'
p2865
(dp2866
g3
S'Cc1cc(cnc1)C'
p2867
sg27
F-2.94
sg28
F0.02
sg7
(lp2868
g30
asg31
S'3,5-dimethylpyridine'
p2869
sg12
I11565
sg13
F0.6
sg33
F-4.84
sg15
(lp2870
S'aromatic'
p2871
aS'heterocyclic'
p2872
asg38
g39
sg20
S' 3,5-dimethylpyridine'
p2873
sg41
g42
ssS'mobley_628086'
p2874
(dp2875
g3
S'C[C@@H](C(F)(F)F)O'
p2876
sg27
F-3.56
sg28
F0.03
sg7
(lp2877
S'Renamed mobley_628086 from 1,1,1-trifluoropropan-2-ol to (2S)-1,1,1-trifluoropropan-2-ol (the name from the 3D structure) since the former did not completely specify stereochemistry.\n'
p2878
asg31
S'1,1,1-trifluoropropan-2-ol'
p2879
sg12
I9774
sg13
F0.6
sg33
F-4.16
sg15
(lp2880
S'secondary alcohol'
p2881
aS'halogen derivative'
p2882
asg38
g39
sg20
S' 1,1,1-trifluoropropan-2-ol'
p2883
sg41
g42
ssS'mobley_7599023'
p2884
(dp2885
g3
S'c1ccc(cc1)Br'
p2886
sg27
F-0.37
sg28
F0.02
sg7
(lp2887
g30
asg31
S'bromobenzene'
p2888
sg12
I7961
sg13
F0.6
sg33
F-1.46
sg15
(lp2889
S'aryl bromide'
p2890
aS'aromatic'
p2891
asg38
g39
sg20
S' bromobenzene'
p2892
sg41
g42
ssS'mobley_7039935'
p2893
(dp2894
g3
S'c1ccc2c(c1)cccc2O'
p2895
sg27
F-7.51
sg28
F0.03
sg7
(lp2896
g30
asg31
S'naphthalen-1-ol'
p2897
sg12
I7005
sg13
F0.6
sg33
F-7.67
sg15
(lp2898
S'phenol or hydroxyhetarene'
p2899
aS'aromatic'
p2900
asg38
g39
sg20
S' naphthalen-1-ol'
p2901
sg41
g42
ssS'mobley_1662128'
p2902
(dp2903
g3
S'CCC=C'
p2904
sg27
F2.48
sg28
F0.02
sg7
(lp2905
g30
asg31
S'but-1-ene'
p2906
sg12
I7844
sg13
F0.6
sg33
F1.38
sg15
(lp2907
S'alkene'
p2908
asg38
g39
sg20
S' but-1-ene'
p2909
sg41
g42
ssS'mobley_9510785'
p2910
(dp2911
g3
S'c1ccc(cc1)c2cc(c(c(c2Cl)Cl)Cl)Cl'
p2912
sg212
F-1.34
sg213
F0.03
sg7
(lp2913
g30
asg215
S'1,2,3,4-tetrachloro-5-phenyl-benzene'
p2914
sg12
I36401
sg217
F1.0
sg218
F-3.48
sg15
(lp2915
S'aryl chloride'
p2916
aS'aromatic'
p2917
asg221
g222
sg20
S' 2,3,4,5-tetrachlorobiphenyl'
p2918
sg224
g225
ssS'mobley_4465023'
p2919
(dp2920
g3
S'C(=C\\Cl)\\Cl'
p2921
sg27
F0.31
sg28
F0.02
sg7
(lp2922
S'Renamed mobley_4465023 from (Z)-1,2-dichloroethylene to (Z)-1,2-dichloroethylene (the name from the 3D structure) since the former did not completely specify stereochemistry.\n'
p2923
asg31
S'(Z)-1,2-dichloroethylene'
p2924
sg12
I643833
sg13
F0.6
sg33
F-1.17
sg15
(lp2925
S'halogen derivative'
p2926
aS'alkene'
p2927
asg38
g39
sg20
S' (Z)-1,2-dichloroethylene'
p2928
sg41
g42
ssS'mobley_4364398'
p2929
(dp2930
g3
S'CI'
p2931
sg27
F0.03
sg28
F0.01
sg7
(lp2932
g30
asg31
S'iodomethane'
p2933
sg12
I6328
sg13
F0.6
sg33
F-0.89
sg15
(lp2934
S'alkyl iodide'
p2935
asg38
g39
sg20
S' iodomethane'
p2936
sg41
g42
ssS'mobley_6917738'
p2937
(dp2938
g3
S'COCCN'
p2939
sg27
F-5.62
sg28
F0.03
sg7
(lp2940
g30
asg31
S'2-methoxyethanamine'
p2941
sg12
I8018
sg13
F0.6
sg33
F-6.55
sg15
(lp2942
S'dialkyl ether'
p2943
aS'primary amine'
p2944
aS'primary aliphatic amine (alkylamine)'
p2945
asg38
g39
sg20
S' 2-methoxyethanamine'
p2946
sg41
g42
ssS'mobley_7943327'
p2947
(dp2948
g3
S'CCC(=O)OCC'
p2949
sg27
F-3.39
sg28
F0.02
sg7
(lp2950
g30
asg31
S'ethyl propanoate'
p2951
sg12
I7749
sg13
F0.6
sg33
F-2.68
sg15
(lp2952
S'carboxylic acid ester'
p2953
asg38
g39
sg20
S' ethyl propanoate'
p2954
sg41
g42
ssS'mobley_8118832'
p2955
(dp2956
g3
S'C=CCO'
p2957
sg27
F-3.23
sg28
F0.03
sg7
(lp2958
g30
asg31
S'prop-2-en-1-ol'
p2959
sg12
I7858
sg13
F0.6
sg33
F-5.03
sg15
(lp2960
S'primary alcohol'
p2961
aS'alkene'
p2962
asg38
g39
sg20
S' prop-2-en-1-ol'
p2963
sg41
g42
ssS'mobley_5076071'
p2964
(dp2965
g3
S'CCN(CC)c1c(cc(c(c1[N+](=O)[O-])N)C(F)(F)F)[N+](=O)[O-]'
p2966
sg177
F-7.42
sg178
F0.04
sg7
(lp2967
g30
aS'Changed IUPAC name from dinitramine to 1-N,1-N-diethyl-2,6-dinitro-4-(trifluoromethyl)benzene-1,3-diamine for better handling/standardization.'
p2968
asg180
S'1-N,1-N-diethyl-2,6-dinitro-4-(trifluoromethyl)benzene-1,3-diamine'
p2969
sg12
I34468
sg182
F1.93
sg183
F-5.66
sg15
(lp2970
S'primary amine'
p2971
aS'primary aromatic amine'
p2972
aS'tertiary amine'
p2973
aS'tertiary aliphatic/aromatic amine (alkylarylamine)'
p2974
aS'halogen derivative'
p2975
aS'nitro'
p2976
aS'aromatic'
p2977
asg186
g187
sg20
S' dinitramine'
p2978
sg189
g190
ssS'mobley_20524'
p2979
(dp2980
g3
S'c1ccc(cc1)O'
p2981
sg5
F-4.6
sg6
F0.1
sg7
(lp2982
g9
asg10
S'phenol'
p2983
sg12
I996
sg13
F0.2
sg14
F-6.6
sg15
(lp2984
S'phenol or hydroxyhetarene'
p2985
aS'aromatic'
p2986
asg18
g19
sg20
S' phenol'
p2987
sg22
g23
ssS'mobley_7378987'
p2988
(dp2989
g3
S'Cn1cnc2c1c(=O)n(c(=O)n2C)C'
p2990
sg420
F-17.57
sg421
F0.07
sg7
(lp2991
g30
asg423
S'caffeine'
p2992
sg12
I2519
sg425
F0.74
sg426
F-12.64
sg15
(lp2993
S'oxo(het)arene'
p2994
aS'aromatic'
p2995
aS'heterocyclic'
p2996
asg432
g433
sg20
S' caffeine'
p2997
sg435
g436
ssS'mobley_7227357'
p2998
(dp2999
g3
S'CCC(CC)O'
p3000
sg27
F-2.95
sg28
F0.02
sg7
(lp3001
g30
asg31
S'pentan-3-ol'
p3002
sg12
I11428
sg13
F0.6
sg33
F-4.35
sg15
(lp3003
S'secondary alcohol'
p3004
asg38
g39
sg20
S' pentan-3-ol'
p3005
sg41
g42
ssS'mobley_9139060'
p3006
(dp3007
g3
S'CC1CCC(CC1)C'
p3008
sg27
F2.05
sg28
F0.02
sg7
(lp3009
g30
asg31
S'1,4-dimethylcyclohexane'
p3010
sg12
I11523
sg13
F0.6
sg33
F2.11
sg15
(lp3011
g68
asg38
g39
sg20
S' 1,4-dimethylcyclohexane'
p3012
sg41
g42
ssS'mobley_2996632'
p3013
(dp3014
g3
S'C(Cl)(Cl)Cl'
p3015
sg27
F0.32
sg28
F0.02
sg7
(lp3016
g30
asg31
S'chloroform'
p3017
sg12
I6212
sg13
F0.6
sg33
F-1.08
sg15
(lp3018
S'halogen derivative'
p3019
asg38
g39
sg20
S' chloroform'
p3020
sg41
g42
ssS'mobley_9073553'
p3021
(dp3022
g3
S'CSC'
p3023
sg27
F0.26
sg28
F0.02
sg7
(lp3024
g30
asg31
S'methylsulfanylmethane'
p3025
sg12
I1068
sg13
F0.6
sg33
F-1.61
sg15
(lp3026
S'thioether'
p3027
asg38
g39
sg20
S' methylsulfanylmethane'
p3028
sg41
g42
ssS'mobley_397645'
p3029
(dp3030
g3
S'CCOC(=O)c1ccccc1'
p3031
sg27
F-4.68
sg28
F0.02
sg7
(lp3032
g30
asg31
S'ethyl benzoate'
p3033
sg12
I7165
sg13
F0.6
sg33
F-3.64
sg15
(lp3034
S'carboxylic acid ester'
p3035
aS'aromatic'
p3036
asg38
g39
sg20
S' ethyl benzoate'
p3037
sg41
g42
ssS'mobley_2518989'
p3038
(dp3039
g3
S'CCOP(=S)(OCC)S[C@@H](CCl)N1C(=O)c2ccccc2C1=O'
p3040
sg177
F-15.1
sg178
F0.06
sg7
(lp3041
S'Renamed mobley_2518989 from 2-(2-chloro-1-diethoxyphosphinothioylsulfanylethyl)isoindole-1,3-dione to 2-[(1S)-2-chloro-1-diethoxyphosphinothioylsulfanyl-ethyl]isoindoline-1,3-dione (the name from the 3D structure) since the former did not completely specify stereochemistry.\n'
p3042
asg180
S'dialifor'
p3043
sg12
I25146
sg182
F1.93
sg183
F-5.74
sg15
(lp3044
S'alkyl chloride'
p3045
aS'carboxylic acid imide, N-substituted'
p3046
aS'thiophosphoric acid ester'
p3047
aS'aromatic'
p3048
aS'heterocyclic'
p3049
asg186
g187
sg20
S' dialifor'
p3050
sg189
g190
ssS'mobley_3047364'
p3051
(dp3052
g3
S'CCNc1nc(nc(n1)SC)NC(C)C'
p3053
sg177
F-9.24
sg178
F0.04
sg7
(lp3054
g30
aS'Changed IUPAC name from ametryn to 2-N-ethyl-6-(methylsulfanyl)-4-N-(propan-2-yl)-1,3,5-triazine-2,4-diamine for better handling/standardization.'
p3055
asg180
S'2-N-ethyl-6-(methylsulfanyl)-4-N-(propan-2-yl)-1,3,5-triazine-2,4-diamine'
p3056
sg12
I13263
sg182
F0.45
sg183
F-7.65
sg15
(lp3057
S'thioether'
p3058
aS'secondary amine'
p3059
aS'secondary aliphatic/aromatic amine (alkylarylamine)'
p3060
aS'aromatic'
p3061
aS'heterocyclic'
p3062
asg186
g187
sg20
S' ametryne'
p3063
sg189
g190
ssS'mobley_5857'
p3064
(dp3065
g3
S'c1ccc2c(c1)cccn2'
p3066
sg27
F-4.87
sg28
F0.02
sg7
(lp3067
g30
asg31
S'quinoline'
p3068
sg12
I7047
sg13
F0.6
sg33
F-5.72
sg15
(lp3069
S'aromatic'
p3070
aS'heterocyclic'
p3071
asg38
g39
sg20
S' quinoline'
p3072
sg41
g42
ssS'mobley_197466'
p3073
(dp3074
g3
S'CC(=O)C1CC1'
p3075
sg27
F-3.74
sg28
F0.02
sg7
(lp3076
g30
asg31
S'1-cyclopropylethanone'
p3077
sg12
I13004
sg13
F0.6
sg33
F-4.61
sg15
(lp3078
S'ketone'
p3079
asg38
g39
sg20
S' 1-cyclopropylethanone'
p3080
sg41
g42
ssS'mobley_2068538'
p3081
(dp3082
g3
S'CCC'
p3083
sg5
F2.4
sg6
F0.1
sg7
(lp3084
g9
asg10
S'propane'
p3085
sg12
I6334
sg13
F0.2
sg14
F2.0
sg15
(lp3086
g68
asg18
g19
sg20
S' propane'
p3087
sg22
g23
ssS'mobley_967099'
p3088
(dp3089
g3
S'CC(C)[N+](=O)[O-]'
p3090
sg27
F-1.61
sg28
F0.02
sg7
(lp3091
g30
asg31
S'2-nitropropane'
p3092
sg12
I398
sg13
F0.6
sg33
F-3.13
sg15
(lp3093
S'nitro'
p3094
asg38
g39
sg20
S' 2-nitropropane'
p3095
sg41
g42
ssS'mobley_1792062'
p3096
(dp3097
g3
S'C(CBr)Br'
p3098
sg27
F0.19
sg28
F0.02
sg7
(lp3099
g30
asg31
S'1,2-dibromoethane'
p3100
sg12
I7839
sg13
F0.6
sg33
F-2.33
sg15
(lp3101
S'alkyl bromide'
p3102
asg38
g39
sg20
S' 1,2-dibromoethane'
p3103
sg41
g42
ssS'mobley_7203421'
p3104
(dp3105
g3
S'CCCCCC(=O)N'
p3106
sg27
F-8.14
sg28
F0.03
sg7
(lp3107
g30
asg31
S'hexanamide'
p3108
sg12
I12332
sg13
F0.6
sg33
F-9.31
sg15
(lp3109
S'primary carboxylic acid amide'
p3110
asg38
g39
sg20
S' hexanamide'
p3111
sg41
g42
ssS'mobley_7912193'
p3112
(dp3113
g3
S'CCCCOC(=O)c1ccc(cc1)O'
p3114
sg420
F-9.19
sg421
F0.06
sg7
(lp3115
g30
asg423
S'butyl paraben'
p3116
sg12
I7184
sg425
F0.27
sg426
F-8.72
sg15
(lp3117
S'phenol or hydroxyhetarene'
p3118
aS'carboxylic acid ester'
p3119
aS'aromatic'
p3120
asg432
g433
sg20
S' butyl paraben'
p3121
sg435
g436
ssS'mobley_7200804'
p3122
(dp3123
g3
S'c1ccc(c(c1)O)F'
p3124
sg27
F-3.24
sg28
F0.03
sg7
(lp3125
g30
asg31
S'2-fluorophenol'
p3126
sg12
I9707
sg13
F0.6
sg33
F-5.29
sg15
(lp3127
S'phenol or hydroxyhetarene'
p3128
aS'aryl fluoride'
p3129
aS'aromatic'
p3130
asg38
g39
sg20
S' 2-fluorophenol'
p3131
sg41
g42
ssS'mobley_5094777'
p3132
(dp3133
g3
S'c1ccc2c(c1)CCC2'
p3134
sg27
F-1.7
sg28
F0.02
sg7
(lp3135
g30
asg31
S'indane'
p3136
sg12
I10326
sg13
F0.6
sg33
F-1.46
sg15
(lp3137
S'aromatic'
p3138
asg38
g39
sg20
S' indane'
p3139
sg41
g42
ssS'mobley_4561957'
p3140
(dp3141
g3
S'CC(C)C(C)C'
p3142
sg27
F2.69
sg28
F0.02
sg7
(lp3143
g30
asg31
S'2,3-dimethylbutane'
p3144
sg12
I6589
sg13
F0.6
sg33
F2.34
sg15
(lp3145
g68
asg38
g39
sg20
S' 2,3-dimethylbutane'
p3146
sg41
g42
ssS'mobley_5852491'
p3147
(dp3148
g3
S'CC1CCCC1'
p3149
sg27
F2.12
sg28
F0.02
sg7
(lp3150
g30
asg31
S'methylcyclopentane'
p3151
sg12
I7296
sg13
F0.6
sg33
F1.59
sg15
(lp3152
g68
asg38
g39
sg20
S' methylcyclopentane'
p3153
sg41
g42
ssS'mobley_1987439'
p3154
(dp3155
g3
S'Cc1cc(cc(c1)C)C'
p3156
sg27
F0.04
sg28
F0.02
sg7
(lp3157
g30
asg31
S'mesitylene'
p3158
sg12
I7947
sg13
F0.6
sg33
F-0.9
sg15
(lp3159
S'aromatic'
p3160
asg38
g39
sg20
S' mesitylene'
p3161
sg41
g42
ssS'mobley_8492526'
p3162
(dp3163
g3
S'CCCCC=O'
p3164
sg27
F-2.96
sg28
F0.02
sg7
(lp3165
g30
asg31
S'pentanal'
p3166
sg12
I8063
sg13
F0.6
sg33
F-3.03
sg15
(lp3167
S'aldehyde'
p3168
asg38
g39
sg20
S' pentanal'
p3169
sg41
g42
ssS'mobley_4494568'
p3170
(dp3171
g3
S'Cc1ccc(cc1)Br'
p3172
sg27
F0.04
sg28
F0.02
sg7
(lp3173
g30
asg31
S'1-bromo-4-methyl-benzene'
p3174
sg12
I7805
sg13
F0.6
sg33
F-1.39
sg15
(lp3175
S'aryl bromide'
p3176
aS'aromatic'
p3177
asg38
g39
sg20
S' 1-bromo-4-methyl-benzene'
p3178
sg41
g42
ssS'mobley_7869158'
p3179
(dp3180
g3
S'CC[C@H](C)O[N+](=O)[O-]'
p3181
sg177
F-1.68
sg178
F0.02
sg7
(lp3182
g30
aS'Changed IUPAC name from 2-butyl nitrate to [(2S)-butan-2-yl] nitrate for better handling/standardization.'
p3183
asg180
S'[(2S)-butan-2-yl] nitrate'
p3184
sg12
I79123
sg182
F0.1
sg183
F-1.82
sg15
(lp3185
S'nitrate'
p3186
asg186
g187
sg20
S' [(2S)-butan-2-yl] nitrate'
p3187
sg189
g190
ssS'mobley_7893124'
p3188
(dp3189
g3
S'CC(C)(C)c1ccccc1'
p3190
sg27
F-0.42
sg28
F0.03
sg7
(lp3191
g30
asg31
S'tert-butylbenzene'
p3192
sg12
I7366
sg13
F0.6
sg33
F-0.44
sg15
(lp3193
S'aromatic'
p3194
asg38
g39
sg20
S' tert-butylbenzene'
p3195
sg41
g42
ssS'mobley_5880265'
p3196
(dp3197
g3
S'CCCCOCCO'
p3198
sg27
F-4.07
sg28
F0.03
sg7
(lp3199
g30
asg31
S'2-butoxyethanol'
p3200
sg12
I8133
sg13
F0.6
sg33
F-6.25
sg15
(lp3201
S'primary alcohol'
p3202
aS'dialkyl ether'
p3203
asg38
g39
sg20
S' 2-butoxyethanol'
p3204
sg41
g42
ssS'mobley_8691603'
p3205
(dp3206
g3
S'Cc1cccc(c1)O'
p3207
sg27
F-5.28
sg28
F0.03
sg7
(lp3208
g30
asg31
S'm-cresol'
p3209
sg12
I342
sg13
F0.6
sg33
F-5.49
sg15
(lp3210
S'phenol or hydroxyhetarene'
p3211
aS'aromatic'
p3212
asg38
g39
sg20
S' m-cresol'
p3213
sg41
g42
ssS'mobley_2693089'
p3214
(dp3215
g3
S'CC(C)Cc1cnccn1'
p3216
sg27
F-5.1
sg28
F0.03
sg7
(lp3217
g30
asg31
S'2-isobutylpyrazine'
p3218
sg12
I34591
sg13
F0.6
sg33
F-5.04
sg15
(lp3219
S'aromatic'
p3220
aS'heterocyclic'
p3221
asg38
g39
sg20
S' 2-isobutylpyrazine'
p3222
sg41
g42
ssS'mobley_8525830'
p3223
(dp3224
g3
S'CCCCCI'
p3225
sg27
F0.66
sg28
F0.02
sg7
(lp3226
g30
asg31
S'1-iodopentane'
p3227
sg12
I12335
sg13
F0.6
sg33
F-0.14
sg15
(lp3228
S'alkyl iodide'
p3229
asg38
g39
sg20
S' 1-iodopentane'
p3230
sg41
g42
ssS'mobley_6239320'
p3231
(dp3232
g3
S'c1(=O)[nH]c(=O)[nH]c(=O)[nH]1'
p3233
sg420
F-21.71
sg421
F0.07
sg7
(lp3234
g30
asg423
S'cyanuric acid'
p3235
sg12
I7956
sg425
F0.27
sg426
F-18.06
sg15
(lp3236
S'oxo(het)arene'
p3237
aS'aromatic'
p3238
aS'heterocyclic'
p3239
asg432
g433
sg20
S' cyanuric acid'
p3240
sg435
g436
ssS'mobley_4506634'
p3241
(dp3242
g3
S'[C@@H](C(F)(F)F)(Cl)Br'
p3243
sg27
F0.7
sg28
F0.02
sg7
(lp3244
S'Renamed mobley_4506634 from 2-bromo-2-chloro-1,1,1-trifluoro-ethane to (2R)-2-bromo-2-chloro-1,1,1-trifluoro-ethane (the name from the 3D structure) since the former did not completely specify stereochemistry.\n'
p3245
asg31
S'2-bromo-2-chloro-1,1,1-trifluoro-ethane'
p3246
sg12
I445258
sg13
F0.6
sg33
F-0.11
sg15
(lp3247
S'alkyl chloride'
p3248
aS'alkyl bromide'
p3249
asg38
g39
sg20
S' 2-bromo-2-chloro-1,1,1-trifluoro-ethane'
p3250
sg41
g42
ssS'mobley_6430250'
p3251
(dp3252
g3
S'CCCc1ccccc1'
p3253
sg27
F0.01
sg28
F0.02
sg7
(lp3254
g30
asg31
S'propylbenzene'
p3255
sg12
I7668
sg13
F0.6
sg33
F-0.53
sg15
(lp3256
S'aromatic'
p3257
asg38
g39
sg20
S' propylbenzene'
p3258
sg41
g42
ssS'mobley_8685905'
p3259
(dp3260
g3
S'[C@@H](C(F)(F)F)(F)Br'
p3261
sg27
F0.46
sg28
F0.02
sg7
(lp3262
S'Renamed mobley_8685905 from 2-bromo-1,1,1,2-tetrafluoro-ethane to (2R)-2-bromo-1,1,1,2-tetrafluoro-ethane (the name from the 3D structure) since the former did not completely specify stereochemistry.\n'
p3263
asg31
S'2-bromo-1,1,1,2-tetrafluoro-ethane'
p3264
sg12
I31300
sg13
F0.6
sg33
F0.5
sg15
(lp3265
S'alkyl fluoride'
p3266
aS'alkyl bromide'
p3267
asg38
g39
sg20
S' teflurane'
p3268
sg41
g42
ssS'mobley_2451097'
p3269
(dp3270
g3
S'c1ccc(cc1)C#N'
p3271
sg27
F-2.56
sg28
F0.02
sg7
(lp3272
g30
asg31
S'benzonitrile'
p3273
sg12
I7505
sg13
F0.6
sg33
F-4.1
sg15
(lp3274
S'carbonitrile'
p3275
aS'aromatic'
p3276
asg38
S'10.1039/P29940001777'
p3277
sg20
S' benzonitrile'
p3278
sg41
g42
ssS'mobley_6102880'
p3279
(dp3280
g3
S'c1ccc(cc1)Oc2ccccc2'
p3281
sg512
F-2.79
sg513
F0.02
sg7
(lp3282
g30
asg516
S'diphenyl ether'
p3283
sg12
I7583
sg518
g519
(g523
S'\x14\xaeG\xe1z\x14\xe6?'
p3284
tp3285
Rp3286
sg529
g519
(g523
S'\xf6(\\\x8f\xc2\xf5\x06\xc0'
p3287
tp3288
Rp3289
sg15
(lp3290
S'diaryl ether'
p3291
aS'aromatic'
p3292
asg535
g536
sg20
S' diphenyl ether'
p3293
sg538
g539
ssS'mobley_337666'
p3294
(dp3295
g3
S'c1c(c(=O)[nH]c(=O)[nH]1)F'
p3296
sg420
F-16.41
sg421
F0.06
sg7
(lp3297
g30
aS'Changed IUPAC name from 5-flurouracil to 5-fluorouracil for better handling/standardization.'
p3298
asg423
S'5-fluorouracil'
p3299
sg12
I3385
sg425
F0.88
sg426
F-16.92
sg15
(lp3300
S'aryl fluoride'
p3301
aS'oxo(het)arene'
p3302
aS'aromatic'
p3303
aS'heterocyclic'
p3304
asg432
g433
sg20
S' 5-fluorouracil'
p3305
sg435
g436
ssS'mobley_1893937'
p3306
(dp3307
g3
S'CCCCCCCl'
p3308
sg27
F1.23
sg28
F0.03
sg7
(lp3309
g30
asg31
S'1-chlorohexane'
p3310
sg12
I10992
sg13
F0.6
sg33
F0.0
sg15
(lp3311
S'alkyl chloride'
p3312
asg38
g39
sg20
S' 1-chlorohexane'
p3313
sg41
g42
ssS'mobley_1827204'
p3314
(dp3315
g3
S'CCCCCC=O'
p3316
sg27
F-2.96
sg28
F0.02
sg7
(lp3317
g30
asg31
S'hexanal'
p3318
sg12
I6184
sg13
F0.6
sg33
F-2.81
sg15
(lp3319
S'aldehyde'
p3320
asg38
g39
sg20
S' hexanal'
p3321
sg41
g42
ssS'mobley_2913224'
p3322
(dp3323
g3
S'CC(=O)Oc1ccccc1C(=O)O'
p3324
sg420
F-11.25
sg421
F0.07
sg7
(lp3325
g30
asg423
S'acetylsalicylic acid'
p3326
sg12
I2244
sg425
F0.18
sg426
F-9.94
sg15
(lp3327
S'carboxylic acid'
p3328
aS'carboxylic acid ester'
p3329
aS'aromatic'
p3330
asg432
g433
sg20
S' acetylsalicylic acid'
p3331
sg435
g436
ssS'mobley_5561855'
p3332
(dp3333
g3
S'c1cc(c(c(c1)Cl)c2c(cc(cc2Cl)Cl)Cl)Cl'
p3334
sg212
F-0.54
sg213
F0.04
sg7
(lp3335
g30
asg215
S'1,3,5-trichloro-2-(2,6-dichlorophenyl)benzene'
p3336
sg12
I91662
sg217
F0.1
sg218
F-1.96
sg15
(lp3337
S'aryl chloride'
p3338
aS'aromatic'
p3339
asg221
g222
sg20
S" 2,2',4,6,6'-pentachlorobiphenyl"
p3340
sg224
g225
ssS'mobley_1592519'
p3341
(dp3342
g3
S'CCCCCC(=O)OCC'
p3343
sg27
F-2.8
sg28
F0.04
sg7
(lp3344
g30
asg31
S'ethyl hexanoate'
p3345
sg12
I31265
sg13
F0.6
sg33
F-2.23
sg15
(lp3346
S'carboxylic acid ester'
p3347
asg38
g39
sg20
S' ethyl hexanoate'
p3348
sg41
g42
ssS'mobley_2517158'
p3349
(dp3350
g3
S'CCCCCCCBr'
p3351
sg27
F1.66
sg28
F0.03
sg7
(lp3352
g30
asg31
S'1-bromoheptane'
p3353
sg12
I12369
sg13
F0.6
sg33
F0.34
sg15
(lp3354
S'alkyl bromide'
p3355
asg38
g39
sg20
S' 1-bromoheptane'
p3356
sg41
g42
ssS'mobley_6250025'
p3357
(dp3358
g3
S'CCCCCCI'
p3359
sg27
F0.66
sg28
F0.02
sg7
(lp3360
g30
asg31
S'1-iodohexane'
p3361
sg12
I12527
sg13
F0.6
sg33
F0.08
sg15
(lp3362
S'alkyl iodide'
p3363
asg38
g39
sg20
S' 1-iodohexane'
p3364
sg41
g42
ssS'mobley_8789864'
p3365
(dp3366
g3
S'COC(CC#N)(OC)OC'
p3367
sg27
F-5.74
sg28
F0.04
sg7
(lp3368
g30
asg31
S'3,3,3-trimethoxypropanenitrile'
p3369
sg12
I144381
sg13
F0.6
sg33
F-6.4
sg15
(lp3370
S'carbonitrile'
p3371
aS'orthocarboxylic acid derivative'
p3372
aS'orthoester'
p3373
asg38
g51
sg20
S' 3,3,3-trimethoxypropanenitrile'
p3374
sg41
g42
ssS'mobley_3325209'
p3375
(dp3376
g3
S'COC(c1ccccc1)(OC)OC'
p3377
sg27
F-5.83
sg28
F0.04
sg7
(lp3378
g30
asg31
S'trimethoxymethylbenzene'
p3379
sg12
I69720
sg13
F0.6
sg33
F-4.04
sg15
(lp3380
S'orthocarboxylic acid derivative'
p3381
aS'orthoester'
p3382
aS'aromatic'
p3383
asg38
g51
sg20
S' trimethoxymethylbenzene'
p3384
sg41
g42
ssS'mobley_1875719'
p3385
(dp3386
g3
S'CCC(=O)CC'
p3387
sg5
F-2.7
sg6
F0.1
sg7
(lp3388
g9
asg10
S'pentan-3-one'
p3389
sg12
I7288
sg13
F0.2
sg14
F-3.41
sg15
(lp3390
S'ketone'
p3391
asg18
g19
sg20
S' pentan-3-one'
p3392
sg22
g23
ssS'mobley_9112978'
p3393
(dp3394
g3
S'CC/C=C\\C'
p3395
sg27
F2.55
sg28
F0.02
sg7
(lp3396
S'Renamed mobley_9112978 from pent-2-ene to (Z)-pent-2-ene (the name from the 3D structure) since the former did not completely specify stereochemistry.\n'
p3397
asg31
S'pent-2-ene'
p3398
sg12
I21934815
sg13
F0.6
sg33
F1.31
sg15
(lp3399
S'alkene'
p3400
asg38
g39
sg20
S' pent-2-ene'
p3401
sg41
g42
ssS'mobley_5692472'
p3402
(dp3403
g3
S'CNC'
p3404
sg27
F-3.11
sg28
F0.02
sg7
(lp3405
g30
asg31
S'N-methylmethanamine'
p3406
sg12
I674
sg13
F0.6
sg33
F-4.29
sg15
(lp3407
S'secondary amine'
p3408
aS'secondary aliphatic amine (dialkylamine)'
p3409
asg38
g39
sg20
S' N-methylmethanamine'
p3410
sg41
g42
ssS'mobley_2972345'
p3411
(dp3412
g3
S'c1ccc2c(c1)Cc3ccccc3C2'
p3413
sg512
F-4.38
sg513
F0.022
sg7
(lp3414
g30
asg516
S'9,10-dihydroanthracene'
p3415
sg12
I11940
sg518
g519
(g523
S'\x9a\x99\x99\x99\x99\x99\xb9?'
p3416
tp3417
Rp3418
sg529
g519
(g523
S'=\n\xd7\xa3p=\x0e\xc0'
p3419
tp3420
Rp3421
sg15
(lp3422
S'aromatic'
p3423
asg535
g536
sg20
S' 9,10-dihydroanthracene'
p3424
sg538
g539
ssS'mobley_3976574'
p3425
(dp3426
g3
S'c1cc2c(cc1Cl)Oc3c(c(c(c(c3Cl)Cl)Cl)Cl)O2'
p3427
sg212
F-2.17
sg213
F0.03
sg7
(lp3428
g30
asg215
S'1,2,3,4,7-pentachlorodibenzo-p-dioxin'
p3429
sg12
I38254
sg217
F1.0
sg218
F-4.15
sg15
(lp3430
S'diaryl ether'
p3431
aS'aryl chloride'
p3432
aS'aromatic'
p3433
aS'heterocyclic'
p3434
asg221
g222
sg20
S' 1,2,3,4,7-pentachlorodibenzo-p-dioxin'
p3435
sg224
g225
ssS'mobley_8966374'
p3436
(dp3437
g3
S'Cc1cnccn1'
p3438
sg27
F-6.1
sg28
F0.03
sg7
(lp3439
g30
asg31
S'2-methylpyrazine'
p3440
sg12
I7976
sg13
F0.6
sg33
F-5.51
sg15
(lp3441
S'aromatic'
p3442
aS'heterocyclic'
p3443
asg38
g39
sg20
S' 2-methylpyrazine'
p3444
sg41
g42
ssS'mobley_2328633'
p3445
(dp3446
g3
S'CCCCCC1CCCC1'
p3447
sg27
F2.39
sg28
F0.03
sg7
(lp3448
g30
asg31
S'pentylcyclopentane'
p3449
sg12
I19540
sg13
F0.6
sg33
F2.55
sg15
(lp3450
g68
asg38
g39
sg20
S' pentylcyclopentane'
p3451
sg41
g42
ssS'mobley_7298388'
p3452
(dp3453
g3
S'Cc1cccc(c1)[N+](=O)[O-]'
p3454
sg27
F-3.16
sg28
F0.02
sg7
(lp3455
g30
asg31
S'1-methyl-3-nitro-benzene'
p3456
sg12
I7422
sg13
F0.6
sg33
F-3.45
sg15
(lp3457
S'nitro'
p3458
aS'aromatic'
p3459
asg38
g39
sg20
S' 1-methyl-3-nitro-benzene'
p3460
sg41
g42
ssS'mobley_3269819'
p3461
(dp3462
g3
S'c1c(cc(c(c1Cl)Cl)Cl)c2cc(c(c(c2Cl)Cl)Cl)Cl'
p3463
sg212
F-0.77
sg213
F0.04
sg7
(lp3464
g30
asg215
S'1,2,3,4-tetrachloro-5-(3,4,5-trichlorophenyl)benzene'
p3465
sg12
I38306
sg217
F0.1
sg218
F-3.17
sg15
(lp3466
S'aryl chloride'
p3467
aS'aromatic'
p3468
asg221
g222
sg20
S" 2,3,4,5,3',4',5'-heptachlorobiphenyl"
p3469
sg224
g225
ssS'mobley_3802803'
p3470
(dp3471
g3
S'CCCCCCON([O-])[O-]'
p3472
sg512
F-1.63
sg513
F0.022
sg7
(lp3473
g30
asg516
S'hexyl nitrate'
p3474
sg12
I30209
sg518
g519
(g523
S'\x9a\x99\x99\x99\x99\x99\xb9?'
p3475
tp3476
Rp3477
sg529
g519
(g523
S'\x8f\xc2\xf5(\\\x8f\xfa\xbf'
p3478
tp3479
Rp3480
sg15
(lp3481
S'anion'
p3482
asg535
g536
sg20
S' hexyl nitrate'
p3483
sg538
g539
ssS'mobley_7497999'
p3484
(dp3485
g3
S'CC(=O)c1ccccc1'
p3486
sg27
F-5.07
sg28
F0.03
sg7
(lp3487
g30
asg31
S'1-phenylethanone'
p3488
sg12
I7410
sg13
F0.6
sg33
F-4.58
sg15
(lp3489
S'ketone'
p3490
aS'aromatic'
p3491
asg38
g39
sg20
S' 1-phenylethanone'
p3492
sg41
g42
ssS'mobley_8208692'
p3493
(dp3494
g3
S'c1c(c(c(c(c1Cl)Cl)Cl)Cl)c2c(cc(c(c2Cl)Cl)Cl)Cl'
p3495
sg212
F0.0
sg213
F0.05
sg7
(lp3496
g30
asg215
S'1,2,3,4-tetrachloro-5-(2,3,4,6-tetrachlorophenyl)benzene'
p3497
sg12
I39253
sg217
F0.25
sg218
F-4.61
sg15
(lp3498
S'aryl chloride'
p3499
aS'aromatic'
p3500
asg221
g222
sg20
S" 2,2',3,3',4,4',5,6'-octachloro-biphenyl"
p3501
sg224
g225
ssS'mobley_1199854'
p3502
(dp3503
g3
S'CCCI'
p3504
sg27
F0.0
sg28
F0.02
sg7
(lp3505
g30
asg31
S'1-iodopropane'
p3506
sg12
I33643
sg13
F0.6
sg33
F-0.53
sg15
(lp3507
S'alkyl iodide'
p3508
asg38
g39
sg20
S' 1-iodopropane'
p3509
sg41
g42
ssS'mobley_3867265'
p3510
(dp3511
g3
S'CC(=O)C'
p3512
sg27
F-3.36
sg28
F0.02
sg7
(lp3513
g30
asg31
S'acetone'
p3514
sg12
I180
sg13
F0.6
sg33
F-3.8
sg15
(lp3515
S'ketone'
p3516
asg38
g39
sg20
S' acetone'
p3517
sg41
g42
ssS'mobley_5072416'
p3518
(dp3519
g3
S'COc1ccccc1N'
p3520
sg27
F-6.53
sg28
F0.03
sg7
(lp3521
g30
asg31
S'2-methoxyaniline'
p3522
sg12
I7000
sg13
F0.6
sg33
F-6.12
sg15
(lp3523
S'alkyl aryl ether'
p3524
aS'primary amine'
p3525
aS'primary aromatic amine'
p3526
aS'aromatic'
p3527
asg38
g39
sg20
S' 2-methoxyaniline'
p3528
sg41
g42
ssS'mobley_2489709'
p3529
(dp3530
g3
S'c1ccc(c(c1)Cl)Cl'
p3531
sg27
F-0.64
sg28
F0.02
sg7
(lp3532
g30
asg31
S'1,2-dichlorobenzene'
p3533
sg12
I7239
sg13
F0.6
sg33
F-1.36
sg15
(lp3534
S'aryl chloride'
p3535
aS'aromatic'
p3536
asg38
g39
sg20
S' 1,2-dichlorobenzene'
p3537
sg41
g42
ssS'mobley_2481002'
p3538
(dp3539
g3
S'C([N+](=O)[O-])(Cl)(Cl)Cl'
p3540
sg177
F-0.26
sg178
F0.02
sg7
(lp3541
g30
aS'Changed IUPAC name from chloropicrin to trichloro(nitro)methane for better handling/standardization.'
p3542
asg180
S'trichloro(nitro)methane'
p3543
sg12
I6423
sg182
F0.1
sg183
F-1.45
sg15
(lp3544
S'halogen derivative'
p3545
asg186
g187
sg20
S' trichloro(nitro)methane'
p3546
sg189
g190
ssS'mobley_1034539'
p3547
(dp3548
g3
S'c1cc(c(cc1c2cc(c(c(c2Cl)Cl)Cl)Cl)Cl)Cl'
p3549
sg212
F-1.0
sg213
F0.04
sg7
(lp3550
g30
asg215
S'1,2,3,4-tetrachloro-5-(3,4-dichlorophenyl)benzene'
p3551
sg12
I38019
sg217
F0.1
sg218
F-3.04
sg15
(lp3552
S'aryl chloride'
p3553
aS'aromatic'
p3554
asg221
g222
sg20
S" 2,3,3',4,4',5-hexachlorobiphenyl"
p3555
sg224
g225
ssS'mobley_9460824'
p3556
(dp3557
g3
S'CCOP(=S)(OCC)SCSCC'
p3558
sg177
F-5.2
sg178
F0.04
sg7
(lp3559
g30
aS'Changed IUPAC name from phorate to diethoxy-(ethylsulfanylmethylsulfanyl)-thioxo-$l^{5}-phosphane for better handling/standardization.'
p3560
asg180
S'diethoxy-(ethylsulfanylmethylsulfanyl)-thioxo-$l^{5}-phosphane'
p3561
sg12
I4790
sg182
F0.1
sg183
F-4.37
sg15
(lp3562
S'thiophosphoric acid ester'
p3563
asg186
g187
sg20
S' phorate'
p3564
sg189
g190
ssS'mobley_8882696'
p3565
(dp3566
g3
S'C1CCOC1'
p3567
sg27
F-2.07
sg28
F0.02
sg7
(lp3568
g30
asg31
S'tetrahydrofuran'
p3569
sg12
I8028
sg13
F0.6
sg33
F-3.47
sg15
(lp3570
S'dialkyl ether'
p3571
aS'heterocyclic'
p3572
asg38
g39
sg20
S' tetrahydrofuran'
p3573
sg41
g42
ssS'mobley_8916409'
p3574
(dp3575
g3
S'CCOC(=O)C[C@H](C(=O)OCC)SP(=S)(OC)OC'
p3576
sg177
F-12.99
sg178
F0.05
sg7
(lp3577
g30
aS'Changed IUPAC name from malathion to diethyl (2R)-2-dimethoxyphosphinothioylsulfanylbutanedioate for better handling/standardization.'
p3578
asg180
S'diethyl (2R)-2-dimethoxyphosphinothioylsulfanylbutanedioate'
p3579
sg12
I12358970
sg182
F0.21
sg183
F-8.15
sg15
(lp3580
S'carboxylic acid ester'
p3581
aS'thiophosphoric acid ester'
p3582
asg186
g187
sg20
S' butanedioic acid'
p3583
sg189
g190
ssS'mobley_1770205'
p3584
(dp3585
g3
S'COP(=S)(OC)SCn1c(=O)c2ccccc2nn1'
p3586
sg177
F-15.54
sg178
F0.04
sg7
(lp3587
g30
aS'Changed IUPAC name from azinphosmethyl to 3-(dimethoxyphosphinothioylsulfanylmethyl)-1,2,3-benzotriazin-4-one for better handling/standardization.'
p3588
asg180
S'3-(dimethoxyphosphinothioylsulfanylmethyl)-1,2,3-benzotriazin-4-one'
p3589
sg12
I2268
sg182
F1.37
sg183
F-10.03
sg15
(lp3590
S'oxo(het)arene'
p3591
aS'thiophosphoric acid ester'
p3592
aS'aromatic'
p3593
aS'heterocyclic'
p3594
asg186
g187
sg20
S' azinphos-methyl'
p3595
sg189
g190
ssS'mobley_2782339'
p3596
(dp3597
g3
S'c1ccc2c(c1)C(=O)NC2=O'
p3598
sg420
F-11.74
sg421
F0.05
sg7
(lp3599
g30
asg423
S'phthalimide'
p3600
sg12
I6809
sg425
F0.5
sg426
F-9.61
sg15
(lp3601
S'carboxylic acid imide, N-unsubstituted'
p3602
aS'aromatic'
p3603
aS'heterocyclic'
p3604
asg432
g433
sg20
S' phthalimide'
p3605
sg435
g436
ssS'mobley_3982371'
p3606
(dp3607
g3
S'CC(=O)OC'
p3608
sg27
F-3.73
sg28
F0.02
sg7
(lp3609
g30
asg31
S'methyl acetate'
p3610
sg12
I6584
sg13
F0.6
sg33
F-3.13
sg15
(lp3611
S'carboxylic acid ester'
p3612
asg38
g39
sg20
S' methyl acetate'
p3613
sg41
g42
ssS'mobley_2659552'
p3614
(dp3615
g3
S'Cc1ccc(cc1)C(=O)N(C)C'
p3616
sg1318
F-8.76
sg1319
F0.05
sg1320
(lp3617
g1322
ag30
ag1323
asg1324
S'N,N-4-trimethylbenzamide'
p3618
sg12
I84179
sg13
F0.2
sg1326
F-9.76
sg15
(lp3619
S'tertiary carboxylic acid amide'
p3620
aS'aromatic'
p3621
asg1329
g1330
sg20
S' N,N-4-trimethylbenzamide'
p3622
sg1332
g1330
ssS'mobley_2422586'
p3623
(dp3624
g3
S'CCCOC'
p3625
sg27
F-0.41
sg28
F0.02
sg7
(lp3626
g30
asg31
S'1-methoxypropane'
p3627
sg12
I11182
sg13
F0.6
sg33
F-1.66
sg15
(lp3628
S'dialkyl ether'
p3629
asg38
g39
sg20
S' 1-methoxypropane'
p3630
sg41
g42
ssS'mobley_2725215'
p3631
(dp3632
g3
S'CCCN(CCC)c1c(cc(cc1[N+](=O)[O-])S(=O)(=O)C)[N+](=O)[O-]'
p3633
sg177
F-11.56
sg178
F0.05
sg7
(lp3634
g30
asg180
S'nitralin'
p3635
sg12
I20848
sg182
F1.93
sg183
F-7.98
sg15
(lp3636
S'tertiary amine'
p3637
aS'tertiary aliphatic/aromatic amine (alkylarylamine)'
p3638
aS'nitro'
p3639
aS'sulfone'
p3640
aS'aromatic'
p3641
asg186
g187
sg20
S' nitralin'
p3642
sg189
g190
ssS'mobley_9571888'
p3643
(dp3644
g3
S'C1[C@@H]2[C@H](COS(=O)O1)[C@@]3(C(=C([C@]2(C3(Cl)Cl)Cl)Cl)Cl)Cl'
p3645
sg177
F-9.96
sg178
F0.04
sg7
(lp3646
g30
asg180
S'endosulfan alpha'
p3647
sg12
I12309460
sg182
F0.26
sg183
F-4.23
sg15
(lp3648
S'alkyl chloride'
p3649
aS'alkene'
p3650
aS'heterocyclic'
p3651
asg186
g187
sg20
S' endosulfan alpha'
p3652
sg189
g190
ssS'mobley_3777264'
p3653
(dp3654
g3
S'c1cc(cc(c1)[N+](=O)[O-])N'
p3655
sg27
F-8.24
sg28
F0.03
sg7
(lp3656
g30
asg31
S'3-nitroaniline'
p3657
sg12
I7423
sg13
F0.6
sg33
F-8.84
sg15
(lp3658
S'primary amine'
p3659
aS'primary aromatic amine'
p3660
aS'nitro'
p3661
aS'aromatic'
p3662
asg38
g39
sg20
S' 3-nitroaniline'
p3663
sg41
g42
ssS'mobley_6006813'
p3664
(dp3665
g3
S'CCCC[N+](=O)[O-]'
p3666
sg27
F-1.51
sg28
F0.02
sg7
(lp3667
g30
asg31
S'1-nitrobutane'
p3668
sg12
I12302
sg13
F0.6
sg33
F-3.09
sg15
(lp3669
S'nitro'
p3670
asg38
g39
sg20
S' 1-nitrobutane'
p3671
sg41
g42
ssS'mobley_1636752'
p3672
(dp3673
g3
S'CO'
p3674
sg27
F-3.48
sg28
F0.01
sg7
(lp3675
g30
asg31
S'methanol'
p3676
sg12
I887
sg13
F0.6
sg33
F-5.1
sg15
(lp3677
S'primary alcohol'
p3678
asg38
g39
sg20
S' methanol'
p3679
sg41
g42
ssS'mobley_3525176'
p3680
(dp3681
g3
S'CCCCCc1ccccc1'
p3682
sg27
F0.05
sg28
F0.03
sg7
(lp3683
g30
asg31
S'pentylbenzene'
p3684
sg12
I10864
sg13
F0.6
sg33
F-0.23
sg15
(lp3685
S'aromatic'
p3686
asg38
g39
sg20
S' pentylbenzene'
p3687
sg41
g42
ssS'mobley_1905088'
p3688
(dp3689
g3
S'c1ccc(cc1)CBr'
p3690
sg1318
F-1.11
sg1319
F0.1
sg1320
(lp3691
g1322
ag30
ag1323
asg1324
S'benzyl bromide'
p3692
sg12
I7498
sg13
F0.2
sg1326
F-2.38
sg15
(lp3693
S'alkyl bromide'
p3694
aS'aromatic'
p3695
asg1329
g1330
sg20
S' benzyl bromide'
p3696
sg1332
g1330
ssS'mobley_637522'
p3697
(dp3698
g3
S'c1ccc2cc3ccccc3cc2c1'
p3699
sg27
F-5.39
sg28
F0.03
sg7
(lp3700
g30
asg31
S'anthracene'
p3701
sg12
I8418
sg13
F0.6
sg33
F-3.95
sg15
(lp3702
S'aromatic'
p3703
asg38
g39
sg20
S' anthracene'
p3704
sg41
g42
ssS'mobley_3425174'
p3705
(dp3706
g3
S'C(F)Cl'
p3707
sg27
F-0.22
sg28
F0.01
sg7
(lp3708
g30
asg31
S'chloro-fluoro-methane'
p3709
sg12
I11643
sg13
F0.6
sg33
F-0.77
sg15
(lp3710
S'alkyl fluoride'
p3711
aS'alkyl chloride'
p3712
asg38
g39
sg20
S' chloro-fluoro-methane'
p3713
sg41
g42
ssS'mobley_1615431'
p3714
(dp3715
g3
S'CC(C)OC(C)C'
p3716
sg27
F-0.11
sg28
F0.02
sg7
(lp3717
g30
asg31
S'2-isopropoxypropane'
p3718
sg12
I7914
sg13
F0.6
sg33
F-0.53
sg15
(lp3719
S'dialkyl ether'
p3720
asg38
g39
sg20
S' 2-isopropoxypropane'
p3721
sg41
g42
ssS'mobley_9281946'
p3722
(dp3723
g3
S'CCOP(=S)(OCC)Oc1ccc(cc1)[N+](=O)[O-]'
p3724
sg177
F-9.41
sg178
F0.04
sg7
(lp3725
g30
aS'Changed IUPAC name from parathion to diethoxy-(4-nitrophenoxy)-thioxo-$l^{5}-phosphane for better handling/standardization.'
p3726
asg180
S'diethoxy-(4-nitrophenoxy)-thioxo-$l^{5}-phosphane'
p3727
sg12
I991
sg182
F0.1
sg183
F-6.74
sg15
(lp3728
S'nitro'
p3729
aS'thiophosphoric acid ester'
p3730
aS'aromatic'
p3731
asg186
g187
sg20
S' parathion'
p3732
sg189
g190
ssS'mobley_1469079'
p3733
(dp3734
g3
S'c1ccc2c(c1)Oc3cc(c(cc3O2)Cl)Cl'
p3735
sg212
F-3.51
sg213
F0.02
sg7
(lp3736
g30
asg215
S'2,3-dichlorodibenzo-p-dioxin'
p3737
sg12
I34586
sg217
F1.0
sg218
F-3.56
sg15
(lp3738
S'diaryl ether'
p3739
aS'aryl chloride'
p3740
aS'aromatic'
p3741
aS'heterocyclic'
p3742
asg221
g222
sg20
S' 2,3-dichlorodibenzo-p-dioxin'
p3743
sg224
g225
ssS'mobley_4603202'
p3744
(dp3745
g3
S'C(CCl)OCCCl'
p3746
sg1318
F-2.07
sg1319
F0.01
sg1320
(lp3747
g1322
ag30
aS'Changed IUPAC name from bis-2-chloroethyl ether to 1-chloro-2-(2-chloroethoxy)ethane for better handling/standardization.'
p3748
ag1323
asg1324
S'1-chloro-2-(2-chloroethoxy)ethane'
p3749
sg12
I8115
sg13
F0.2
sg1326
F-4.23
sg15
(lp3750
S'dialkyl ether'
p3751
aS'alkyl chloride'
p3752
asg1329
g1330
sg20
S" 2,2'-dichlorodiethyl ether"
p3753
sg1332
g1330
ssS'mobley_2341732'
p3754
(dp3755
g3
S'CCCCC(=O)OC'
p3756
sg27
F-3.51
sg28
F0.02
sg7
(lp3757
g30
asg31
S'methyl pentanoate'
p3758
sg12
I12206
sg13
F0.6
sg33
F-2.56
sg15
(lp3759
S'carboxylic acid ester'
p3760
asg38
g39
sg20
S' methyl pentanoate'
p3761
sg41
g42
ssS'mobley_6981465'
p3762
(dp3763
g3
S'CC(C)OC(=O)C'
p3764
sg27
F-2.92
sg28
F0.03
sg7
(lp3765
g30
asg31
S'isopropyl acetate'
p3766
sg12
I7915
sg13
F0.6
sg33
F-2.64
sg15
(lp3767
S'carboxylic acid ester'
p3768
asg38
g39
sg20
S' isopropyl acetate'
p3769
sg41
g42
ssS'mobley_1527293'
p3770
(dp3771
g3
S'C[C@@H](c1ccc(c(c1)F)c2ccccc2)C(=O)O'
p3772
sg420
F-8.7
sg421
F0.07
sg7
(lp3773
S'Renamed mobley_1527293 from flurbiprofen to (2S)-2-(3-fluoro-4-phenyl-phenyl)propanoic acid (the name from the 3D structure) since the former did not completely specify stereochemistry.\n'
p3774
asg423
S'flurbiprofen'
p3775
sg12
I3394
sg425
F0.16
sg426
F-8.42
sg15
(lp3776
S'aryl fluoride'
p3777
aS'carboxylic acid'
p3778
aS'aromatic'
p3779
asg432
g433
sg20
S' flurbiprofen'
p3780
sg435
g436
ssS'mobley_5732611'
p3781
(dp3782
g3
S'Cc1c[nH]cn1'
p3783
sg27
F-7.99
sg28
F0.03
sg7
(lp3784
g30
asg31
S'4-methyl-1H-imidazole'
p3785
sg12
I13195
sg13
F0.6
sg33
F-10.27
sg15
(lp3786
S'aromatic'
p3787
aS'heterocyclic'
p3788
asg38
S'10.1021/bi00507a030'
p3789
sg20
S' 4-methyl-1H-imidazole'
p3790
sg41
g42
ssS'mobley_5393242'
p3791
(dp3792
g3
S'CCOP(=S)(OCC)Oc1cc(nc(n1)C(C)C)C'
p3793
sg177
F-9.97
sg178
F0.05
sg7
(lp3794
g30
asg180
S'diazinon'
p3795
sg12
I3017
sg182
F0.13
sg183
F-6.48
sg15
(lp3796
S'thiophosphoric acid ester'
p3797
aS'aromatic'
p3798
aS'heterocyclic'
p3799
asg186
g187
sg20
S' diazinon'
p3800
sg189
g190
ssS'mobley_9624458'
p3801
(dp3802
g3
S'C(CCl)CCl'
p3803
sg27
F-0.38
sg28
F0.02
sg7
(lp3804
g30
asg31
S'1,3-dichloropropane'
p3805
sg12
I8881
sg13
F0.6
sg33
F-1.89
sg15
(lp3806
S'alkyl chloride'
p3807
asg38
g39
sg20
S' 1,3-dichloropropane'
p3808
sg41
g42
ssS'mobley_2316618'
p3809
(dp3810
g3
S'c1ccc2c(c1)C(=O)c3cccc(c3C2=O)NCCO'
p3811
sg512
F-13.33
sg513
F0.029
sg7
(lp3812
g30
asg516
S'1-(2-hydroxyethylamino)-9,10-anthraquinone'
p3813
sg12
I20528
sg518
g519
(g523
S'\x9a\x99\x99\x99\x99\x99\xf1?'
p3814
tp3815
Rp3816
sg529
g519
(g523
S'\xecQ\xb8\x1e\x85k,\xc0'
p3817
tp3818
Rp3819
sg15
(lp3820
S'ketone'
p3821
aS'primary alcohol'
p3822
aS'1,2-aminoalcohol'
p3823
aS'secondary amine'
p3824
aS'secondary aliphatic/aromatic amine (alkylarylamine)'
p3825
aS'aromatic'
p3826
asg535
g536
sg20
S' 9,10-anthracenedione'
p3827
sg538
g539
ssS'mobley_349850'
p3828
(dp3829
g3
S'Cc1ccc(cc1)C(=O)C'
p3830
sg27
F-4.82
sg28
F0.03
sg7
(lp3831
g30
asg31
S'1-(p-tolyl)ethanone'
p3832
sg12
I8500
sg13
F0.6
sg33
F-4.7
sg15
(lp3833
S'ketone'
p3834
aS'aromatic'
p3835
asg38
g39
sg20
S' 1-(p-tolyl)ethanone'
p3836
sg41
g42
ssS'mobley_186894'
p3837
(dp3838
g3
S'CCCS'
p3839
sg5
F-0.3
sg6
F0.1
sg7
(lp3840
g9
asg10
S'propanethiol'
p3841
sg12
I7848
sg13
F0.2
sg14
F-1.1
sg15
(lp3842
S'thiol (sulfanyl)'
p3843
aS'alkylthiol'
p3844
asg18
g19
sg20
S' propanethiol'
p3845
sg22
g23
ssS'mobley_7463408'
p3846
(dp3847
g3
S'CCC(=O)Nc1ccc(c(c1)Cl)Cl'
p3848
sg177
F-9.65
sg178
F0.04
sg7
(lp3849
g30
aS'Changed IUPAC name from propanil to N-(3,4-dichlorophenyl)propanimidic acid for better handling/standardization.'
p3850
asg180
S'N-(3,4-dichlorophenyl)propanimidic acid'
p3851
sg12
I4933
sg182
F1.93
sg183
F-7.78
sg15
(lp3852
S'aryl chloride'
p3853
aS'secondary carboxylic acid amide'
p3854
aS'aromatic'
p3855
asg186
g187
sg20
S' propanil'
p3856
sg189
g190
ssS'mobley_4609460'
p3857
(dp3858
g3
S'CCOC(=O)c1ccc(cc1)O'
p3859
sg420
F-9.57
sg421
F0.06
sg7
(lp3860
g30
asg423
S'ethyl paraben'
p3861
sg12
I8434
sg425
F0.3
sg426
F-9.2
sg15
(lp3862
S'phenol or hydroxyhetarene'
p3863
aS'carboxylic acid ester'
p3864
aS'aromatic'
p3865
asg432
g433
sg20
S' ethyl paraben'
p3866
sg435
g436
ssS'mobley_2049967'
p3867
(dp3868
g3
S'CCSC'
p3869
sg5
F-0.3
sg6
F0.1
sg7
(lp3870
g9
aS'Changed IUPAC name from ethylmethylsulfide to methylsulfanylethane for better handling/standardization.'
p3871
asg10
S'methylsulfanylethane'
p3872
sg12
I12230
sg13
F0.2
sg14
F-1.5
sg15
(lp3873
S'thioether'
p3874
asg18
g19
sg20
S' methylsulfanylethane'
p3875
sg22
g23
ssS'mobley_4759887'
p3876
(dp3877
g3
S'CCCCCCCI'
p3878
sg27
F1.19
sg28
F0.03
sg7
(lp3879
g30
asg31
S'1-iodoheptane'
p3880
sg12
I20274
sg13
F0.6
sg33
F0.27
sg15
(lp3881
S'alkyl iodide'
p3882
asg38
g39
sg20
S' 1-iodoheptane'
p3883
sg41
g42
ssS'mobley_2850833'
p3884
(dp3885
g3
S'c1ccc(c(c1)C=O)O'
p3886
sg512
F-4.89
sg513
F0.018
sg7
(lp3887
g30
asg516
S'2-hydroxybenzaldehyde'
p3888
sg12
I6998
sg518
g519
(g523
S'\x9a\x99\x99\x99\x99\x99\xb9?'
p3889
tp3890
Rp3891
sg529
g519
(g523
S'\xb8\x1e\x85\xebQ\xb8\x12\xc0'
p3892
tp3893
Rp3894
sg15
(lp3895
S'aldehyde'
p3896
aS'phenol or hydroxyhetarene'
p3897
aS'aromatic'
p3898
asg535
g536
sg20
S' 2-hydroxybenzaldehyde'
p3899
sg538
g539
ssS'mobley_511661'
p3900
(dp3901
g3
S'C=CC=C'
p3902
sg5
F1.9
sg6
F0.1
sg7
(lp3903
g9
asg10
S'butadiene'
p3904
sg12
I7845
sg13
F0.2
sg14
F0.56
sg15
(lp3905
S'alkene'
p3906
asg18
S'10.1021/jo00891a006'
p3907
sg20
S' butadiene'
p3908
sg22
g23
ssS'mobley_4463913'
p3909
(dp3910
g3
S'CC(OC(=O)C)OC(=O)C'
p3911
sg27
F-7.9
sg28
F0.1
sg7
(lp3912
g30
asg31
S'1-acetoxyethyl acetate'
p3913
sg12
I222536
sg13
F0.6
sg33
F-4.97
sg15
(lp3914
S'carboxylic acid ester'
p3915
asg38
g1460
sg20
S' 1-acetoxyethyl acetate'
p3916
sg41
g42
ssS'mobley_6632459'
p3917
(dp3918
g3
S'CCC=O'
p3919
sg27
F-3.08
sg28
F0.02
sg7
(lp3920
g30
asg31
S'propanal'
p3921
sg12
I527
sg13
F0.6
sg33
F-3.43
sg15
(lp3922
S'aldehyde'
p3923
asg38
g39
sg20
S' propanal'
p3924
sg41
g42
ssS'mobley_2183616'
p3925
(dp3926
g3
S'CC[C@H](C)c1ccccc1'
p3927
sg27
F0.04
sg28
F0.03
sg7
(lp3928
S'Renamed mobley_2183616 from sec-butylbenzene to [(1S)-1-methylpropyl]benzene (the name from the 3D structure) since the former did not completely specify stereochemistry.\n'
p3929
asg31
S'sec-butylbenzene'
p3930
sg12
I8680
sg13
F0.6
sg33
F-0.45
sg15
(lp3931
S'aromatic'
p3932
asg38
g39
sg20
S' sec-butylbenzene'
p3933
sg41
g42
ssS'mobley_6416775'
p3934
(dp3935
g3
S'CCCC1CCCC1'
p3936
sg27
F2.15
sg28
F0.02
sg7
(lp3937
g30
asg31
S'propylcyclopentane'
p3938
sg12
I16270
sg13
F0.6
sg33
F2.13
sg15
(lp3939
g68
asg38
g39
sg20
S' propylcyclopentane'
p3940
sg41
g42
ssS'mobley_902954'
p3941
(dp3942
g3
S'CCCCO[N+](=O)[O-]'
p3943
sg177
F-1.83
sg178
F0.02
sg7
(lp3944
g30
asg180
S'butyl nitrate'
p3945
sg12
I13567
sg182
F0.1
sg183
F-2.09
sg15
(lp3946
S'nitrate'
p3947
asg186
g187
sg20
S' butyl nitrate'
p3948
sg189
g190
ssS'mobley_2523689'
p3949
(dp3950
g3
S'c1ccc(cc1)n2c(=O)c(c(cn2)N)Cl'
p3951
sg177
F-16.62
sg178
F0.04
sg7
(lp3952
g30
aS'Changed IUPAC name from pyrazon to 5-Amino-4-chloro-2-phenylpyridazin-3(2H)-one for better handling/standardization.'
p3953
asg180
S'5-Amino-4-chloro-2-phenylpyridazin-3(2H)-one'
p3954
sg12
I15546
sg182
F1.93
sg183
F-16.43
sg15
(lp3955
S'primary amine'
p3956
aS'primary aromatic amine'
p3957
aS'aryl chloride'
p3958
aS'oxo(het)arene'
p3959
aS'aromatic'
p3960
aS'heterocyclic'
p3961
asg186
g187
sg20
S' pyrazon'
p3962
sg189
g190
ssS'mobley_3969312'
p3963
(dp3964
g3
S'c1ccc(cc1)C=O'
p3965
sg27
F-4.99
sg28
F0.02
sg7
(lp3966
g30
asg31
S'benzaldehyde'
p3967
sg12
I240
sg13
F0.6
sg33
F-4.02
sg15
(lp3968
S'aldehyde'
p3969
aS'aromatic'
p3970
asg38
g39
sg20
S' benzaldehyde'
p3971
sg41
g42
ssS'mobley_6248915'
p3972
(dp3973
g3
S'CCCCCCCCN'
p3974
sg27
F-2.38
sg28
F0.03
sg7
(lp3975
g30
asg31
S'octan-1-amine'
p3976
sg12
I8143
sg13
F0.6
sg33
F-3.65
sg15
(lp3977
S'primary amine'
p3978
aS'primary aliphatic amine (alkylamine)'
p3979
asg38
g39
sg20
S' octan-1-amine'
p3980
sg41
g42
ssS'mobley_1881249'
p3981
(dp3982
g3
S'CCCC(=O)C'
p3983
sg27
F-3.29
sg28
F0.02
sg7
(lp3984
g30
asg31
S'pentan-2-one'
p3985
sg12
I7895
sg13
F0.6
sg33
F-3.52
sg15
(lp3986
S'ketone'
p3987
asg38
g39
sg20
S' pentan-2-one'
p3988
sg41
g42
ssS'mobley_8449031'
p3989
(dp3990
g3
S'CCN(CC)CC'
p3991
sg27
F-1.83
sg28
F0.03
sg7
(lp3992
g30
asg31
S'N,N-diethylethanamine'
p3993
sg12
I8471
sg13
F0.6
sg33
F-3.22
sg15
(lp3994
S'tertiary amine'
p3995
aS'tertiary aliphatic amine (trialkylamine)'
p3996
asg38
g39
sg20
S' N,N-diethylethanamine'
p3997
sg41
g42
ssS'mobley_5467162'
p3998
(dp3999
g3
S'CC(C)(C)c1ccc(cc1)O'
p4000
sg27
F-5.54
sg28
F0.04
sg7
(lp4001
g30
asg31
S'4-tert-butylphenol'
p4002
sg12
I7393
sg13
F0.6
sg33
F-5.91
sg15
(lp4003
S'phenol or hydroxyhetarene'
p4004
aS'aromatic'
p4005
asg38
g39
sg20
S' 4-tert-butylphenol'
p4006
sg41
g42
ssS'mobley_6522117'
p4007
(dp4008
g3
S'CCOP(=O)(OCC)O/C(=C/Cl)/c1ccc(cc1Cl)Cl'
p4009
sg177
F-9.45
sg178
F0.05
sg7
(lp4010
S'Renamed mobley_6522117 from 2-chloro-1-(2,4-dichlorophenyl)ethenyl diethyl phosphate to [(E)-2-chloro-1-(2,4-dichlorophenyl)vinyl] diethyl phosphate (the name from the 3D structure) since the former did not completely specify stereochemistry.\n'
p4011
asg180
S'2-chloro-1-(2,4-dichlorophenyl)ethenyl diethyl phosphate'
p4012
sg12
I10107
sg182
F1.37
sg183
F-7.07
sg15
(lp4013
S'aryl chloride'
p4014
aS'phosphoric acid ester'
p4015
aS'alkene'
p4016
aS'aromatic'
p4017
asg186
g187
sg20
S' Chlorfenvinphos'
p4018
sg189
g190
ssS'mobley_7977115'
p4019
(dp4020
g3
S'CCC[C@H](CC)O'
p4021
sg27
F-2.63
sg28
F0.02
sg7
(lp4022
S'Renamed mobley_7977115 from hexan-3-ol to (3S)-hexan-3-ol (the name from the 3D structure) since the former did not completely specify stereochemistry.\n'
p4023
asg31
S'hexan-3-ol'
p4024
sg12
I12178
sg13
F0.6
sg33
F-4.06
sg15
(lp4025
S'secondary alcohol'
p4026
asg38
g39
sg20
S' hexan-3-ol'
p4027
sg41
g42
ssS'mobley_8809274'
p4028
(dp4029
g3
S'c1ccc(cc1)C(F)(F)F'
p4030
sg27
F-0.55
sg28
F0.02
sg7
(lp4031
g30
asg31
S'trifluoromethylbenzene'
p4032
sg12
I7368
sg13
F0.6
sg33
F-0.25
sg15
(lp4033
S'halogen derivative'
p4034
aS'aromatic'
p4035
asg38
S'10.1039/P29940001777'
p4036
sg20
S' trifluoromethylbenzene'
p4037
sg41
g42
ssS'mobley_5063386'
p4038
(dp4039
g3
S'c1ccc(c(c1)[N+](=O)[O-])O'
p4040
sg27
F-5.34
sg28
F0.03
sg7
(lp4041
g30
asg31
S'2-nitrophenol'
p4042
sg12
I6947
sg13
F0.6
sg33
F-4.58
sg15
(lp4043
S'phenol or hydroxyhetarene'
p4044
aS'nitro'
p4045
aS'aromatic'
p4046
asg38
g39
sg20
S' 2-nitrophenol'
p4047
sg41
g42
ssS'mobley_2958326'
p4048
(dp4049
g3
S'CCCNCCC'
p4050
sg27
F-2.26
sg28
F0.02
sg7
(lp4051
g30
asg31
S'N-propylpropan-1-amine'
p4052
sg12
I8902
sg13
F0.6
sg33
F-3.65
sg15
(lp4053
S'secondary amine'
p4054
aS'secondary aliphatic amine (dialkylamine)'
p4055
asg38
g39
sg20
S' N-propylpropan-1-amine'
p4056
sg41
g42
ssS'mobley_8052240'
p4057
(dp4058
g3
S'c1ccc2c(c1)C(=O)c3cccc(c3C2=O)N'
p4059
sg512
F-11.59
sg513
F0.022
sg7
(lp4060
g30
asg516
S'1-amino-9,10-anthracenedione'
p4061
sg12
I6710
sg518
g519
(g523
S'\xaeG\xe1z\x14\xae\xe7?'
p4062
tp4063
Rp4064
sg529
g519
(g523
S'\xe1z\x14\xaeG\xe1"\xc0'
p4065
tp4066
Rp4067
sg15
(lp4068
S'ketone'
p4069
aS'primary amine'
p4070
aS'primary aromatic amine'
p4071
aS'aromatic'
p4072
asg535
g536
sg20
S' 1-aminoanthraquinone'
p4073
sg538
g539
ssS'mobley_1760914'
p4074
(dp4075
g3
S'Cc1ccccc1Cl'
p4076
sg27
F-0.51
sg28
F0.02
sg7
(lp4077
g30
asg31
S'1-chloro-2-methyl-benzene'
p4078
sg12
I7238
sg13
F0.6
sg33
F-1.14
sg15
(lp4079
S'aryl chloride'
p4080
aS'aromatic'
p4081
asg38
g39
sg20
S' 1-chloro-2-methyl-benzene'
p4082
sg41
g42
ssS'mobley_2402487'
p4083
(dp4084
g3
S'CCOC(=O)CC(=O)OCC'
p4085
sg27
F-6.45
sg28
F0.04
sg7
(lp4086
g30
asg31
S'diethyl propanedioate'
p4087
sg12
I7761
sg13
F0.6
sg33
F-6.0
sg15
(lp4088
S'carboxylic acid ester'
p4089
asg38
g1460
sg20
S' diethyl propanedioate'
p4090
sg41
g42
ssS'mobley_4059279'
p4091
(dp4092
g3
S'CN1CCN(CC1)C'
p4093
sg27
F-7.4
sg28
F0.03
sg7
(lp4094
g30
asg31
S'1,4-dimethylpiperazine'
p4095
sg12
I7818
sg13
F0.6
sg33
F-7.58
sg15
(lp4096
S'tertiary amine'
p4097
aS'tertiary aliphatic amine (trialkylamine)'
p4098
aS'heterocyclic'
p4099
asg38
g1460
sg20
S' 1,4-dimethylpiperazine'
p4100
sg41
g42
ssS'mobley_9733743'
p4101
(dp4102
g3
S'CCCCN'
p4103
sg27
F-2.82
sg28
F0.02
sg7
(lp4104
g30
asg31
S'butan-1-amine'
p4105
sg12
I8007
sg13
F0.6
sg33
F-4.24
sg15
(lp4106
S'primary amine'
p4107
aS'primary aliphatic amine (alkylamine)'
p4108
asg38
g39
sg20
S' butan-1-amine'
p4109
sg41
g42
ssS'mobley_252413'
p4110
(dp4111
g3
S'CCCC(C)(C)C'
p4112
sg27
F2.9
sg28
F0.02
sg7
(lp4113
g30
asg31
S'2,2-dimethylpentane'
p4114
sg12
I11542
sg13
F0.6
sg33
F2.88
sg15
(lp4115
g68
asg38
g39
sg20
S' 2,2-dimethylpentane'
p4116
sg41
g42
ssS'mobley_1144156'
p4117
(dp4118
g3
S'CCOCC'
p4119
sg27
F-0.7
sg28
F0.02
sg7
(lp4120
g30
asg31
S'ethoxyethane'
p4121
sg12
I3283
sg13
F0.6
sg33
F-1.59
sg15
(lp4122
S'dialkyl ether'
p4123
asg38
g39
sg20
S' ethoxyethane'
p4124
sg41
g42
ssS'mobley_2972906'
p4125
(dp4126
g3
S'c1ccsc1'
p4127
sg5
F-0.6
sg6
F0.1
sg7
(lp4128
g9
asg10
S'thiophene'
p4129
sg12
I8030
sg13
F0.2
sg14
F-1.4
sg15
(lp4130
S'aromatic'
p4131
aS'heterocyclic'
p4132
asg18
g19
sg20
S' thiophene'
p4133
sg22
g23
ssS'mobley_3266352'
p4134
(dp4135
g3
S'CN(CC(F)(F)F)c1ccccc1'
p4136
sg27
F-3.69
sg28
F0.03
sg7
(lp4137
g30
asg31
S'N-methyl-N-(2,2,2-trifluoroethyl)aniline'
p4138
sg12
I13238893
sg13
F0.6
sg33
F-1.92
sg15
(lp4139
S'tertiary amine'
p4140
aS'tertiary aliphatic/aromatic amine (alkylarylamine)'
p4141
aS'halogen derivative'
p4142
aS'aromatic'
p4143
asg38
S'10.1139/v93-262'
p4144
sg20
S' N-methyl-N-(2,2,2-trifluoroethyl)aniline'
p4145
sg41
g42
ssS'mobley_1231151'
p4146
(dp4147
g3
S'CC(C)Cl'
p4148
sg27
F0.82
sg28
F0.02
sg7
(lp4149
g30
asg31
S'2-chloropropane'
p4150
sg12
I6361
sg13
F0.6
sg33
F-0.25
sg15
(lp4151
S'alkyl chloride'
p4152
asg38
g39
sg20
S' 2-chloropropane'
p4153
sg41
g42
ssS'mobley_4035953'
p4154
(dp4155
g3
S'Cc1ccccc1O'
p4156
sg5
F-5.0
sg6
F0.1
sg7
(lp4157
g9
asg10
S'o-cresol'
p4158
sg12
I335
sg13
F0.2
sg14
F-5.9
sg15
(lp4159
S'phenol or hydroxyhetarene'
p4160
aS'aromatic'
p4161
asg18
g19
sg20
S' o-cresol'
p4162
sg22
g23
ssS'mobley_1650157'
p4163
(dp4164
g3
S'CC(C)(C)O'
p4165
sg27
F-3.09
sg28
F0.02
sg7
(lp4166
g30
asg31
S'2-methylpropan-2-ol'
p4167
sg12
I6386
sg13
F0.6
sg33
F-4.47
sg15
(lp4168
S'tertiary alcohol'
p4169
asg38
g39
sg20
S' 2-methylpropan-2-ol'
p4170
sg41
g42
ssS'mobley_299266'
p4171
(dp4172
g3
S'CC(=C)C'
p4173
sg27
F2.34
sg28
F0.02
sg7
(lp4174
g30
asg31
S'2-methylprop-1-ene'
p4175
sg12
I8255
sg13
F0.6
sg33
F1.16
sg15
(lp4176
S'alkene'
p4177
asg38
g39
sg20
S' 2-methylprop-1-ene'
p4178
sg41
g42
ssS'mobley_7774695'
p4179
(dp4180
g3
S'CNc1ccccc1'
p4181
sg27
F-5.74
sg28
F0.03
sg7
(lp4182
g30
asg31
S'N-methylaniline'
p4183
sg12
I7515
sg13
F0.6
sg33
F-4.69
sg15
(lp4184
S'secondary amine'
p4185
aS'secondary aliphatic/aromatic amine (alkylarylamine)'
p4186
aS'aromatic'
p4187
asg38
g39
sg20
S' N-methylaniline'
p4188
sg41
g42
ssS'mobley_7066554'
p4189
(dp4190
g3
S'c1cc(ccc1O)Cl'
p4191
sg27
F-5.36
sg28
F0.02
sg7
(lp4192
g30
asg31
S'4-chlorophenol'
p4193
sg12
I4684
sg13
F0.6
sg33
F-7.03
sg15
(lp4194
S'phenol or hydroxyhetarene'
p4195
aS'aryl chloride'
p4196
aS'aromatic'
p4197
asg38
g39
sg20
S' 4-chlorophenol'
p4198
sg41
g42
ssS'mobley_7326982'
p4199
(dp4200
g3
S'CC(C)O'
p4201
sg27
F-3.28
sg28
F0.02
sg7
(lp4202
g30
asg31
S'propan-2-ol'
p4203
sg12
I3776
sg13
F0.6
sg33
F-4.74
sg15
(lp4204
S'secondary alcohol'
p4205
asg38
g39
sg20
S' propan-2-ol'
p4206
sg41
g42
ssS'mobley_7009711'
p4207
(dp4208
g3
S'Cc1cc(cc(c1)O)C'
p4209
sg27
F-5.12
sg28
F0.03
sg7
(lp4210
g30
asg31
S'3,5-dimethylphenol'
p4211
sg12
I7948
sg13
F0.6
sg33
F-6.27
sg15
(lp4212
S'phenol or hydroxyhetarene'
p4213
aS'aromatic'
p4214
asg38
g39
sg20
S' 3,5-dimethylphenol'
p4215
sg41
g42
ssS'mobley_9705941'
p4216
(dp4217
g3
S'Cc1cccs1'
p4218
sg27
F-0.22
sg28
F0.02
sg7
(lp4219
g30
asg31
S'2-methylthiophene'
p4220
sg12
I11126
sg13
F0.6
sg33
F-1.38
sg15
(lp4221
S'aromatic'
p4222
aS'heterocyclic'
p4223
asg38
g39
sg20
S' 2-methylthiophene'
p4224
sg41
g42
ssS'mobley_4149784'
p4225
(dp4226
g3
S'c1cc2c(cc1Cl)Oc3ccc(cc3O2)Cl'
p4227
sg212
F-3.39
sg213
F0.02
sg7
(lp4228
g30
asg215
S'2,7-dichlorodibenzo-p-dioxin'
p4229
sg12
I36613
sg217
F0.12
sg218
F-3.67
sg15
(lp4230
S'diaryl ether'
p4231
aS'aryl chloride'
p4232
aS'aromatic'
p4233
aS'heterocyclic'
p4234
asg221
g222
sg20
S' 2,7-dichlorodibenzo-p-dioxin'
p4235
sg224
g225
ssS'mobley_2213823'
p4236
(dp4237
g3
S'CCC(C)CC'
p4238
sg27
F2.72
sg28
F0.02
sg7
(lp4239
g30
asg31
S'3-methylpentane'
p4240
sg12
I7282
sg13
F0.6
sg33
F2.51
sg15
(lp4241
g68
asg38
g39
sg20
S' 3-methylpentane'
p4242
sg41
g42
ssS'mobley_7754849'
p4243
(dp4244
g3
S'CCOP(=S)(OCC)SCSP(=S)(OCC)OCC'
p4245
sg177
F-9.71
sg178
F0.05
sg7
(lp4246
g30
asg180
S'ethion'
p4247
sg12
I3286
sg182
F1.37
sg183
F-6.1
sg15
(lp4248
S'thiophosphoric acid ester'
p4249
asg186
g187
sg20
S' ethion'
p4250
sg189
g190
ssS'mobley_8885088'
p4251
(dp4252
g3
S'C1CC=CC1'
p4253
sg27
F1.38
sg28
F0.02
sg7
(lp4254
g30
asg31
S'cyclopentene'
p4255
sg12
I8882
sg13
F0.6
sg33
F0.56
sg15
(lp4256
S'alkene'
p4257
asg38
g39
sg20
S' cyclopentene'
p4258
sg41
g42
ssS'mobley_3359593'
p4259
(dp4260
g3
S'CCCc1ccc(c(c1)OC)O'
p4261
sg512
F-4.1
sg513
F0.024
sg7
(lp4262
g30
asg516
S'4-propylguaiacol'
p4263
sg12
I17739
sg518
F0.18
sg529
F-5.26
sg15
(lp4264
S'phenol or hydroxyhetarene'
p4265
aS'alkyl aryl ether'
p4266
aS'aromatic'
p4267
asg535
g536
sg20
S' 4-propylguaiacol'
p4268
sg538
g539
ssS'mobley_7417968'
p4269
(dp4270
g3
S'CCOCCOC(=O)C'
p4271
sg512
F-6.04
sg513
F0.021
sg7
(lp4272
g30
asg516
S'2-ethoxyethyl acetate'
p4273
sg12
I8095
sg518
g519
(g523
S'\x9a\x99\x99\x99\x99\x99\xb9?'
p4274
tp4275
Rp4276
sg529
g519
(g523
S'=\n\xd7\xa3p=\x15\xc0'
p4277
tp4278
Rp4279
sg15
(lp4280
S'dialkyl ether'
p4281
aS'carboxylic acid ester'
p4282
asg535
g536
sg20
S' 2-ethoxyethyl acetate'
p4283
sg538
g539
ssS'mobley_9653690'
p4284
(dp4285
g3
S'CC1=CC[C@H](C[C@@H]1O)C(=C)C'
p4286
sg512
F-3.38
sg513
F0.021
sg7
(lp4287
g30
asg516
S'(1S,5R)-2-methyl-5-(1-methylethenyl)-2-cyclohexen-1-ol'
p4288
sg12
I94221
sg518
F0.43
sg529
F-4.44
sg15
(lp4289
S'secondary alcohol'
p4290
aS'alkene'
p4291
asg535
g536
sg20
S' trans-carveol'
p4292
sg538
g539
ssS'mobley_4699732'
p4293
(dp4294
g3
S'C[C@@H](CCl)Cl'
p4295
sg27
F-0.2
sg28
F0.02
sg7
(lp4296
S'Renamed mobley_4699732 from 1,2-dichloropropane to (2S)-1,2-dichloropropane (the name from the 3D structure) since the former did not completely specify stereochemistry.\n'
p4297
asg31
S'1,2-dichloropropane'
p4298
sg12
I6564
sg13
F0.6
sg33
F-1.27
sg15
(lp4299
S'alkyl chloride'
p4300
asg38
g39
sg20
S' 1,2-dichloropropane'
p4301
sg41
g42
ssS'mobley_4305650'
p4302
(dp4303
g3
S'CCC#N'
p4304
sg27
F-1.27
sg28
F0.02
sg7
(lp4305
g30
asg31
S'propanenitrile'
p4306
sg12
I7854
sg13
F0.6
sg33
F-3.84
sg15
(lp4307
S'carbonitrile'
p4308
asg38
g39
sg20
S' propanenitrile'
p4309
sg41
g42
ssS'mobley_628951'
p4310
(dp4311
g3
S'c1cc(c(c(c1)Cl)c2c(cccc2Cl)Cl)Cl'
p4312
sg212
F-1.22
sg213
F0.04
sg7
(lp4313
g30
asg215
S'1,3-dichloro-2-(2,6-dichlorophenyl)benzene'
p4314
sg12
I27588
sg217
F0.12
sg218
F-2.28
sg15
(lp4315
S'aryl chloride'
p4316
aS'aromatic'
p4317
asg221
g222
sg20
S" 2,2',6,6'-tetrachlorobiphenyl"
p4318
sg224
g225
ssS'mobley_4883284'
p4319
(dp4320
g3
S'c1ccc(cc1)N'
p4321
sg27
F-5.92
sg28
F0.02
sg7
(lp4322
g30
asg31
S'aniline'
p4323
sg12
I6115
sg13
F0.6
sg33
F-5.49
sg15
(lp4324
S'primary amine'
p4325
aS'primary aromatic amine'
p4326
aS'aromatic'
p4327
asg38
g39
sg20
S' aniline'
p4328
sg41
g42
ssS'mobley_3210206'
p4329
(dp4330
g3
S'C[C@@H](CO[N+](=O)[O-])O[N+](=O)[O-]'
p4331
sg177
F-5.62
sg178
F0.03
sg7
(lp4332
g30
asg180
S'1,2-dinitroxypropane'
p4333
sg12
I21075956
sg182
F0.1
sg183
F-4.95
sg15
(lp4334
S'nitrate'
p4335
asg186
g187
sg20
S' 1,2-dinitroxypropane'
p4336
sg189
g190
ssS'mobley_2802855'
p4337
(dp4338
g3
S'CCCCBr'
p4339
sg27
F1.68
sg28
F0.02
sg7
(lp4340
g30
asg31
S'1-bromobutane'
p4341
sg12
I8002
sg13
F0.6
sg33
F-0.4
sg15
(lp4342
S'alkyl bromide'
p4343
asg38
g39
sg20
S' 1-bromobutane'
p4344
sg41
g42
ssS'mobley_1803862'
p4345
(dp4346
g3
S'CCC(C)C'
p4347
sg27
F2.52
sg28
F0.02
sg7
(lp4348
g30
asg31
S'isopentane'
p4349
sg12
I6556
sg13
F0.6
sg33
F2.38
sg15
(lp4350
g68
asg38
g39
sg20
S' isopentane'
p4351
sg41
g42
ssS'mobley_1858644'
p4352
(dp4353
g3
S'c1ccc(cc1)CCO'
p4354
sg27
F-5.33
sg28
F0.03
sg7
(lp4355
g30
asg31
S'2-phenylethanol'
p4356
sg12
I6054
sg13
F0.6
sg33
F-6.79
sg15
(lp4357
S'primary alcohol'
p4358
aS'aromatic'
p4359
asg38
g39
sg20
S' 2-phenylethanol'
p4360
sg41
g42
ssS'mobley_8467917'
p4361
(dp4362
g3
S'CCCC/C=C/C'
p4363
sg27
F2.83
sg28
F0.02
sg7
(lp4364
S'Renamed mobley_8467917 from hept-2-ene to (E)-hept-2-ene (the name from the 3D structure) since the former did not completely specify stereochemistry.\n'
p4365
asg31
S'hept-2-ene'
p4366
sg12
I11611
sg13
F0.6
sg33
F1.68
sg15
(lp4367
S'alkene'
p4368
asg38
g39
sg20
S' hept-2-ene'
p4369
sg41
g42
ssS'mobley_7017274'
p4370
(dp4371
g3
S'c1ccc2c(c1)ccc3c2cccc3'
p4372
sg27
F-5.15
sg28
F0.03
sg7
(lp4373
g30
asg31
S'phenanthrene'
p4374
sg12
I995
sg13
F0.6
sg33
F-3.88
sg15
(lp4375
S'aromatic'
p4376
asg38
g39
sg20
S' phenanthrene'
p4377
sg41
g42
ssS'mobley_8746821'
p4378
(dp4379
g3
S'Cc1cccnc1C'
p4380
sg27
F-3.27
sg28
F0.02
sg7
(lp4381
g30
asg31
S'2,3-dimethylpyridine'
p4382
sg12
I11420
sg13
F0.6
sg33
F-4.82
sg15
(lp4383
S'aromatic'
p4384
aS'heterocyclic'
p4385
asg38
g39
sg20
S' 2,3-dimethylpyridine'
p4386
sg41
g42
ssS'mobley_4177472'
p4387
(dp4388
g3
S'CC(C)C(C)C(C)C'
p4389
sg27
F2.86
sg28
F0.03
sg7
(lp4390
g30
asg31
S'2,3,4-trimethylpentane'
p4391
sg12
I11269
sg13
F0.6
sg33
F2.56
sg15
(lp4392
g68
asg38
g39
sg20
S' 2,3,4-trimethylpentane'
p4393
sg41
g42
ssS'mobley_8522124'
p4394
(dp4395
g3
S'CCCCCCC#C'
p4396
sg27
F1.12
sg28
F0.03
sg7
(lp4397
g30
asg31
S'oct-1-yne'
p4398
sg12
I12370
sg13
F0.6
sg33
F0.71
sg15
(lp4399
S'alkyne'
p4400
asg38
g39
sg20
S' oct-1-yne'
p4401
sg41
g42
ssS'mobley_1896013'
p4402
(dp4403
g3
S'C1[C@H]([C@@H]([C@H]([C@H](O1)O)O)O)O'
p4404
sg420
F-13.7
sg421
F0.1
sg7
(lp4405
g30
aS'Changed IUPAC name from d-xylose to (2S,3R,4S,5R)-oxane-2,3,4,5-tetrol for better handling/standardization.'
p4406
asg423
S'(2S,3R,4S,5R)-oxane-2,3,4,5-tetrol'
p4407
sg12
I6027
sg425
F0.27
sg426
F-20.52
sg15
(lp4408
S'hemiacetal'
p4409
aS'secondary alcohol'
p4410
aS'1,2-diol'
p4411
aS'heterocyclic'
p4412
asg432
g433
sg20
S' xylose'
p4413
sg435
g436
ssS'mobley_2245668'
p4414
(dp4415
g3
S'CC(C)CO'
p4416
sg27
F-2.96
sg28
F0.02
sg7
(lp4417
g30
asg31
S'2-methylpropan-1-ol'
p4418
sg12
I6560
sg13
F0.6
sg33
F-4.5
sg15
(lp4419
S'primary alcohol'
p4420
asg38
g39
sg20
S' 2-methylpropan-1-ol'
p4421
sg41
g42
ssS'mobley_8723116'
p4422
(dp4423
g3
S'c1cc(ccc1N)Cl'
p4424
sg27
F-5.28
sg28
F0.02
sg7
(lp4425
g30
asg31
S'4-chloroaniline'
p4426
sg12
I7812
sg13
F0.6
sg33
F-5.9
sg15
(lp4427
S'primary amine'
p4428
aS'primary aromatic amine'
p4429
aS'aryl chloride'
p4430
aS'aromatic'
p4431
asg38
g39
sg20
S' 4-chloroaniline'
p4432
sg41
g42
ssS'mobley_129464'
p4433
(dp4434
g3
S'CCCCOCCCC'
p4435
sg27
F0.59
sg28
F0.03
sg7
(lp4436
g30
asg31
S'1-butoxybutane'
p4437
sg12
I8909
sg13
F0.6
sg33
F-0.83
sg15
(lp4438
S'dialkyl ether'
p4439
asg38
g39
sg20
S' 1-butoxybutane'
p4440
sg41
g42
ssS'mobley_9434451'
p4441
(dp4442
g3
S'CC(C)Br'
p4443
sg27
F0.97
sg28
F0.02
sg7
(lp4444
g30
asg31
S'2-bromopropane'
p4445
sg12
I6358
sg13
F0.6
sg33
F-0.48
sg15
(lp4446
S'alkyl bromide'
p4447
asg38
g39
sg20
S' 2-bromopropane'
p4448
sg41
g42
ssS'mobley_7261305'
p4449
(dp4450
g3
S'NN'
p4451
sg27
F-7.1
sg28
F0.02
sg7
(lp4452
g30
asg31
S'hydrazine'
p4453
sg12
I9321
sg13
F0.6
sg33
F-9.3
sg15
(lp4454
S'hydrazine derivative'
p4455
asg38
g39
sg20
S' hydrazine'
p4456
sg41
g42
ssS'mobley_8191186'
p4457
(dp4458
g3
S'C(C(F)(F)F)Cl'
p4459
sg27
F0.16
sg28
F0.02
sg7
(lp4460
g30
asg31
S'2-chloro-1,1,1-trifluoro-ethane'
p4461
sg12
I6408
sg13
F0.6
sg33
F0.06
sg15
(lp4462
S'alkyl chloride'
p4463
asg38
g39
sg20
S' 2-chloro-1,1,1-trifluoro-ethane'
p4464
sg41
g42
ssS'mobley_4434915'
p4465
(dp4466
g3
S'CCl'
p4467
sg27
F0.81
sg28
F0.01
sg7
(lp4468
g30
asg31
S'chloromethane'
p4469
sg12
I6327
sg13
F0.6
sg33
F-0.55
sg15
(lp4470
S'alkyl chloride'
p4471
asg38
g39
sg20
S' chloromethane'
p4472
sg41
g42
ssS'mobley_667278'
p4473
(dp4474
g3
S'c1cc(c(c(c1c2cc(c(c(c2Cl)Cl)Cl)Cl)Cl)Cl)Cl'
p4475
sg212
F-2.21
sg213
F0.08
sg7
(lp4476
g30
asg215
S'1,2,3,4-tetrachloro-5-(2,3,4-trichlorophenyl)benzene'
p4477
sg12
I37037
sg217
F0.1
sg218
F-4.4
sg15
(lp4478
S'aryl chloride'
p4479
aS'aromatic'
p4480
asg221
g222
sg20
S" 2,2',3,3',4,4',5-heptachlorobiphenyl"
p4481
sg224
g225
ssS'mobley_6911232'
p4482
(dp4483
g3
S'CCOC'
p4484
sg27
F-0.82
sg28
F0.02
sg7
(lp4485
g30
asg31
S'methoxyethane'
p4486
sg12
I10903
sg13
F0.6
sg33
F-2.1
sg15
(lp4487
S'dialkyl ether'
p4488
asg38
g39
sg20
S' methoxyethane'
p4489
sg41
g42
ssS'mobley_8057732'
p4490
(dp4491
g3
S'c1cc(cc(c1)Cl)O'
p4492
sg27
F-5.28
sg28
F0.03
sg7
(lp4493
g30
asg31
S'3-chlorophenol'
p4494
sg12
I7933
sg13
F0.6
sg33
F-6.62
sg15
(lp4495
S'phenol or hydroxyhetarene'
p4496
aS'aryl chloride'
p4497
aS'aromatic'
p4498
asg38
g39
sg20
S' 3-chlorophenol'
p4499
sg41
g42
ssS'mobley_5310099'
p4500
(dp4501
g3
S'CCCCC=C'
p4502
sg27
F2.59
sg28
F0.02
sg7
(lp4503
g30
asg31
S'hex-1-ene'
p4504
sg12
I11597
sg13
F0.6
sg33
F1.58
sg15
(lp4505
S'alkene'
p4506
asg38
g39
sg20
S' hex-1-ene'
p4507
sg41
g42
ssS'mobley_5006685'
p4508
(dp4509
g3
S'CC(=C)[C@H]1CCC(=CC1)C=O'
p4510
sg512
F-3.61
sg513
F0.02
sg7
(lp4511
S'Renamed mobley_5006685 from 4-(1-Methylethenyl)-1-cyclohexene-1-carboxaldehyde to (4S)-4-isopropenylcyclohexene-1-carbaldehyde (the name from the 3D structure) since the former did not completely specify stereochemistry.\n'
p4512
asg516
S'4-(1-Methylethenyl)-1-cyclohexene-1-carboxaldehyde'
p4513
sg12
I16441
sg518
g519
(g523
S'\xc3\xf5(\\\x8f\xc2\xc5?'
p4514
tp4515
Rp4516
sg529
g519
(g523
S'\\\x8f\xc2\xf5(\\\x10\xc0'
p4517
tp4518
Rp4519
sg15
(lp4520
S'aldehyde'
p4521
aS'alkene'
p4522
asg535
g536
sg20
S' perillaldehyde'
p4523
sg538
g539
ssS'mobley_6198745'
p4524
(dp4525
g3
S'CC(=O)OCC(COC(=O)C)OC(=O)C'
p4526
sg1318
F-12.16
sg1319
F0.1
sg1320
(lp4527
g1322
ag30
aS'Changed IUPAC name from glycerol triacetate to 2,3-diacetoxypropyl acetate for better handling/standardization.'
p4528
ag1323
asg1324
S'2,3-diacetoxypropyl acetate'
p4529
sg12
I5541
sg13
F0.2
sg1326
F-8.84
sg15
(lp4530
S'carboxylic acid ester'
p4531
asg1329
g1330
sg20
S' 2,3-diacetoxypropyl acetate'
p4532
sg1332
g1330
ssS'mobley_3201701'
p4533
(dp4534
g3
S'Cc1c(nc(nc1OC(=O)N(C)C)N(C)C)C'
p4535
sg177
F-13.68
sg178
F0.04
sg7
(lp4536
g30
aS'Changed IUPAC name from pirimor to 2-(dimethylamino)-5,6-dimethylpyrimidin-4-yl N,N-dimethylcarbamate for better handling/standardization.'
p4537
asg180
S'pirimor'
p4538
sg12
I31645
sg182
F1.93
sg183
F-9.41
sg15
(lp4539
S'tertiary amine'
p4540
aS'tertiary aliphatic/aromatic amine (alkylarylamine)'
p4541
aS'carbamic acid ester (urethane)'
p4542
aS'aromatic'
p4543
aS'heterocyclic'
p4544
asg186
g187
sg20
S' pirimor'
p4545
sg189
g190
ssS'mobley_4690963'
p4546
(dp4547
g3
S'CCOCCOCC'
p4548
sg27
F-3.08
sg28
F0.03
sg7
(lp4549
g30
asg31
S'1,2-diethoxyethane'
p4550
sg12
I12375
sg13
F0.6
sg33
F-3.54
sg15
(lp4551
S'dialkyl ether'
p4552
asg38
g39
sg20
S' 1,2-diethoxyethane'
p4553
sg41
g42
ssS'mobley_1929982'
p4554
(dp4555
g3
S'S'
p4556
sg27
F-1.17
sg28
F0.01
sg7
(lp4557
g30
asg31
S'hydrogen sulfide'
p4558
sg12
I402
sg13
F0.6
sg33
F-0.7
sg15
(lp4559
g68
asg38
g39
sg20
S' hydrogen sulfide'
p4560
sg41
g42
ssS'mobley_3187514'
p4561
(dp4562
g3
S'Cc1ccccc1N'
p4563
sg27
F-5.37
sg28
F0.03
sg7
(lp4564
g30
asg31
S'2-methylaniline'
p4565
sg12
I7242
sg13
F0.6
sg33
F-5.53
sg15
(lp4566
S'primary amine'
p4567
aS'primary aromatic amine'
p4568
aS'aromatic'
p4569
asg38
g39
sg20
S' 2-methylaniline'
p4570
sg41
g42
ssS'mobley_4964807'
p4571
(dp4572
g3
S'CC(=O)CO[N+](=O)[O-]'
p4573
sg177
F-5.18
sg178
F0.02
sg7
(lp4574
g30
asg180
S'nitroxyacetone'
p4575
sg12
I81226
sg182
F0.1
sg183
F-5.99
sg15
(lp4576
S'ketone'
p4577
aS'nitrate'
p4578
asg186
g187
sg20
S' nitroxyacetone'
p4579
sg189
g190
ssS'mobley_210639'
p4580
(dp4581
g3
S'CC(C)I'
p4582
sg27
F0.29
sg28
F0.02
sg7
(lp4583
g30
asg31
S'2-iodopropane'
p4584
sg12
I6362
sg13
F0.6
sg33
F-0.46
sg15
(lp4585
S'alkyl iodide'
p4586
asg38
g39
sg20
S' 2-iodopropane'
p4587
sg41
g42
ssS'mobley_1075836'
p4588
(dp4589
g3
S'CCC(=O)OC'
p4590
sg27
F-3.83
sg28
F0.02
sg7
(lp4591
g30
asg31
S'methyl propanoate'
p4592
sg12
I11124
sg13
F0.6
sg33
F-2.93
sg15
(lp4593
S'carboxylic acid ester'
p4594
asg38
g39
sg20
S' methyl propanoate'
p4595
sg41
g42
ssS'mobley_6091882'
p4596
(dp4597
g3
S'C=C'
p4598
sg27
F2.36
sg28
F0.01
sg7
(lp4599
g30
asg31
S'ethylene'
p4600
sg12
I6325
sg13
F0.6
sg33
F1.28
sg15
(lp4601
S'alkene'
p4602
asg38
g39
sg20
S' ethylene'
p4603
sg41
g42
ssS'mobley_8514745'
p4604
(dp4605
g3
S'CCCCCOC(=O)C'
p4606
sg27
F-2.83
sg28
F0.03
sg7
(lp4607
g30
asg31
S'pentyl acetate'
p4608
sg12
I12348
sg13
F0.6
sg33
F-2.51
sg15
(lp4609
S'carboxylic acid ester'
p4610
asg38
g39
sg20
S' pentyl acetate'
p4611
sg41
g42
ssS'mobley_8668219'
p4612
(dp4613
g3
S'CC[C@@H](C)C(C)C'
p4614
sg27
F2.66
sg28
F0.03
sg7
(lp4615
S'Renamed mobley_8668219 from 2,3-dimethylpentane to (3R)-2,3-dimethylpentane (the name from the 3D structure) since the former did not completely specify stereochemistry.\n'
p4616
asg31
S'2,3-dimethylpentane'
p4617
sg12
I11260
sg13
F0.6
sg33
F2.52
sg15
(lp4618
g68
asg38
g39
sg20
S' 2,3-dimethylpentane'
p4619
sg41
g42
ssS'mobley_9729792'
p4620
(dp4621
g3
S'C1C=CC=CC=C1'
p4622
sg27
F0.15
sg28
F0.02
sg7
(lp4623
g30
asg31
S'cyclohepta-1,3,5-triene'
p4624
sg12
I11000
sg13
F0.6
sg33
F-0.99
sg15
(lp4625
S'alkene'
p4626
asg38
g39
sg20
S' cyclohepta-1,3,5-triene'
p4627
sg41
g42
ssS'mobley_2784376'
p4628
(dp4629
g3
S'C1CC1'
p4630
sg27
F2.64
sg28
F0.02
sg7
(lp4631
g30
asg31
S'cyclopropane'
p4632
sg12
I6351
sg13
F0.6
sg33
F0.75
sg15
(lp4633
g68
asg38
g39
sg20
S' cyclopropane'
p4634
sg41
g42
ssS'mobley_8739734'
p4635
(dp4636
g3
S'CC(C)C(=O)C'
p4637
sg27
F-2.93
sg28
F0.02
sg7
(lp4638
g30
asg31
S'3-methylbutan-2-one'
p4639
sg12
I11251
sg13
F0.6
sg33
F-3.24
sg15
(lp4640
S'ketone'
p4641
asg38
g39
sg20
S' 3-methylbutan-2-one'
p4642
sg41
g42
ssS'mobley_6338073'
p4643
(dp4644
g3
S'CCNc1nc(nc(n1)SC)NC(C)(C)C'
p4645
sg177
F-7.9
sg178
F0.05
sg7
(lp4646
g30
aS'Changed IUPAC name from terbutryn to 2-N-tert-butyl-4-N-ethyl-6-(methylsulfanyl)-1,3,5-triazine-2,4-diamine for better handling/standardization.'
p4647
asg180
S'terbutryn'
p4648
sg12
I13450
sg182
F0.42
sg183
F-6.68
sg15
(lp4649
S'thioether'
p4650
aS'secondary amine'
p4651
aS'secondary aliphatic/aromatic amine (alkylarylamine)'
p4652
aS'aromatic'
p4653
aS'heterocyclic'
p4654
asg186
g187
sg20
S' terbutryn'
p4655
sg189
g190
ssS'mobley_4884177'
p4656
(dp4657
g3
S'CCc1cccnc1'
p4658
sg27
F-2.96
sg28
F0.02
sg7
(lp4659
g30
asg31
S'3-ethylpyridine'
p4660
sg12
I10823
sg13
F0.6
sg33
F-4.59
sg15
(lp4661
S'aromatic'
p4662
aS'heterocyclic'
p4663
asg38
g39
sg20
S' 3-ethylpyridine'
p4664
sg41
g42
ssS'mobley_6081058'
p4665
(dp4666
g3
S'CCCCC/C=C/C=O'
p4667
sg27
F-2.47
sg28
F0.03
sg7
(lp4668
S'Renamed mobley_6081058 from oct-2-enal to (E)-oct-2-enal (the name from the 3D structure) since the former did not completely specify stereochemistry.\n'
p4669
asg31
S'oct-2-enal'
p4670
sg12
I16900
sg13
F0.6
sg33
F-3.43
sg15
(lp4671
S'aldehyde'
p4672
aS'alkene'
p4673
asg38
g39
sg20
S' oct-2-enal'
p4674
sg41
g42
ssS'mobley_9257453'
p4675
(dp4676
g3
S'c1cc(c(cc1O)Cl)Cl'
p4677
sg512
F-5.32
sg513
F0.019
sg7
(lp4678
g30
asg516
S'3,4-dichlorophenol'
p4679
sg12
I7258
sg518
g519
(g523
S'\x9a\x99\x99\x99\x99\x99\xb9?'
p4680
tp4681
Rp4682
sg529
g519
(g523
S')\\\x8f\xc2\xf5(\x1d\xc0'
p4683
tp4684
Rp4685
sg15
(lp4686
S'phenol or hydroxyhetarene'
p4687
aS'aryl chloride'
p4688
aS'aromatic'
p4689
asg535
g536
sg20
S' 3,4-dichlorophenol'
p4690
sg538
g539
ssS'mobley_36119'
p4691
(dp4692
g3
S'CCCCCCCCO'
p4693
sg27
F-2.65
sg28
F0.03
sg7
(lp4694
g30
asg31
S'octan-1-ol'
p4695
sg12
I957
sg13
F0.6
sg33
F-4.09
sg15
(lp4696
S'primary alcohol'
p4697
asg38
g39
sg20
S' octan-1-ol'
p4698
sg41
g42
ssS'mobley_5079234'
p4699
(dp4700
g3
S'CCCCCCCO'
p4701
sg27
F-2.72
sg28
F0.02
sg7
(lp4702
g30
asg31
S'heptan-1-ol'
p4703
sg12
I8129
sg13
F0.6
sg33
F-4.21
sg15
(lp4704
S'primary alcohol'
p4705
asg38
g39
sg20
S' heptan-1-ol'
p4706
sg41
g42
ssS'mobley_2487143'
p4707
(dp4708
g3
S'CCCCC(=O)C'
p4709
sg27
F-2.77
sg28
F0.02
sg7
(lp4710
g30
asg31
S'hexan-2-one'
p4711
sg12
I11583
sg13
F0.6
sg33
F-3.28
sg15
(lp4712
S'ketone'
p4713
asg38
g39
sg20
S' hexan-2-one'
p4714
sg41
g42
ssS'mobley_430089'
p4715
(dp4716
g3
S'CCCC#C'
p4717
sg27
F0.45
sg28
F0.02
sg7
(lp4718
g30
asg31
S'pent-1-yne'
p4719
sg12
I12309
sg13
F0.6
sg33
F0.01
sg15
(lp4720
S'alkyne'
p4721
asg38
g39
sg20
S' pent-1-yne'
p4722
sg41
g42
ssS'mobley_7829570'
p4723
(dp4724
g3
S'CCCC[N@](CC)c1c(cc(cc1[N+](=O)[O-])C(F)(F)F)[N+](=O)[O-]'
p4725
sg177
F-2.68
sg178
F0.04
sg7
(lp4726
g30
aS'Changed IUPAC name from benefin to N-butyl-N-ethyl-2,6-dinitro-4-(trifluoromethyl)aniline for better handling/standardization.'
p4727
asg180
S'N-butyl-N-ethyl-2,6-dinitro-4-(trifluoromethyl)aniline'
p4728
sg12
I2319
sg182
F1.93
sg183
F-3.51
sg15
(lp4729
S'tertiary amine'
p4730
aS'tertiary aliphatic/aromatic amine (alkylarylamine)'
p4731
aS'halogen derivative'
p4732
aS'nitro'
p4733
aS'aromatic'
p4734
asg186
g187
sg20
S' benefin'
p4735
sg189
g190
ssS'mobley_5890803'
p4736
(dp4737
g3
S'CCCOC(=O)CC'
p4738
sg27
F-2.95
sg28
F0.02
sg7
(lp4739
g30
asg31
S'propyl propanoate'
p4740
sg12
I7803
sg13
F0.6
sg33
F-2.44
sg15
(lp4741
S'carboxylic acid ester'
p4742
asg38
g39
sg20
S' propyl propanoate'
p4743
sg41
g42
ssS'mobley_3269565'
p4744
(dp4745
g3
S'CC(C)OC'
p4746
sg27
F-0.75
sg28
F0.02
sg7
(lp4747
g30
asg31
S'2-methoxypropane'
p4748
sg12
I11721
sg13
F0.6
sg33
F-2.01
sg15
(lp4749
S'dialkyl ether'
p4750
asg38
g39
sg20
S' 2-methoxypropane'
p4751
sg41
g42
ssS'mobley_3259411'
p4752
(dp4753
g3
S'C(C(CO)O)O'
p4754
sg420
F-9.71
sg421
F0.06
sg7
(lp4755
g30
asg423
S'glycerol'
p4756
sg12
I753
sg425
F1.0
sg426
F-13.43
sg15
(lp4757
S'primary alcohol'
p4758
aS'secondary alcohol'
p4759
aS'1,2-diol'
p4760
asg432
g433
sg20
S' glycerol'
p4761
sg435
g436
ssS'mobley_766666'
p4762
(dp4763
g3
S'C(=C(Cl)Cl)Cl'
p4764
sg27
F0.99
sg28
F0.02
sg7
(lp4765
g30
asg31
S'1,1,2-trichloroethylene'
p4766
sg12
I6575
sg13
F0.6
sg33
F-0.44
sg15
(lp4767
S'halogen derivative'
p4768
asg38
g39
sg20
S' 1,1,2-trichloroethylene'
p4769
sg41
g42
ssS'mobley_4188615'
p4770
(dp4771
g3
S'CN(C)C(=O)c1ccccc1'
p4772
sg27
F-7.98
sg28
F0.04
sg7
(lp4773
g30
asg31
S'N,N-dimethylbenzamide'
p4774
sg12
I11916
sg13
F0.6
sg33
F-9.29
sg15
(lp4775
S'tertiary carboxylic acid amide'
p4776
aS'aromatic'
p4777
asg38
g653
sg20
S' N,N-dimethylbenzamide'
p4778
sg41
g42
ssS'mobley_3999471'
p4779
(dp4780
g3
S'CC(Cl)Cl'
p4781
sg27
F0.17
sg28
F0.02
sg7
(lp4782
g30
asg31
S'1,1-dichloroethane'
p4783
sg12
I6365
sg13
F0.6
sg33
F-0.84
sg15
(lp4784
S'alkyl chloride'
p4785
asg38
g39
sg20
S' 1,1-dichloroethane'
p4786
sg41
g42
ssS'mobley_5747981'
p4787
(dp4788
g3
S'COCC(OC)(OC)OC'
p4789
sg27
F-5.97
sg28
F0.04
sg7
(lp4790
g30
asg31
S'1,1,1,2-tetramethoxyethane'
p4791
sg12
I141897
sg13
F0.6
sg33
F-5.73
sg15
(lp4792
S'dialkyl ether'
p4793
aS'orthocarboxylic acid derivative'
p4794
aS'orthoester'
p4795
asg38
g51
sg20
S' 1,1,1,2-tetramethoxyethane'
p4796
sg41
g42
ssS'mobley_9671033'
p4797
(dp4798
g3
S'CCC[N+](=O)[O-]'
p4799
sg27
F-1.38
sg28
F0.02
sg7
(lp4800
g30
asg31
S'1-nitropropane'
p4801
sg12
I7903
sg13
F0.6
sg33
F-3.34
sg15
(lp4802
S'nitro'
p4803
asg38
g39
sg20
S' 1-nitropropane'
p4804
sg41
g42
ssS'mobley_525934'
p4805
(dp4806
g3
S'CS'
p4807
sg5
F-0.2
sg6
F0.1
sg7
(lp4808
g9
asg10
S'methanethiol'
p4809
sg12
I878
sg13
F0.2
sg14
F-1.2
sg15
(lp4810
S'thiol (sulfanyl)'
p4811
aS'alkylthiol'
p4812
asg18
g19
sg20
S' methanethiol'
p4813
sg22
g23
ssS'mobley_8578590'
p4814
(dp4815
g3
S'CS(=O)C'
p4816
sg27
F-8.32
sg28
F0.03
sg7
(lp4817
g30
aS'Updated 10/22/13 using the mean of experimental data from two sources from J. Peter Guthrie --  Watts & Brimblecombe (1987) and Taft & Abraham et al. (1985). Uncertainty taken as the standard deviation across the two datapoints..\n'
p4818
asg31
S'methylsulfinylmethane'
p4819
sg12
I679
sg13
g519
(g523
S'8\n\xd7\xa3p=\xe2?'
p4820
tp4821
Rp4822
sg33
g519
(g523
S'\x90\xc2\xf5(\\\x8f"\xc0'
p4823
tp4824
Rp4825
sg15
(lp4826
S'sulfoxide'
p4827
asg38
S'10.1080/09593338709384509 and 10.1038/313384a0'
p4828
sg20
S' methylsulfinylmethane'
p4829
sg41
g42
ssS'mobley_1821184'
p4830
(dp4831
g3
S'Cc1c[nH]c2c1cccc2'
p4832
sg27
F-6.55
sg28
F0.03
sg7
(lp4833
g30
asg31
S'3-methyl-1H-indole'
p4834
sg12
I6736
sg13
F0.6
sg33
F-5.88
sg15
(lp4835
S'aromatic'
p4836
aS'heterocyclic'
p4837
asg38
g3789
sg20
S' 3-methyl-1H-indole'
p4838
sg41
g42
ssS'mobley_6571751'
p4839
(dp4840
g3
S'CC1=CCCCC1'
p4841
sg27
F1.33
sg28
F0.02
sg7
(lp4842
g30
asg31
S'1-methylcyclohexene'
p4843
sg12
I11574
sg13
F0.6
sg33
F0.67
sg15
(lp4844
S'alkene'
p4845
asg38
g39
sg20
S' 1-methylcyclohexene'
p4846
sg41
g42
ssS'mobley_4553008'
p4847
(dp4848
g3
S'c1cc(ccc1Cl)Cl'
p4849
sg27
F-0.1
sg28
F0.02
sg7
(lp4850
g30
asg31
S'1,4-dichlorobenzene'
p4851
sg12
I4685
sg13
F0.6
sg33
F-1.01
sg15
(lp4852
S'aryl chloride'
p4853
aS'aromatic'
p4854
asg38
g39
sg20
S' 1,4-dichlorobenzene'
p4855
sg41
g42
ssS'mobley_5690766'
p4856
(dp4857
g3
S'C=CCCC=C'
p4858
sg27
F2.44
sg28
F0.02
sg7
(lp4859
g30
asg31
S'hexa-1,5-diene'
p4860
sg12
I11598
sg13
F0.6
sg33
F1.01
sg15
(lp4861
S'alkene'
p4862
asg38
g39
sg20
S' hexa-1,5-diene'
p4863
sg41
g42
ssS'mobley_7532833'
p4864
(dp4865
g3
S'CC#N'
p4866
sg27
F-2.51
sg28
F0.01
sg7
(lp4867
g30
asg31
S'acetonitrile'
p4868
sg12
I6342
sg13
F0.6
sg33
F-3.88
sg15
(lp4869
S'carbonitrile'
p4870
asg38
S'10.1021/jp0264477'
p4871
sg20
S' acetonitrile'
p4872
sg41
g42
ssS'mobley_3398536'
p4873
(dp4874
g3
S'c1ccc(cc1)I'
p4875
sg27
F-0.34
sg28
F0.02
sg7
(lp4876
g30
asg31
S'iodobenzene'
p4877
sg12
I11575
sg13
F0.6
sg33
F-1.74
sg15
(lp4878
S'aryl iodide'
p4879
aS'aromatic'
p4880
asg38
g39
sg20
S' iodobenzene'
p4881
sg41
g42
ssS'mobley_3546460'
p4882
(dp4883
g3
S'CCCCCCO'
p4884
sg27
F-3.03
sg28
F0.02
sg7
(lp4885
g30
asg31
S'hexan-1-ol'
p4886
sg12
I8103
sg13
F0.6
sg33
F-4.4
sg15
(lp4887
S'primary alcohol'
p4888
asg38
g39
sg20
S' hexan-1-ol'
p4889
sg41
g42
ssS'mobley_7106722'
p4890
(dp4891
g3
S'CCCC(C)C'
p4892
sg27
F2.78
sg28
F0.02
sg7
(lp4893
g30
asg31
S'isohexane'
p4894
sg12
I7892
sg13
F0.6
sg33
F2.51
sg15
(lp4895
g68
asg38
g39
sg20
S' isohexane'
p4896
sg41
g42
ssS'mobley_3746675'
p4897
(dp4898
g3
S'CC(=C)c1ccccc1'
p4899
sg27
F-1.26
sg28
F0.02
sg7
(lp4900
g30
asg31
S'isopropenylbenzene'
p4901
sg12
I7407
sg13
F0.6
sg33
F-1.24
sg15
(lp4902
S'alkene'
p4903
aS'aromatic'
p4904
asg38
g39
sg20
S' isopropenylbenzene'
p4905
sg41
g42
ssS'mobley_6727159'
p4906
(dp4907
g3
S'C(CO[N+](=O)[O-])O'
p4908
sg177
F-6.5
sg178
F0.03
sg7
(lp4909
g30
aS'Changed IUPAC name from ethyleneglycol mononitrate to 2-(nitrooxy)ethan-1-ol for better handling/standardization.'
p4910
asg180
S'2-(nitrooxy)ethan-1-ol'
p4911
sg12
I85254
sg182
F0.1
sg183
F-8.18
sg15
(lp4912
S'primary alcohol'
p4913
aS'nitrate'
p4914
asg186
g187
sg20
S' 2-(nitrooxy)ethan-1-ol'
p4915
sg189
g190
ssS'mobley_4639255'
p4916
(dp4917
g3
S'C(CO)O'
p4918
sg27
F-7.62
sg28
F0.03
sg7
(lp4919
g30
asg31
S'ethylene glycol'
p4920
sg12
I174
sg13
F0.6
sg33
F-9.3
sg15
(lp4921
S'primary alcohol'
p4922
aS'1,2-diol'
p4923
asg38
g39
sg20
S' ethylene glycol'
p4924
sg41
g42
ssS'mobley_486214'
p4925
(dp4926
g3
S'COc1cccc(c1O)OC'
p4927
sg512
F-7.05
sg513
F0.022
sg7
(lp4928
g30
asg516
S'2,6-dimethoxyphenol'
p4929
sg12
I7041
sg518
g519
(g523
S'\x9a\x99\x99\x99\x99\x99\xb9?'
p4930
tp4931
Rp4932
sg529
g519
(g523
S'\xd7\xa3p=\n\xd7\x1b\xc0'
p4933
tp4934
Rp4935
sg15
(lp4936
S'phenol or hydroxyhetarene'
p4937
aS'alkyl aryl ether'
p4938
aS'aromatic'
p4939
asg535
g536
sg20
S' 2,6-dimethoxyphenol'
p4940
sg538
g539
ssS'mobley_9565165'
p4941
(dp4942
g3
S'c1ccc-2c(c1)Cc3c2cccc3'
p4943
sg27
F-4.29
sg28
F0.02
sg7
(lp4944
g30
asg31
S'9H-fluorene'
p4945
sg12
I6853
sg13
F0.6
sg33
F-3.35
sg15
(lp4946
S'aromatic'
p4947
asg38
g39
sg20
S' 9H-fluorene'
p4948
sg41
g42
ssS'mobley_2609604'
p4949
(dp4950
g3
S'CCC(C)(C)CC'
p4951
sg27
F2.53
sg28
F0.03
sg7
(lp4952
g30
asg31
S'3,3-dimethylpentane'
p4953
sg12
I11229
sg13
F0.6
sg33
F2.56
sg15
(lp4954
g68
asg38
g39
sg20
S' 3,3-dimethylpentane'
p4955
sg41
g42
ssS'mobley_5747188'
p4956
(dp4957
g3
S'Cc1ccccc1[N+](=O)[O-]'
p4958
sg27
F-3.14
sg28
F0.02
sg7
(lp4959
g30
asg31
S'1-methyl-2-nitro-benzene'
p4960
sg12
I6944
sg13
F0.6
sg33
F-3.58
sg15
(lp4961
S'nitro'
p4962
aS'aromatic'
p4963
asg38
g39
sg20
S' 1-methyl-2-nitro-benzene'
p4964
sg41
g42
ssS'mobley_1967551'
p4965
(dp4966
g3
S'CC=O'
p4967
sg27
F-3.39
sg28
F0.02
sg7
(lp4968
g30
asg31
S'acetaldehyde'
p4969
sg12
I177
sg13
F0.6
sg33
F-3.5
sg15
(lp4970
S'aldehyde'
p4971
asg38
g39
sg20
S' acetaldehyde'
p4972
sg41
g42
ssS'mobley_4587267'
p4973
(dp4974
g3
S'C([C@H]([C@H]([C@@H]([C@@H](CO)O)O)O)O)O'
p4975
sg512
F-18.64
sg513
F0.043
sg7
(lp4976
g30
asg516
S'(2R,3R,4R,5R)-Hexan-1,2,3,4,5,6-hexol'
p4977
sg12
I6251
sg518
g519
(g523
S'{\x14\xaeG\xe1z\xd4?'
p4978
tp4979
Rp4980
sg529
g519
(g523
S'\x1f\x85\xebQ\xb8\x9e7\xc0'
p4981
tp4982
Rp4983
sg15
(lp4984
S'primary alcohol'
p4985
aS'secondary alcohol'
p4986
aS'1,2-diol'
p4987
asg535
g536
sg20
S' mannitol'
p4988
sg538
g539
ssS'mobley_172879'
p4989
(dp4990
g3
S'c1ccc2c(c1)Oc3ccccc3O2'
p4991
sg212
F-4.8
sg213
F0.02
sg7
(lp4992
g30
asg215
S'dibenzo-p-dioxin'
p4993
sg12
I9216
sg217
F0.1
sg218
F-3.15
sg15
(lp4994
S'diaryl ether'
p4995
aS'aromatic'
p4996
aS'heterocyclic'
p4997
asg221
g222
sg20
S' dibenzo-p-dioxin'
p4998
sg224
g225
ssS'mobley_2457863'
p4999
(dp5000
g3
S'COc1cccc(c1)O'
p5001
sg27
F-7.03
sg28
F0.03
sg7
(lp5002
g30
asg31
S'3-methoxyphenol'
p5003
sg12
I9007
sg13
F0.6
sg33
F-7.66
sg15
(lp5004
S'phenol or hydroxyhetarene'
p5005
aS'alkyl aryl ether'
p5006
aS'aromatic'
p5007
asg38
g39
sg20
S' 3-methoxyphenol'
p5008
sg41
g42
ssS'mobley_2143011'
p5009
(dp5010
g3
S'CC(C)C=C'
p5011
sg27
F2.8
sg28
F0.02
sg7
(lp5012
g30
asg31
S'3-methylbut-1-ene'
p5013
sg12
I11239
sg13
F0.6
sg33
F1.83
sg15
(lp5014
S'alkene'
p5015
asg38
g4871
sg20
S' 3-methylbut-1-ene'
p5016
sg41
g42
ssS'mobley_2837389'
p5017
(dp5018
g3
S'c1cc[nH]c1'
p5019
sg27
F-3.87
sg28
F0.02
sg7
(lp5020
g30
asg31
S'pyrrole'
p5021
sg12
I8027
sg13
F0.6
sg33
F-4.78
sg15
(lp5022
S'aromatic'
p5023
aS'heterocyclic'
p5024
asg38
g39
sg20
S' pyrrole'
p5025
sg41
g42
ssS'mobley_8789465'
p5026
(dp5027
g3
S'c1ccc(c(c1)O)I'
p5028
sg27
F-2.91
sg28
F0.03
sg7
(lp5029
g30
asg31
S'2-iodophenol'
p5030
sg12
I10784
sg13
F0.6
sg33
F-6.2
sg15
(lp5031
S'phenol or hydroxyhetarene'
p5032
aS'aryl iodide'
p5033
aS'aromatic'
p5034
asg38
g39
sg20
S' 2-iodophenol'
p5035
sg41
g42
ssS'mobley_2859600'
p5036
(dp5037
g3
S'C=Cc1ccccc1'
p5038
sg27
F-1.32
sg28
F0.02
sg7
(lp5039
g30
asg31
S'styrene'
p5040
sg12
I7501
sg13
F0.6
sg33
F-1.24
sg15
(lp5041
S'alkene'
p5042
aS'aromatic'
p5043
asg38
g39
sg20
S' styrene'
p5044
sg41
g42
ssS'mobley_1855337'
p5045
(dp5046
g3
S'c1c(cc(c(c1Cl)Cl)Cl)Cl'
p5047
sg27
F-0.02
sg28
F0.02
sg7
(lp5048
g30
asg31
S'1,2,3,5-tetrachlorobenzene'
p5049
sg12
I12468
sg13
F0.6
sg33
F-1.62
sg15
(lp5050
S'aryl chloride'
p5051
aS'aromatic'
p5052
asg38
g39
sg20
S' 1,2,3,5-tetrachlorobenzene'
p5053
sg41
g42
ssS'mobley_9740891'
p5054
(dp5055
g3
S'c1cc(c(c(c1)Cl)C#N)Cl'
p5056
sg177
F-2.57
sg178
F0.02
sg7
(lp5057
g30
asg180
S'dichlobenil'
p5058
sg12
I3031
sg182
F1.93
sg183
F-4.71
sg15
(lp5059
S'aryl chloride'
p5060
aS'carbonitrile'
p5061
aS'aromatic'
p5062
asg186
g187
sg20
S' dichlobenil'
p5063
sg189
g190
ssS'mobley_2771569'
p5064
(dp5065
g3
S'CN1CCNCC1'
p5066
sg27
F-8.3
sg28
F0.03
sg7
(lp5067
g30
asg31
S'1-methylpiperazine'
p5068
sg12
I53167
sg13
F0.6
sg33
F-7.77
sg15
(lp5069
S'secondary amine'
p5070
aS'secondary aliphatic amine (dialkylamine)'
p5071
aS'tertiary amine'
p5072
aS'tertiary aliphatic amine (trialkylamine)'
p5073
aS'heterocyclic'
p5074
asg38
g39
sg20
S' 1-methylpiperazine'
p5075
sg41
g42
ssS'mobley_8221999'
p5076
(dp5077
g3
S'CCCC#N'
p5078
sg27
F-2.23
sg28
F0.02
sg7
(lp5079
g30
asg31
S'butanenitrile'
p5080
sg12
I8008
sg13
F0.6
sg33
F-3.64
sg15
(lp5081
S'carbonitrile'
p5082
asg38
g39
sg20
S' butanenitrile'
p5083
sg41
g42
ssS'mobley_4762983'
p5084
(dp5085
g3
S'CCCCCC=C'
p5086
sg27
F2.97
sg28
F0.02
sg7
(lp5087
g30
asg31
S'hept-1-ene'
p5088
sg12
I11610
sg13
F0.6
sg33
F1.66
sg15
(lp5089
S'alkene'
p5090
asg38
g39
sg20
S' hept-1-ene'
p5091
sg41
g42
ssS'mobley_2279874'
p5092
(dp5093
g3
S'COC(OC)OC'
p5094
sg27
F-4.06
sg28
F0.03
sg7
(lp5095
g30
asg31
S'trimethoxymethane'
p5096
sg12
I9005
sg13
F0.6
sg33
F-4.42
sg15
(lp5097
S'orthocarboxylic acid derivative'
p5098
aS'orthoester'
p5099
asg38
g1494
sg20
S' trimethoxymethane'
p5100
sg41
g42
ssS'mobley_8764620'
p5101
(dp5102
g3
S'c1cc(cnc1)C#N'
p5103
sg27
F-4.63
sg28
F0.02
sg7
(lp5104
g30
asg31
S'pyridine-3-carbonitrile'
p5105
sg12
I79
sg13
F0.6
sg33
F-6.75
sg15
(lp5106
S'carbonitrile'
p5107
aS'aromatic'
p5108
aS'heterocyclic'
p5109
asg38
g39
sg20
S' pyridine-3-carbonitrile'
p5110
sg41
g42
ssS'mobley_4613090'
p5111
(dp5112
g3
S'c1ccc(cc1)Cn2ccnc2'
p5113
sg512
F-7.94
sg513
F0.022
sg7
(lp5114
g30
asg516
S'1-benzylimidazole'
p5115
sg12
I77918
sg518
g519
(g523
S'\xb8\x1e\x85\xebQ\xb8\xbe?'
p5116
tp5117
Rp5118
sg529
g519
(g523
S'\x85\xebQ\xb8\x1e\x85\x1e\xc0'
p5119
tp5120
Rp5121
sg15
(lp5122
S'aromatic'
p5123
aS'heterocyclic'
p5124
asg535
g536
sg20
S' 1-benzylimidazole'
p5125
sg538
g539
ssS'mobley_6978427'
p5126
(dp5127
g3
S'COC(=O)C1CCCCC1'
p5128
sg27
F-4.29
sg28
F0.02
sg7
(lp5129
g30
asg31
S'methyl cyclohexanecarboxylate'
p5130
sg12
I20748
sg13
F0.6
sg33
F-3.3
sg15
(lp5131
S'carboxylic acid ester'
p5132
asg38
g39
sg20
S' methyl cyclohexanecarboxylate'
p5133
sg41
g42
ssS'mobley_6739648'
p5134
(dp5135
g3
S'C1COCCO1'
p5136
sg27
F-4.35
sg28
F0.02
sg7
(lp5137
g30
asg31
S'1,4-dioxane'
p5138
sg12
I31275
sg13
F0.6
sg33
F-5.06
sg15
(lp5139
S'dialkyl ether'
p5140
aS'heterocyclic'
p5141
asg38
g39
sg20
S' 1,4-dioxane'
p5142
sg41
g42
ssS'mobley_3105103'
p5143
(dp5144
g3
S'Cc1c(c(=O)n(c(=O)[nH]1)C(C)(C)C)Cl'
p5145
sg177
F-13.33
sg178
F0.04
sg7
(lp5146
g30
asg180
S'terbacil'
p5147
sg12
I22188
sg182
F1.93
sg183
F-11.14
sg15
(lp5148
S'aryl chloride'
p5149
aS'oxo(het)arene'
p5150
aS'aromatic'
p5151
aS'heterocyclic'
p5152
asg186
g187
sg20
S' terbacil'
p5153
sg189
g190
ssS'mobley_1800170'
p5154
(dp5155
g3
S'CCS'
p5156
sg27
F-0.4
sg28
F0.02
sg7
(lp5157
g30
asg31
S'ethanethiol'
p5158
sg12
I6343
sg13
F0.6
sg33
F-1.14
sg15
(lp5159
S'thiol (sulfanyl)'
p5160
aS'alkylthiol'
p5161
asg38
g39
sg20
S' ethanethiol'
p5162
sg41
g42
ssS'mobley_1046331'
p5163
(dp5164
g3
S'c1ccc(cc1)OC=O'
p5165
sg27
F-4.83
sg28
F0.02
sg7
(lp5166
g30
asg31
S'phenyl formate'
p5167
sg12
I74626
sg13
F0.6
sg33
F-3.82
sg15
(lp5168
S'carboxylic acid ester'
p5169
aS'aromatic'
p5170
asg38
g805
sg20
S' phenyl formate'
p5171
sg41
g42
ssS'mobley_9821936'
p5172
(dp5173
g3
S'c12c(c(c(c(c1Cl)Cl)Cl)Cl)Oc3c(c(c(c(c3Cl)Cl)Cl)Cl)O2'
p5174
sg212
F-1.15
sg213
F0.04
sg7
(lp5175
g30
asg215
S'1,2,3,4,6,7,8,9-octachlorodibenzo-p-dioxin'
p5176
sg12
I18636
sg217
F1.0
sg218
F-4.53
sg15
(lp5177
S'diaryl ether'
p5178
aS'aryl chloride'
p5179
aS'aromatic'
p5180
aS'heterocyclic'
p5181
asg221
g222
sg20
S' octachlorodibenzo-p-dioxin'
p5182
sg224
g225
ssS'mobley_4983965'
p5183
(dp5184
g3
S'CCSCC'
p5185
sg27
F0.21
sg28
F0.02
sg7
(lp5186
g30
asg31
S'ethylsulfanylethane'
p5187
sg12
I9609
sg13
F0.6
sg33
F-1.46
sg15
(lp5188
S'thioether'
p5189
asg38
g39
sg20
S' ethylsulfanylethane'
p5190
sg41
g42
ssS'mobley_1781152'
p5191
(dp5192
g3
S'CC(C)(C)C(=O)OC'
p5193
sg27
F-2.99
sg28
F0.02
sg7
(lp5194
g30
asg31
S'methyl 2,2-dimethylpropanoate'
p5195
sg12
I69027
sg13
F0.6
sg33
F-2.4
sg15
(lp5196
S'carboxylic acid ester'
p5197
asg38
g39
sg20
S' methyl 2,2-dimethylpropanoate'
p5198
sg41
g42
ssS'mobley_4483973'
p5199
(dp5200
g3
S'c1ccc(cc1)F'
p5201
sg27
F-0.07
sg28
F0.02
sg7
(lp5202
g30
asg31
S'fluorobenzene'
p5203
sg12
I10008
sg13
F0.6
sg33
F-0.8
sg15
(lp5204
S'aryl fluoride'
p5205
aS'aromatic'
p5206
asg38
g39
sg20
S' fluorobenzene'
p5207
sg41
g42
ssS'mobley_4780078'
p5208
(dp5209
g3
S'Cc1ccc(c(c1)C)O'
p5210
sg27
F-4.55
sg28
F0.03
sg7
(lp5211
g30
asg31
S'2,4-dimethylphenol'
p5212
sg12
I7771
sg13
F0.6
sg33
F-6.01
sg15
(lp5213
S'phenol or hydroxyhetarene'
p5214
aS'aromatic'
p5215
asg38
g39
sg20
S' 2,4-dimethylphenol'
p5216
sg41
g42
ssS'mobley_2294995'
p5217
(dp5218
g3
S'CCOC=O'
p5219
sg27
F-2.99
sg28
F0.02
sg7
(lp5220
g30
asg31
S'ethyl formate'
p5221
sg12
I8025
sg13
F0.6
sg33
F-2.56
sg15
(lp5222
S'carboxylic acid ester'
p5223
asg38
g39
sg20
S' ethyl formate'
p5224
sg41
g42
ssS'mobley_303222'
p5225
(dp5226
g3
S'CC=C'
p5227
sg27
F2.44
sg28
F0.02
sg7
(lp5228
g30
asg31
S'prop-1-ene'
p5229
sg12
I8252
sg13
F0.6
sg33
F1.32
sg15
(lp5230
S'alkene'
p5231
asg38
g39
sg20
S' prop-1-ene'
p5232
sg41
g42
ssS'mobley_1563176'
p5233
(dp5234
g3
S'CCCCS'
p5235
sg27
F-0.12
sg28
F0.02
sg7
(lp5236
g30
asg31
S'butane-1-thiol'
p5237
sg12
I8012
sg13
F0.6
sg33
F-0.99
sg15
(lp5238
S'thiol (sulfanyl)'
p5239
aS'alkylthiol'
p5240
asg38
g39
sg20
S' butane-1-thiol'
p5241
sg41
g42
ssS'mobley_4375719'
p5242
(dp5243
g3
S'CCCCCCCCC'
p5244
sg27
F3.32
sg28
F0.03
sg7
(lp5245
g30
asg31
S'nonane'
p5246
sg12
I8141
sg13
F0.6
sg33
F3.13
sg15
(lp5247
g68
asg38
g39
sg20
S' nonane'
p5248
sg41
g42
ssS'mobley_8117218'
p5249
(dp5250
g3
S'C1[C@@H]2[C@H]3[C@@H]([C@H]1[C@H]4[C@@H]2O4)[C@@]5(C(=C([C@]3(C5(Cl)Cl)Cl)Cl)Cl)Cl'
p5251
sg177
F-4.77
sg178
F0.07
sg7
(lp5252
g30
asg180
S'endrin'
p5253
sg12
I3048
sg182
F0.1
sg183
F-4.82
sg15
(lp5254
S'dialkyl ether'
p5255
aS'alkyl chloride'
p5256
aS'alkene'
p5257
aS'heterocyclic'
p5258
asg186
g187
sg20
S' endrin'
p5259
sg189
g190
ssS'mobley_8765203'
p5260
(dp5261
g3
S'CC(=C)C=C'
p5262
sg27
F1.81
sg28
F0.02
sg7
(lp5263
g30
asg31
S'isoprene'
p5264
sg12
I6557
sg13
F0.6
sg33
F0.68
sg15
(lp5265
S'alkene'
p5266
asg38
g39
sg20
S' isoprene'
p5267
sg41
g42
ssS'mobley_1278715'
p5268
(dp5269
g3
S'C(C(Cl)(Cl)Cl)(Cl)(Cl)Cl'
p5270
sg420
F1.0
sg421
F0.04
sg7
(lp5271
g30
asg423
S'hexachloroethane'
p5272
sg12
I6214
sg425
F0.1
sg426
F-0.64
sg15
(lp5273
S'halogen derivative'
p5274
asg432
g433
sg20
S' hexachloroethane'
p5275
sg435
g436
ssS'mobley_2269032'
p5276
(dp5277
g3
S'C[C@@H](c1ccc2cc(ccc2c1)OC)C(=O)O'
p5278
sg420
F-10.8
sg421
F0.1
sg7
(lp5279
g30
asg423
S'naproxen'
p5280
sg12
I156391
sg425
F0.18
sg426
F-10.21
sg15
(lp5281
S'alkyl aryl ether'
p5282
aS'carboxylic acid'
p5283
aS'aromatic'
p5284
asg432
g433
sg20
S' naproxen'
p5285
sg435
g436
ssS'mobley_929676'
p5286
(dp5287
g3
S'CCCCCCBr'
p5288
sg27
F1.78
sg28
F0.02
sg7
(lp5289
g30
asg31
S'1-bromohexane'
p5290
sg12
I8101
sg13
F0.6
sg33
F0.18
sg15
(lp5291
S'alkyl bromide'
p5292
asg38
g39
sg20
S' 1-bromohexane'
p5293
sg41
g42
ssS'mobley_1328465'
p5294
(dp5295
g3
S'C(C(Cl)Cl)Cl'
p5296
sg27
F-0.5
sg28
F0.03
sg7
(lp5297
g30
asg31
S'1,1,2-trichloroethane'
p5298
sg12
I6574
sg13
F0.6
sg33
F-1.99
sg15
(lp5299
S'alkyl chloride'
p5300
asg38
g39
sg20
S' 1,1,2-trichloroethane'
p5301
sg41
g42
ssS'mobley_296847'
p5302
(dp5303
g3
S'c1ccncc1'
p5304
sg27
F-3.45
sg28
F0.02
sg7
(lp5305
g30
asg31
S'pyridine'
p5306
sg12
I1049
sg13
F0.6
sg33
F-4.69
sg15
(lp5307
S'aromatic'
p5308
aS'heterocyclic'
p5309
asg38
g39
sg20
S' pyridine'
p5310
sg41
g42
ssS'mobley_3663158'
p5311
(dp5312
g3
S'c1ccc2cc(ccc2c1)O'
p5313
sg27
F-7.88
sg28
F0.03
sg7
(lp5314
g30
asg31
S'naphthalen-2-ol'
p5315
sg12
I8663
sg13
F0.6
sg33
F-8.11
sg15
(lp5316
S'phenol or hydroxyhetarene'
p5317
aS'aromatic'
p5318
asg38
g39
sg20
S' naphthalen-2-ol'
p5319
sg41
g42
ssS'mobley_9121449'
p5320
(dp5321
g3
S'CCC#C'
p5322
sg27
F0.51
sg28
F0.02
sg7
(lp5323
g30
asg31
S'but-1-yne'
p5324
sg12
I7846
sg13
F0.6
sg33
F-0.16
sg15
(lp5325
S'alkyne'
p5326
asg38
g39
sg20
S' but-1-yne'
p5327
sg41
g42
ssS'mobley_7295828'
p5328
(dp5329
g3
S'COc1ccccc1'
p5330
sg27
F-2.3
sg28
F0.02
sg7
(lp5331
g30
asg31
S'anisole'
p5332
sg12
I7519
sg13
F0.6
sg33
F-2.45
sg15
(lp5333
S'alkyl aryl ether'
p5334
aS'aromatic'
p5335
asg38
g39
sg20
S' anisole'
p5336
sg41
g42
ssS'mobley_7360181'
p5337
(dp5338
g3
S'COC(C(F)(F)F)(OC)OC'
p5339
sg420
F-2.37
sg421
F0.05
sg7
(lp5340
g30
aS'Changed IUPAC name from trimethyl orthotrifluoroacetate to 1,1,1-trifluoro-2,2,2-trimethoxyethane for better handling/standardization.'
p5341
asg423
S'1,1,1-trifluoro-2,2,2-trimethoxyethane'
p5342
sg12
I18927701
sg425
F0.2
sg426
F-0.8
sg15
(lp5343
S'halogen derivative'
p5344
aS'orthocarboxylic acid derivative'
p5345
aS'orthoester'
p5346
asg432
g433
sg20
S' 1,1,1-trifluoro-2,2,2-trimethoxyethane'
p5347
sg435
g436
ssS'mobley_2923700'
p5348
(dp5349
g3
S'CCc1ccc(cc1)O'
p5350
sg27
F-5.08
sg28
F0.03
sg7
(lp5351
g30
asg31
S'4-ethylphenol'
p5352
sg12
I31242
sg13
F0.6
sg33
F-6.13
sg15
(lp5353
S'phenol or hydroxyhetarene'
p5354
aS'aromatic'
p5355
asg38
g39
sg20
S' 4-ethylphenol'
p5356
sg41
g42
ssS'mobley_2123854'
p5357
(dp5358
g3
S'c1cc(ccc1C#N)O'
p5359
sg27
F-7.24
sg28
F0.03
sg7
(lp5360
g30
asg31
S'4-hydroxybenzonitrile'
p5361
sg12
I13019
sg13
F0.6
sg33
F-10.17
sg15
(lp5362
S'phenol or hydroxyhetarene'
p5363
aS'carbonitrile'
p5364
aS'aromatic'
p5365
asg38
g39
sg20
S' 4-hydroxybenzonitrile'
p5366
sg41
g42
ssS'mobley_3589456'
p5367
(dp5368
g3
S'COC(CCl)(OC)OC'
p5369
sg27
F-3.3
sg28
F0.04
sg7
(lp5370
g30
asg31
S'2-chloro-1,1,1-trimethoxy-ethane'
p5371
sg12
I144702
sg13
F0.6
sg33
F-4.59
sg15
(lp5372
S'alkyl chloride'
p5373
aS'orthocarboxylic acid derivative'
p5374
aS'orthoester'
p5375
asg38
g51
sg20
S' 2-chloro-1,1,1-trimethoxy-ethane'
p5376
sg41
g42
ssS'mobley_4395315'
p5377
(dp5378
g3
S'Cc1cc(ccc1Cl)O'
p5379
sg27
F-4.9
sg28
F0.03
sg7
(lp5380
g30
asg31
S'4-chloro-3-methyl-phenol'
p5381
sg12
I1732
sg13
F0.6
sg33
F-6.79
sg15
(lp5382
S'phenol or hydroxyhetarene'
p5383
aS'aryl chloride'
p5384
aS'aromatic'
p5385
asg38
g39
sg20
S' 4-chloro-3-methyl-phenol'
p5386
sg41
g42
ssS'mobley_3265457'
p5387
(dp5388
g3
S'COc1cc(c(c(c1O)OC)Cl)C=O'
p5389
sg512
F-9.23
sg513
F0.025
sg7
(lp5390
g30
asg516
S'2-chlorosyringaldehyde'
p5391
sg12
I53479
sg518
g519
(g523
S'\xa4p=\n\xd7\xa3\xe8?'
p5392
tp5393
Rp5394
sg529
g519
(g523
S'\x1f\x85\xebQ\xb8\x1e\x1f\xc0'
p5395
tp5396
Rp5397
sg15
(lp5398
S'aldehyde'
p5399
aS'phenol or hydroxyhetarene'
p5400
aS'alkyl aryl ether'
p5401
aS'aryl chloride'
p5402
aS'aromatic'
p5403
asg535
g536
sg20
S' 2-chlorosyringaldehyde'
p5404
sg538
g539
ssS'mobley_9028462'
p5405
(dp5406
g3
S'COC(=O)C(F)(F)F'
p5407
sg27
F-1.39
sg28
F0.02
sg7
(lp5408
g30
asg31
S'methyl 2,2,2-trifluoroacetate'
p5409
sg12
I9893
sg13
F0.6
sg33
F-1.1
sg15
(lp5410
S'halogen derivative'
p5411
aS'carboxylic acid ester'
p5412
asg38
S'10.1139/v76-032'
p5413
sg20
S' methyl 2,2,2-trifluoroacetate'
p5414
sg41
g42
ssS'mobley_1944394'
p5415
(dp5416
g3
S'CN(C)CCOC(c1ccccc1)c2ccccc2'
p5417
sg512
F-8.15
sg513
F0.031
sg7
(lp5418
g30
asg516
S'[2-benzhydryloxyethyl]-dimethyl-amine'
p5419
sg12
I3100
sg518
g519
(g523
S'\xd7\xa3p=\n\xd7\xe3?'
p5420
tp5421
Rp5422
sg529
g519
(g523
S'\xaeG\xe1z\x14\xae"\xc0'
p5423
tp5424
Rp5425
sg15
(lp5426
S'dialkyl ether'
p5427
aS'tertiary amine'
p5428
aS'tertiary aliphatic amine (trialkylamine)'
p5429
aS'aromatic'
p5430
asg535
g536
sg20
S' benadryl'
p5431
sg538
g539
ssS'mobley_7735340'
p5432
(dp5433
g3
S'c1cnc[nH]1'
p5434
sg27
F-7.85
sg28
F0.03
sg7
(lp5435
g30
asg31
S'imidazole'
p5436
sg12
I795
sg13
F0.6
sg33
F-9.63
sg15
(lp5437
S'aromatic'
p5438
aS'heterocyclic'
p5439
asg38
g39
sg20
S' imidazole'
p5440
sg41
g42
ssS'mobley_5948990'
p5441
(dp5442
g3
S'c1ccc(c(c1)N)[N+](=O)[O-]'
p5443
sg27
F-7.96
sg28
F0.03
sg7
(lp5444
g30
asg31
S'2-nitroaniline'
p5445
sg12
I6946
sg13
F0.6
sg33
F-7.37
sg15
(lp5446
S'primary amine'
p5447
aS'primary aromatic amine'
p5448
aS'nitro'
p5449
aS'aromatic'
p5450
asg38
g39
sg20
S' 2-nitroaniline'
p5451
sg41
g42
ssS'mobley_3452749'
p5452
(dp5453
g3
S'Cc1cccc(c1C)C'
p5454
sg27
F-0.65
sg28
F0.02
sg7
(lp5455
g30
asg31
S'1,2,3-trimethylbenzene'
p5456
sg12
I10686
sg13
F0.6
sg33
F-1.21
sg15
(lp5457
S'aromatic'
p5458
asg38
g39
sg20
S' 1,2,3-trimethylbenzene'
p5459
sg41
g42
ssS'mobley_9414831'
p5460
(dp5461
g3
S'Cc1cccc2c1cccc2'
p5462
sg27
F-3.24
sg28
F0.02
sg7
(lp5463
g30
asg31
S'1-methylnaphthalene'
p5464
sg12
I7002
sg13
F0.6
sg33
F-2.44
sg15
(lp5465
S'aromatic'
p5466
asg38
g39
sg20
S' 1-methylnaphthalene'
p5467
sg41
g42
ssS'mobley_8207196'
p5468
(dp5469
g3
S'CCNc1nc(nc(n1)Cl)NCC'
p5470
sg177
F-8.63
sg178
F0.04
sg7
(lp5471
g30
asg180
S'simazine'
p5472
sg12
I5216
sg182
F0.1
sg183
F-10.22
sg15
(lp5473
S'secondary amine'
p5474
aS'secondary aliphatic/aromatic amine (alkylarylamine)'
p5475
aS'aryl chloride'
p5476
aS'aromatic'
p5477
aS'heterocyclic'
p5478
asg186
g187
sg20
S' simazine'
p5479
sg189
g190
ssS'mobley_9557440'
p5480
(dp5481
g3
S'c1c(c(=O)[nH]c(=O)[nH]1)Cl'
p5482
sg420
F-16.7
sg421
F0.06
sg7
(lp5483
g30
asg423
S'5-chlorouracil'
p5484
sg12
I15758
sg425
F0.78
sg426
F-17.74
sg15
(lp5485
S'aryl chloride'
p5486
aS'oxo(het)arene'
p5487
aS'aromatic'
p5488
aS'heterocyclic'
p5489
asg432
g433
sg20
S' 5-chlorouracil'
p5490
sg435
g436
ssS'mobley_6474572'
p5491
(dp5492
g3
S'C=CCl'
p5493
sg27
F1.22
sg28
F0.02
sg7
(lp5494
g30
asg31
S'chloroethylene'
p5495
sg12
I6338
sg13
F0.6
sg33
F-0.59
sg15
(lp5496
S'halogen derivative'
p5497
aS'alkene'
p5498
asg38
g39
sg20
S' chloroethylene'
p5499
sg41
g42
ssS'mobley_6988468'
p5500
(dp5501
g3
S'CCc1ccccn1'
p5502
sg27
F-3.21
sg28
F0.02
sg7
(lp5503
g30
asg31
S'2-ethylpyridine'
p5504
sg12
I7523
sg13
F0.6
sg33
F-4.33
sg15
(lp5505
S'aromatic'
p5506
aS'heterocyclic'
p5507
asg38
g39
sg20
S' 2-ethylpyridine'
p5508
sg41
g42
ssS'mobley_7150646'
p5509
(dp5510
g3
S'c1cc(ccc1Br)Br'
p5511
sg27
F-0.01
sg28
F0.02
sg7
(lp5512
g30
asg31
S'1,4-dibromobenzene'
p5513
sg12
I7804
sg13
F0.6
sg33
F-2.3
sg15
(lp5514
S'aryl bromide'
p5515
aS'aromatic'
p5516
asg38
g39
sg20
S' 1,4-dibromobenzene'
p5517
sg41
g42
ssS'mobley_5708811'
p5518
(dp5519
g3
S'COc1c(ccc(c1C(=O)O)Cl)Cl'
p5520
sg177
F-8.13
sg178
F0.04
sg7
(lp5521
g30
asg180
S'dicamba'
p5522
sg12
I3030
sg182
F1.93
sg183
F-9.86
sg15
(lp5523
S'alkyl aryl ether'
p5524
aS'aryl chloride'
p5525
aS'carboxylic acid'
p5526
aS'aromatic'
p5527
asg186
g187
sg20
S' dicamba'
p5528
sg189
g190
ssS'mobley_6688723'
p5529
(dp5530
g3
S'COc1c(cc(c(c1O)OC)Cl)Cl'
p5531
sg512
F-6.13
sg513
F0.023
sg7
(lp5532
g30
asg516
S'3,5-dichloro-2,6-dimethoxyphenol'
p5533
sg12
I93462
sg518
g519
(g523
S'R\xb8\x1e\x85\xebQ\xd8?'
p5534
tp5535
Rp5536
sg529
F-6.44
sg15
(lp5537
S'phenol or hydroxyhetarene'
p5538
aS'alkyl aryl ether'
p5539
aS'aryl chloride'
p5540
aS'aromatic'
p5541
asg535
g536
sg20
S' 3,5-Dichlorosyringol'
p5542
sg538
g539
ssS'mobley_4252724'
p5543
(dp5544
g3
S'CC(C)Cc1ccccc1'
p5545
sg27
F0.0
sg28
F0.02
sg7
(lp5546
g30
asg31
S'isobutylbenzene'
p5547
sg12
I10870
sg13
F0.6
sg33
F0.16
sg15
(lp5548
S'aromatic'
p5549
asg38
g39
sg20
S' isobutylbenzene'
p5550
sg41
g42
ssS'mobley_8983100'
p5551
(dp5552
g3
S'CBr'
p5553
sg27
F1.09
sg28
F0.01
sg7
(lp5554
g30
asg31
S'bromomethane'
p5555
sg12
I6323
sg13
F0.6
sg33
F-0.82
sg15
(lp5556
S'alkyl bromide'
p5557
asg38
g39
sg20
S' bromomethane'
p5558
sg41
g42
ssS'mobley_1952272'
p5559
(dp5560
g3
S'C[N+](=O)[O-]'
p5561
sg27
F-2.03
sg28
F0.01
sg7
(lp5562
g30
asg31
S'nitromethane'
p5563
sg12
I6375
sg13
F0.6
sg33
F-4.02
sg15
(lp5564
S'nitro'
p5565
asg38
g39
sg20
S' nitromethane'
p5566
sg41
g42
ssS'mobley_9007496'
p5567
(dp5568
g3
S'CNC(=O)Oc1cccc2c1cccc2'
p5569
sg177
F-10.92
sg178
F0.04
sg7
(lp5570
g30
aS'Changed IUPAC name from carbaryl to naphthalen-1-yl N-methylcarbamate for better handling/standardization.'
p5571
asg180
S'naphthalen-1-yl N-methylcarbamate'
p5572
sg12
I6129
sg182
F0.1
sg183
F-9.45
sg15
(lp5573
S'carbamic acid ester (urethane)'
p5574
aS'aromatic'
p5575
asg186
g187
sg20
S' carbaryl'
p5576
sg189
g190
ssS'mobley_8124669'
p5577
(dp5578
g3
S'CCc1cccc(c1N(COC)C(=O)CCl)CC'
p5579
sg177
F-7.28
sg178
F0.05
sg7
(lp5580
g30
asg180
S'alachlor'
p5581
sg12
I2078
sg182
F0.29
sg183
F-8.21
sg15
(lp5582
S'hemiaminal'
p5583
aS'alkyl chloride'
p5584
aS'tertiary carboxylic acid amide'
p5585
aS'aromatic'
p5586
asg186
g187
sg20
S' alachlor'
p5587
sg189
g190
ssS'mobley_1728386'
p5588
(dp5589
g3
S'c1ccc(cc1)C(=O)N'
p5590
sg5
F-9.9
sg6
F0.1
sg7
(lp5591
g9
asg10
S'benzamide'
p5592
sg12
I2331
sg13
F0.2
sg14
F-11.0
sg15
(lp5593
S'primary carboxylic acid amide'
p5594
aS'aromatic'
p5595
asg18
g19
sg20
S' benzamide'
p5596
sg22
g23
ssS'mobley_5627459'
p5597
(dp5598
g3
S'CC(C)C=O'
p5599
sg27
F-2.93
sg28
F0.02
sg7
(lp5600
g30
asg31
S'2-methylpropanal'
p5601
sg12
I6561
sg13
F0.6
sg33
F-2.86
sg15
(lp5602
S'aldehyde'
p5603
asg38
g39
sg20
S' 2-methylpropanal'
p5604
sg41
g42
ssS'mobley_7768165'
p5605
(dp5606
g3
S'C(CBr)Cl'
p5607
sg27
F0.02
sg28
F0.02
sg7
(lp5608
g30
asg31
S'1-bromo-2-chloro-ethane'
p5609
sg12
I7849
sg13
F0.6
sg33
F-1.95
sg15
(lp5610
S'alkyl chloride'
p5611
aS'alkyl bromide'
p5612
asg38
g39
sg20
S' 1-bromo-2-chloro-ethane'
p5613
sg41
g42
ssS'mobley_664966'
p5614
(dp5615
g3
S'C(I)I'
p5616
sg27
F-0.74
sg28
F0.02
sg7
(lp5617
g30
asg31
S'diiodomethane'
p5618
sg12
I6346
sg13
F0.6
sg33
F-2.49
sg15
(lp5619
S'alkyl iodide'
p5620
asg38
g39
sg20
S' diiodomethane'
p5621
sg41
g42
ssS'mobley_852937'
p5622
(dp5623
g3
S'c1cc(ccc1O)F'
p5624
sg27
F-4.99
sg28
F0.03
sg7
(lp5625
g30
asg31
S'4-fluorophenol'
p5626
sg12
I9732
sg13
F0.6
sg33
F-6.19
sg15
(lp5627
S'phenol or hydroxyhetarene'
p5628
aS'aryl fluoride'
p5629
aS'aromatic'
p5630
asg38
g39
sg20
S' 4-fluorophenol'
p5631
sg41
g42
ssS'mobley_4687447'
p5632
(dp5633
g3
S'CCCOCCO'
p5634
sg27
F-4.21
sg28
F0.03
sg7
(lp5635
g30
asg31
S'2-propoxyethanol'
p5636
sg12
I17756
sg13
F0.6
sg33
F-6.4
sg15
(lp5637
S'primary alcohol'
p5638
aS'dialkyl ether'
p5639
asg38
g39
sg20
S' 2-propoxyethanol'
p5640
sg41
g42
ssS'mobley_7364468'
p5641
(dp5642
g3
S'CC1=CC(=O)CC(C1)(C)C'
p5643
sg177
F-3.82
sg178
F0.03
sg7
(lp5644
g30
aS'Changed IUPAC name from isophorone to 3,5,5-trimethylcyclohex-2-en-1-one for better handling/standardization.'
p5645
asg180
S'3,5,5-trimethylcyclohex-2-en-1-one'
p5646
sg12
I6544
sg182
F1.37
sg183
F-5.18
sg15
(lp5647
S'ketone'
p5648
aS'alkene'
p5649
asg186
g187
sg20
S' 3,5,5-trimethylcyclohex-2-en-1-one'
p5650
sg189
g190
ssS'mobley_3414356'
p5651
(dp5652
g3
S'CCCC(C)(C)O'
p5653
sg27
F-2.79
sg28
F0.02
sg7
(lp5654
g30
asg31
S'2-methylpentan-2-ol'
p5655
sg12
I11543
sg13
F0.6
sg33
F-3.92
sg15
(lp5656
S'tertiary alcohol'
p5657
asg38
g39
sg20
S' 2-methylpentan-2-ol'
p5658
sg41
g42
ssS'mobley_778352'
p5659
(dp5660
g3
S'CC=C(C)C'
p5661
sg27
F2.28
sg28
F0.02
sg7
(lp5662
g30
asg31
S'2-methylbut-2-ene'
p5663
sg12
I10553
sg13
F0.6
sg33
F1.31
sg15
(lp5664
S'alkene'
p5665
asg38
g4871
sg20
S' 2-methylbut-2-ene'
p5666
sg41
g42
ssS'mobley_7708038'
p5667
(dp5668
g3
S'CCCBr'
p5669
sg27
F1.29
sg28
F0.02
sg7
(lp5670
g30
asg31
S'1-bromopropane'
p5671
sg12
I7840
sg13
F0.6
sg33
F-0.56
sg15
(lp5672
S'alkyl bromide'
p5673
asg38
g39
sg20
S' 1-bromopropane'
p5674
sg41
g42
ssS'mobley_6896128'
p5675
(dp5676
g3
S'CCCC[C@@H](C)CC'
p5677
sg27
F3.29
sg28
F0.03
sg7
(lp5678
S'Renamed mobley_6896128 from 3-methylheptane to (3S)-3-methylheptane (the name from the 3D structure) since the former did not completely specify stereochemistry.\n'
p5679
asg31
S'3-methylheptane'
p5680
sg12
I11519
sg13
F0.6
sg33
F2.97
sg15
(lp5681
g68
asg38
g39
sg20
S' 3-methylheptane'
p5682
sg41
g42
ssS'mobley_7610437'
p5683
(dp5684
g3
S'CC[C@H](C(C)C)O'
p5685
sg27
F-2.19
sg28
F0.03
sg7
(lp5686
S'Renamed mobley_7610437 from 2-methylpentan-3-ol to (3R)-2-methylpentan-3-ol (the name from the 3D structure) since the former did not completely specify stereochemistry.\n'
p5687
asg31
S'2-methylpentan-3-ol'
p5688
sg12
I11264
sg13
F0.6
sg33
F-3.88
sg15
(lp5689
S'secondary alcohol'
p5690
asg38
g39
sg20
S' 2-methylpentan-3-ol'
p5691
sg41
g42
ssS'mobley_5123639'
p5692
(dp5693
g3
S'C[C@H](CC(C)C)O'
p5694
sg27
F-2.75
sg28
F0.02
sg7
(lp5695
g30
asg31
S'4-methylpentan-2-ol'
p5696
sg12
I7910
sg13
F0.6
sg33
F-3.73
sg15
(lp5697
S'secondary alcohol'
p5698
asg38
g39
sg20
S' 4-methylpentan-2-ol'
p5699
sg41
g42
ssS'mobley_8713762'
p5700
(dp5701
g3
S'CCCN(CCC)C(=O)SCCC'
p5702
sg177
F-4.17
sg178
F0.04
sg7
(lp5703
g30
aS'Changed IUPAC name from vernolate to N,N-dipropyl(propylsulfanyl)formamide for better handling/standardization.'
p5704
asg180
S'N,N-dipropyl(propylsulfanyl)formamide'
p5705
sg12
I16003
sg182
F1.36
sg183
F-4.13
sg15
(lp5706
S'thiocarbamic acid ester'
p5707
asg186
g187
sg20
S' vernolate'
p5708
sg189
g190
ssS'mobley_2178600'
p5709
(dp5710
g3
S'CCCCCCl'
p5711
sg5
F1.1
sg6
F0.1
sg7
(lp5712
g9
asg10
S'1-chloro-pentane'
p5713
sg12
I10977
sg13
F0.2
sg14
F-0.1
sg15
(lp5714
S'alkyl chloride'
p5715
asg18
g19
sg20
S' 1-chloro-pentane'
p5716
sg22
g23
ssS'mobley_4936555'
p5717
(dp5718
g3
S'Cc1cccc(c1C)Nc2ccccc2C(=O)O'
p5719
sg512
F-7.69
sg513
F0.025
sg7
(lp5720
g30
asg516
S'2-(2,3-dimethylphenyl)aminobenzoic acid'
p5721
sg12
I4044
sg518
g519
(g523
S'\x9a\x99\x99\x99\x99\x99\xb9?'
p5722
tp5723
Rp5724
sg529
g519
(g523
S'\x1f\x85\xebQ\xb8\x1e\x1b\xc0'
p5725
tp5726
Rp5727
sg15
(lp5728
S'secondary amine'
p5729
aS'secondary aromatic amine (diarylamine)'
p5730
aS'carboxylic acid'
p5731
aS'aromatic'
p5732
asg535
g536
sg20
S' mefenamic acid'
p5733
sg538
g539
ssS'mobley_590519'
p5734
(dp5735
g3
S'CCSSCC'
p5736
sg27
F-0.07
sg28
F0.02
sg7
(lp5737
g30
asg31
S'ethyldisulfanylethane'
p5738
sg12
I8077
sg13
F0.6
sg33
F-1.64
sg15
(lp5739
S'disulfide'
p5740
asg38
g39
sg20
S' ethyldisulfanylethane'
p5741
sg41
g42
ssS'mobley_9883303'
p5742
(dp5743
g3
S'CCC[C@H](C)CC'
p5744
sg27
F2.76
sg28
F0.02
sg7
(lp5745
S'Renamed mobley_9883303 from 3-methylhexane to (3R)-3-methylhexane (the name from the 3D structure) since the former did not completely specify stereochemistry.\n'
p5746
asg31
S'3-methylhexane'
p5747
sg12
I11507
sg13
F0.6
sg33
F2.71
sg15
(lp5748
g68
asg38
g39
sg20
S' 3-methylhexane'
p5749
sg41
g42
ssS'mobley_9029594'
p5750
(dp5751
g3
S'CF'
p5752
sg27
F0.79
sg28
F0.01
sg7
(lp5753
g30
asg31
S'fluoromethane'
p5754
sg12
I11638
sg13
F0.6
sg33
F-0.22
sg15
(lp5755
S'alkyl fluoride'
p5756
asg38
g39
sg20
S' fluoromethane'
p5757
sg41
g42
ssS'mobley_1502181'
p5758
(dp5759
g3
S'CCCCCCCC(=O)C'
p5760
sg27
F-2.51
sg28
F0.03
sg7
(lp5761
g30
asg31
S'nonan-2-one'
p5762
sg12
I13187
sg13
F0.6
sg33
F-2.49
sg15
(lp5763
S'ketone'
p5764
asg38
g39
sg20
S' nonan-2-one'
p5765
sg41
g42
ssS'mobley_9478823'
p5766
(dp5767
g3
S'Cc1ccccc1C'
p5768
sg27
F-0.52
sg28
F0.02
sg7
(lp5769
g30
asg31
S'o-xylene'
p5770
sg12
I7237
sg13
F0.6
sg33
F-0.9
sg15
(lp5771
S'aromatic'
p5772
asg38
g39
sg20
S' o-xylene'
p5773
sg41
g42
ssS'mobley_9201263'
p5774
(dp5775
g3
S'COS(=O)(=O)C'
p5776
sg27
F-8.29
sg28
F0.03
sg7
(lp5777
g30
asg31
S'methyl methanesulfonate'
p5778
sg12
I4156
sg13
F0.6
sg33
F-4.87
sg15
(lp5779
S'sulfonic acid ester'
p5780
asg38
g1443
sg20
S' methyl methanesulfonate'
p5781
sg41
g42
ssS'mobley_2613240'
p5782
(dp5783
g3
S'COc1ccccc1OC'
p5784
sg512
F-3.52
sg513
F0.021
sg7
(lp5785
g30
asg516
S'1,2-dimethoxybenzene'
p5786
sg12
I7043
sg518
g519
(g523
S'\x9a\x99\x99\x99\x99\x99\xb9?'
p5787
tp5788
Rp5789
sg529
g519
(g523
S'R\xb8\x1e\x85\xebQ\x15\xc0'
p5790
tp5791
Rp5792
sg15
(lp5793
S'alkyl aryl ether'
p5794
aS'aromatic'
p5795
asg535
g536
sg20
S' 1,2-dimethoxybenzene'
p5796
sg538
g539
ssS'mobley_7769613'
p5797
(dp5798
g3
S'CC(C)(C)Br'
p5799
sg27
F0.89
sg28
F0.02
sg7
(lp5800
g30
asg31
S'2-bromo-2-methyl-propane'
p5801
sg12
I10485
sg13
F0.6
sg33
F0.84
sg15
(lp5802
S'alkyl bromide'
p5803
asg38
g39
sg20
S' 2-bromo-2-methyl-propane'
p5804
sg41
g42
ssS'mobley_3040612'
p5805
(dp5806
g3
S'CCc1ccccc1C'
p5807
sg512
F-0.766
sg513
F0.021
sg7
(lp5808
g30
asg516
S'1-ethyl-2-methylbenzene'
p5809
sg12
I11903
sg518
g519
(g523
S'\x9a\x99\x99\x99\x99\x99\xb9?'
p5810
tp5811
Rp5812
sg529
g519
(g523
S'333333\xeb\xbf'
p5813
tp5814
Rp5815
sg15
(lp5816
S'aromatic'
p5817
asg535
g536
sg20
S' 1-ethyl-2-methylbenzene'
p5818
sg538
g539
ssS'mobley_2410897'
p5819
(dp5820
g3
S'CCN'
p5821
sg27
F-3.14
sg28
F0.02
sg7
(lp5822
g30
asg31
S'ethanamine'
p5823
sg12
I6341
sg13
F0.6
sg33
F-4.5
sg15
(lp5824
S'primary amine'
p5825
aS'primary aliphatic amine (alkylamine)'
p5826
asg38
g39
sg20
S' ethanamine'
p5827
sg41
g42
ssS'mobley_5003962'
p5828
(dp5829
g3
S'c1ccc2c(c1)C(=O)c3ccc(cc3C2=O)N'
p5830
sg512
F-13.71
sg513
F0.026
sg7
(lp5831
g30
asg516
S'2-amino-9,10-anthraquinone'
p5832
sg12
I8341
sg518
g519
(g523
S'\x8f\xc2\xf5(\\\x8f\xd2?'
p5833
tp5834
Rp5835
sg529
g519
(g523
S"\x8f\xc2\xf5(\\\x0f'\xc0"
p5836
tp5837
Rp5838
sg15
(lp5839
S'ketone'
p5840
aS'primary amine'
p5841
aS'primary aromatic amine'
p5842
aS'aromatic'
p5843
asg535
g536
sg20
S' 2-amino-9,10-anthraquinone'
p5844
sg538
g539
ssS'mobley_1899443'
p5845
(dp5846
g3
S'CCCC(=C)C'
p5847
sg27
F2.75
sg28
F0.02
sg7
(lp5848
g30
asg31
S'2-methylpent-1-ene'
p5849
sg12
I12986
sg13
F0.6
sg33
F1.47
sg15
(lp5850
S'alkene'
p5851
asg38
g39
sg20
S' 2-methylpent-1-ene'
p5852
sg41
g42
ssS'mobley_4338603'
p5853
(dp5854
g3
S'c1c(=O)[nH]c(=O)[nH]c1Cl'
p5855
sg420
F-15.11
sg421
F0.06
sg7
(lp5856
g30
asg423
S'6-chlorouracil'
p5857
sg12
I73272
sg425
F1.22
sg426
F-15.83
sg15
(lp5858
S'aryl chloride'
p5859
aS'oxo(het)arene'
p5860
aS'aromatic'
p5861
aS'heterocyclic'
p5862
asg432
g433
sg20
S' 6-chlorouracil'
p5863
sg435
g436
ssS'mobley_5935995'
p5864
(dp5865
g3
S'CCC(C)(C)C'
p5866
sg27
F2.53
sg28
F0.02
sg7
(lp5867
g30
asg31
S'2,2-dimethylbutane'
p5868
sg12
I6403
sg13
F0.6
sg33
F2.51
sg15
(lp5869
g68
asg38
g39
sg20
S' 2,2-dimethylbutane'
p5870
sg41
g42
ssS'mobley_8048190'
p5871
(dp5872
g3
S'CC(=O)N'
p5873
sg27
F-8.62
sg28
F0.03
sg7
(lp5874
g30
asg31
S'acetamide'
p5875
sg12
I178
sg13
F0.6
sg33
F-9.71
sg15
(lp5876
S'primary carboxylic acid amide'
p5877
asg38
g39
sg20
S' acetamide'
p5878
sg41
g42
ssS'mobley_5917842'
p5879
(dp5880
g3
S'Cc1ccc(c(c1)OC)O'
p5881
sg512
F-4.46
sg513
F0.021
sg7
(lp5882
g30
asg516
S'4-methyl-2-methoxyphenol'
p5883
sg12
I7144
sg518
g519
(g523
S'\x9a\x99\x99\x99\x99\x99\xb9?'
p5884
tp5885
Rp5886
sg529
g519
(g523
S'333333\x17\xc0'
p5887
tp5888
Rp5889
sg15
(lp5890
S'phenol or hydroxyhetarene'
p5891
aS'alkyl aryl ether'
p5892
aS'aromatic'
p5893
asg535
g536
sg20
S' 4-methyl-2-methoxyphenol'
p5894
sg538
g539
ssS'mobley_4013838'
p5895
(dp5896
g3
S'CC(C)C(=O)C(C)C'
p5897
sg27
F-2.47
sg28
F0.02
sg7
(lp5898
g30
asg31
S'2,4-dimethylpentan-3-one'
p5899
sg12
I11271
sg13
F0.6
sg33
F-2.74
sg15
(lp5900
S'ketone'
p5901
asg38
g39
sg20
S' 2,4-dimethylpentan-3-one'
p5902
sg41
g42
ssS'mobley_8883511'
p5903
(dp5904
g3
S'Cc1ccccc1C=O'
p5905
sg512
F-4.64
sg513
F0.019
sg7
(lp5906
g30
asg516
S'2-methylbenzaldehyde'
p5907
sg12
I10722
sg518
g519
(g523
S'\x9a\x99\x99\x99\x99\x99\xb9?'
p5908
tp5909
Rp5910
sg529
g519
(g523
S'q=\n\xd7\xa3p\x0f\xc0'
p5911
tp5912
Rp5913
sg15
(lp5914
S'aldehyde'
p5915
aS'aromatic'
p5916
asg535
g536
sg20
S' 2-methylbenzaldehyde'
p5917
sg538
g539
ssS'mobley_7732703'
p5918
(dp5919
g3
S'C(F)(F)(F)Br'
p5920
sg27
F2.03
sg28
F0.02
sg7
(lp5921
g30
asg31
S'bromo-trifluoro-methane'
p5922
sg12
I6384
sg13
F0.6
sg33
F1.79
sg15
(lp5923
S'halogen derivative'
p5924
asg38
g39
sg20
S' bromo-trifluoro-methane'
p5925
sg41
g42
ssS'mobley_3639400'
p5926
(dp5927
g3
S'CCCCCl'
p5928
sg27
F0.99
sg28
F0.02
sg7
(lp5929
g30
asg31
S'1-chlorobutane'
p5930
sg12
I8005
sg13
F0.6
sg33
F-0.16
sg15
(lp5931
S'alkyl chloride'
p5932
asg38
g39
sg20
S' 1-chlorobutane'
p5933
sg41
g42
ssS'mobley_9185328'
p5934
(dp5935
g3
S'CCCN'
p5936
sg27
F-3.05
sg28
F0.02
sg7
(lp5937
g30
asg31
S'propan-1-amine'
p5938
sg12
I7852
sg13
F0.6
sg33
F-4.39
sg15
(lp5939
S'primary amine'
p5940
aS'primary aliphatic amine (alkylamine)'
p5941
asg38
g39
sg20
S' propan-1-amine'
p5942
sg41
g42
ssS'mobley_7455579'
p5943
(dp5944
g3
S'CC(C)COC=O'
p5945
sg27
F-3.21
sg28
F0.02
sg7
(lp5946
g30
asg31
S'isobutyl formate'
p5947
sg12
I10957
sg13
F0.6
sg33
F-2.22
sg15
(lp5948
S'carboxylic acid ester'
p5949
asg38
g39
sg20
S' isobutyl formate'
p5950
sg41
g42
ssS'mobley_8337977'
p5951
(dp5952
g3
S'CC(C)CC(=O)C'
p5953
sg27
F-2.96
sg28
F0.02
sg7
(lp5954
g30
asg31
S'4-methylpentan-2-one'
p5955
sg12
I7909
sg13
F0.6
sg33
F-3.05
sg15
(lp5956
S'ketone'
p5957
asg38
g39
sg20
S' 4-methylpentan-2-one'
p5958
sg41
g42
ssS'mobley_5347550'
p5959
(dp5960
g3
S'COC(C(Cl)Cl)(F)F'
p5961
sg27
F-0.71
sg28
F0.02
sg7
(lp5962
g30
asg31
S'2,2-dichloro-1,1-difluoro-1-methoxy-ethane'
p5963
sg12
I4116
sg13
F0.6
sg33
F-1.12
sg15
(lp5964
S'alkyl chloride'
p5965
aS'orthocarboxylic acid derivative'
p5966
asg38
g39
sg20
S' methoxyflurane'
p5967
sg41
g42
ssS'mobley_1733799'
p5968
(dp5969
g3
S'c1cc(ccc1O)Br'
p5970
sg27
F-5.47
sg28
F0.02
sg7
(lp5971
g30
aS'Experimental value updated 10/22/13 from J. Peter Guthrie (University of Western Ontario) taken as a weighted average of the values -7.13 from a Cabani review, and -5.24 from experimental data from Parsons, Rochester, and Wood (see reference). The weighting gives preference to the latter since it gives source data.\n'
p5972
asg31
S'4-bromophenol'
p5973
sg12
I7808
sg13
F0.83
sg33
F-5.85
sg15
(lp5974
S'phenol or hydroxyhetarene'
p5975
aS'aryl bromide'
p5976
aS'aromatic'
p5977
asg38
S'10.1039/J29710000533 and 10.1007/BF00646936'
p5978
sg20
S' 4-bromophenol'
p5979
sg41
g42
ssS'mobley_5494918'
p5980
(dp5981
g3
S'C(=C(F)F)(C(F)(F)F)F'
p5982
sg27
F2.29
sg28
F0.02
sS'notes'
p5983
(lp5984
S'Updated correcting an error in the Rizzo/Mobley sets that had arisen from confusing the abbreviation HFP with hexafluoropropan-2-ol versus hexafluoropropene. Reference: Wilhelm, E., Battino, R., Wilcock, R. J., Chem. Rev. 1977, 77, 223-262.\n'
p5985
ag30
asg31
S'1,1,2,3,3,3-hexafluoroprop-1-ene'
p5986
sg12
I83439
sg13
F0.6
sg33
F2.93
sg15
(lp5987
S'halogen derivative'
p5988
asg38
S'10.1021/cr60306a003'
p5989
sg20
S' 1,1,2,3,3,3-hexafluoroprop-1-ene'
p5990
sg41
g42
ssS'mobley_7010316'
p5991
(dp5992
g3
S'C1CCC(CC1)O'
p5993
sg27
F-4.26
sg28
F0.02
sg7
(lp5994
g30
asg31
S'cyclohexanol'
p5995
sg12
I7966
sg13
F0.6
sg33
F-5.46
sg15
(lp5996
S'secondary alcohol'
p5997
asg38
g39
sg20
S' cyclohexanol'
p5998
sg41
g42
ssS'mobley_8320545'
p5999
(dp6000
g3
S'CC[N+](=O)[O-]'
p6001
sg27
F-1.73
sg28
F0.02
sg7
(lp6002
g30
asg31
S'1-nitroethane'
p6003
sg12
I6587
sg13
F0.6
sg33
F-3.71
sg15
(lp6004
S'nitro'
p6005
asg38
g39
sg20
S' 1-nitroethane'
p6006
sg41
g42
ssS'mobley_3775790'
p6007
(dp6008
g3
S'Cn1cccc1'
p6009
sg27
F-2.59
sg28
F0.02
sg7
(lp6010
g30
asg31
S'1-methylpyrrole'
p6011
sg12
I7304
sg13
F0.6
sg33
F-2.89
sg15
(lp6012
S'aromatic'
p6013
aS'heterocyclic'
p6014
asg38
g39
sg20
S' 1-methylpyrrole'
p6015
sg41
g42
ssS'mobley_7157427'
p6016
(dp6017
g3
S'CCCCCCCCl'
p6018
sg27
F1.53
sg28
F0.03
sg7
(lp6019
g30
asg31
S'1-chloroheptane'
p6020
sg12
I12371
sg13
F0.6
sg33
F0.29
sg15
(lp6021
S'alkyl chloride'
p6022
asg38
g39
sg20
S' 1-chloroheptane'
p6023
sg41
g42
ssS'mobley_7814642'
p6024
(dp6025
g3
S'c1cc(c(cc1Cl)Cl)Cl'
p6026
sg27
F-0.18
sg28
F0.02
sg7
(lp6027
g30
asg31
S'1,2,4-trichlorobenzene'
p6028
sg12
I13
sg13
F0.6
sg33
F-1.12
sg15
(lp6029
S'aryl chloride'
p6030
aS'aromatic'
p6031
asg38
g39
sg20
S' 1,2,4-trichlorobenzene'
p6032
sg41
g42
ssS'mobley_3715043'
p6033
(dp6034
g3
S'Cc1ccc(c2c1cccc2)C'
p6035
sg27
F-3.29
sg28
F0.03
sg7
(lp6036
g30
asg31
S'1,4-dimethylnaphthalene'
p6037
sg12
I11304
sg13
F0.6
sg33
F-2.82
sg15
(lp6038
S'aromatic'
p6039
asg38
g39
sg20
S' 1,4-dimethylnaphthalene'
p6040
sg41
g42
ssS'mobley_5263791'
p6041
(dp6042
g3
S'CCc1cccc2c1cccc2'
p6043
sg27
F-3.0
sg28
F0.03
sg7
(lp6044
g30
asg31
S'1-ethylnaphthalene'
p6045
sg12
I14315
sg13
F0.6
sg33
F-2.4
sg15
(lp6046
S'aromatic'
p6047
asg38
g39
sg20
S' 1-ethylnaphthalene'
p6048
sg41
g42
ss.