(dp0
S'isopropyl acetate'
p1
S'mobley_6981465'
p2
sS'1,1,1-trifluoropropan-2-ol'
p3
S'mobley_628086'
p4
sS'2-bromopropane'
p5
S'mobley_9434451'
p6
sS'bromobenzene'
p7
S'mobley_7599023'
p8
sS'1-iodobutane'
p9
S'mobley_8772587'
p10
sS'decan-1-ol'
p11
S'mobley_3151666'
p12
sS'methyl 2-cyanoacetate'
p13
S'mobley_9114381'
p14
sS'1-ethylnaphthalene'
p15
S'mobley_5263791'
p16
sS'ammonia'
p17
S'mobley_5631798'
p18
sS'2-bromo-2-methyl-propane'
p19
S'mobley_7769613'
p20
sS'dialifor'
p21
S'mobley_2518989'
p22
sS'1,1,2,2-tetrachloroethane'
p23
S'mobley_6190089'
p24
sS'propanethiol'
p25
S'mobley_186894'
p26
sS'hexa-1,5-diene'
p27
S'mobley_5690766'
p28
sS'1-methylpyrrole'
p29
S'mobley_3775790'
p30
sS'hexachloroethane'
p31
S'mobley_1278715'
p32
sS'methylsulfinylmethane'
p33
S'mobley_8578590'
p34
sS'anthracene'
p35
S'mobley_637522'
p36
sS'1,3,5-trichlorobenzene'
p37
S'mobley_2681549'
p38
sS'hexanamide'
p39
S'mobley_7203421'
p40
sS'hexan-2-one'
p41
S'mobley_2487143'
p42
sS'1,1,2,3,3,3-hexafluoroprop-1-ene'
p43
S'mobley_5494918'
p44
sS'propane'
p45
S'mobley_2068538'
p46
sS'2-methylpyrazine'
p47
S'mobley_8966374'
p48
sS'3,3,3-trimethoxypropanenitrile'
p49
S'mobley_8789864'
p50
sS'octan-1-amine'
p51
S'mobley_6248915'
p52
sS'(2R,3R,4R,5R)-Hexan-1,2,3,4,5,6-hexol'
p53
S'mobley_4587267'
p54
sS'hept-2-ene'
p55
S'mobley_8467917'
p56
sS'1-nitrobutane'
p57
S'mobley_6006813'
p58
sS'3-ethylpyridine'
p59
S'mobley_4884177'
p60
sS'2-methoxyethanamine'
p61
S'mobley_6917738'
p62
sS'nitroxyacetone'
p63
S'mobley_4964807'
p64
sS'prop-2-en-1-ol'
p65
S'mobley_8118832'
p66
sS'2-methylaniline'
p67
S'mobley_3187514'
p68
sS'nonan-1-ol'
p69
S'mobley_3378420'
p70
sS'3-(dimethoxyphosphinothioylsulfanylmethyl)-1,2,3-benzotriazin-4-one'
p71
S'mobley_1770205'
p72
sS'octanal'
p73
S'mobley_4694328'
p74
sS'4-chlorophenyl)sulfanylmethylsulfanyl-diethoxy-thioxo-$l^{5}-phosphane'
p75
S'mobley_1849020'
p76
sS'propyl butanoate'
p77
S'mobley_3690931'
p78
sS'methane'
p79
S'mobley_9055303'
p80
sS'propanenitrile'
p81
S'mobley_4305650'
p82
sS'prop-1-yne'
p83
S'mobley_8260524'
p84
sS'N-methyl-N-(2,2,2-trifluoroethyl)aniline'
p85
S'mobley_3266352'
p86
sS'phenyl formate'
p87
S'mobley_1046331'
p88
sS'2,2-dimethylpentane'
p89
S'mobley_252413'
p90
sS'ethylene glycol'
p91
S'mobley_4639255'
p92
sS'propylcyclopentane'
p93
S'mobley_6416775'
p94
sS'1-chloroheptane'
p95
S'mobley_7157427'
p96
sS'ethyldisulfanylethane'
p97
S'mobley_590519'
p98
sS'caffeine'
p99
S'mobley_7378987'
p100
sS'pentan-1-amine'
p101
S'mobley_7142697'
p102
sS'2,3-dimethylpyridine'
p103
S'mobley_8746821'
p104
sS'4-(1-Methylethenyl)-1-cyclohexene-1-carboxaldehyde'
p105
S'mobley_5006685'
p106
sS'carbon tetrachloride'
p107
S'mobley_6359135'
p108
sS'trichloro(nitro)methane'
p109
S'mobley_2481002'
p110
sS'5-fluorouracil'
p111
S'mobley_337666'
p112
sS'2-methoxyphenol'
p113
S'mobley_3515580'
p114
sS'1,3-dichloropropane'
p115
S'mobley_9624458'
p116
sS'1,3-dimethylnaphthalene'
p117
S'mobley_5665561'
p118
sS'trimethoxymethane'
p119
S'mobley_2279874'
p120
sS'isobutane'
p121
S'mobley_5157661'
p122
sS'N,N-dimethylaniline'
p123
S'mobley_5326154'
p124
sS'1,1,2-trichloroethane'
p125
S'mobley_1328465'
p126
sS'2-(nitrooxy)ethan-1-ol'
p127
S'mobley_6727159'
p128
sS'ethanol'
p129
S'mobley_2310185'
p130
sS'1-bromo-2-chloro-ethane'
p131
S'mobley_7768165'
p132
sS'2-chloropyridine'
p133
S'mobley_4291494'
p134
sS'2,5-dimethyltetrahydrofuran'
p135
S'mobley_8785107'
p136
sS'simazine'
p137
S'mobley_8207196'
p138
sS'ethane'
p139
S'mobley_2008055'
p140
sS'2-methylpropan-2-ol'
p141
S'mobley_1650157'
p142
sS'2,3-dimethylbutane'
p143
S'mobley_4561957'
p144
sS'quinoline'
p145
S'mobley_5857'
p146
sS'pentylbenzene'
p147
S'mobley_3525176'
p148
sS'methylsulfonylmethane'
p149
S'mobley_1708457'
p150
sS'4-nitroaniline'
p151
S'mobley_6082662'
p152
sS'1,2,3-trichloro-5-(2,5-dichlorophenyl)benzene'
p153
S'mobley_8823527'
p154
sS'4-hydroxybenzonitrile'
p155
S'mobley_2123854'
p156
sS'piperidine'
p157
S'mobley_6309289'
p158
sS'butane-1-thiol'
p159
S'mobley_1563176'
p160
sS'1,1,1-trichloroethane'
p161
S'mobley_3761215'
p162
sS'1,4-dimethylpiperazine'
p163
S'mobley_4059279'
p164
sS'nitromethane'
p165
S'mobley_1952272'
p166
sS'methyl pentanoate'
p167
S'mobley_2341732'
p168
sS'phenanthrene'
p169
S'mobley_7017274'
p170
sS'N,N-dimethylformamide'
p171
S'mobley_8011706'
p172
sS'1,2,3,4,7-pentachlorodibenzo-p-dioxin'
p173
S'mobley_3976574'
p174
sS'ethyl acetate'
p175
S'mobley_6973347'
p176
sS'hex-1-ene'
p177
S'mobley_5310099'
p178
sS'3,4-dimethylphenol'
p179
S'mobley_6743808'
p180
sS'dimethyl sulfate'
p181
S'mobley_5760563'
p182
sS'1,2-dibromoethane'
p183
S'mobley_1792062'
p184
sS'hexane'
p185
S'mobley_6812653'
p186
sS'1,2,3,4-tetrachlorobenzene'
p187
S'mobley_4219614'
p188
sS'2-chloroaniline'
p189
S'mobley_3169935'
p190
sS'1,1,1-trifluoro-2,2,2-trimethoxyethane'
p191
S'mobley_7360181'
p192
sS'(1S,5R)-2-methyl-5-(1-methylethenyl)-2-cyclohexen-1-ol'
p193
S'mobley_9653690'
p194
sS'1,2-dinitroxypropane'
p195
S'mobley_3210206'
p196
sS'ketoprofen'
p197
S'mobley_2099370'
p198
sS'cycloheptanol'
p199
S'mobley_1244778'
p200
sS'2,3-dimethylpentane'
p201
S'mobley_8668219'
p202
sS'p-cresol'
p203
S'mobley_2925352'
p204
sS'ethyl benzoate'
p205
S'mobley_397645'
p206
sS'aniline'
p207
S'mobley_4883284'
p208
sS'benzonitrile'
p209
S'mobley_2451097'
p210
sS'1,2-dinitroxyethane'
p211
S'mobley_52782'
p212
sS'111-trifluoropropan-2-ol'
p213
S'mobley_9979854'
p214
sS'2,6-dimethylnaphthalene'
p215
S'mobley_5110043'
p216
sS'2-ethoxyethanol'
p217
S'mobley_9626434'
p218
sS'methyl 2-chloroacetate'
p219
S'mobley_6929123'
p220
sS'(1R)-2,2,2-trichloro-1-dimethoxyphosphoryl-ethanol'
p221
S'mobley_6334915'
p222
sS'hexan-1-amine'
p223
S'mobley_6060301'
p224
sS'methyl 4-methoxybenzoate'
p225
S'mobley_7393673'
p226
sS'1-bromo-2-methyl-propane'
p227
S'mobley_627267'
p228
sS'2-(2,3-dimethylphenyl)aminobenzoic acid'
p229
S'mobley_4936555'
p230
sS'pentanal'
p231
S'mobley_8492526'
p232
sS'o-cresol'
p233
S'mobley_4035953'
p234
sS'3-methylpentane'
p235
S'mobley_2213823'
p236
sS'butylbenzene'
p237
S'mobley_8809190'
p238
sS'ethyl butanoate'
p239
S'mobley_1722522'
p240
sS'2-chlorophenol'
p241
S'mobley_1178614'
p242
sS'endosulfan alpha'
p243
S'mobley_9571888'
p244
sS'methanol'
p245
S'mobley_1636752'
p246
sS'1,2,3-trimethylbenzene'
p247
S'mobley_3452749'
p248
sS'hexanal'
p249
S'mobley_1827204'
p250
sS'2,3-diacetoxypropyl acetate'
p251
S'mobley_6198745'
p252
sS'1-iodoheptane'
p253
S'mobley_4759887'
p254
sS'ethylene'
p255
S'mobley_6091882'
p256
sS'3-hydroxybenzaldehyde'
p257
S'mobley_7688753'
p258
sS'2,6-dimethylaniline'
p259
S'mobley_5571660'
p260
sS'propanal'
p261
S'mobley_6632459'
p262
sS'pyridine-3-carbaldehyde'
p263
S'mobley_6232400'
p264
sS'nitrobenzene'
p265
S'mobley_4193752'
p266
sS'(1R,2S,5R)-2-isopropyl-5-methylcyclohexanol'
p267
S'mobley_8337722'
p268
sS'pyridine'
p269
S'mobley_296847'
p270
sS'methyl cyclohexanecarboxylate'
p271
S'mobley_6978427'
p272
sS'octafluorocyclobutane'
p273
S'mobley_1723043'
p274
sS'chloro-fluoro-methane'
p275
S'mobley_3425174'
p276
sS'naphthalen-1-ol'
p277
S'mobley_7039935'
p278
sS'cyclohexanol'
p279
S'mobley_7010316'
p280
sS'isopropyl formate'
p281
S'mobley_6854178'
p282
sS'4-chloro-3-methyl-phenol'
p283
S'mobley_4395315'
p284
sS'1-(p-tolyl)ethanone'
p285
S'mobley_349850'
p286
sS'2-amino-9,10-anthraquinone'
p287
S'mobley_5003962'
p288
sS'4-tert-butylphenol'
p289
S'mobley_5467162'
p290
sS'1,2,3,4-tetrachloro-5-(2,3,4,6-tetrachlorophenyl)benzene'
p291
S'mobley_8208692'
p292
sS'1,1,2,2-tetrachloroethylene'
p293
S'mobley_5952846'
p294
sS'benzamide'
p295
S'mobley_1728386'
p296
sS'1-isopropyl-4-methyl-benzene'
p297
S'mobley_1449384'
p298
sS'methyl paraben'
p299
S'mobley_2295058'
p300
sS'trimethoxymethylbenzene'
p301
S'mobley_3325209'
p302
sS'dimethoxymethane'
p303
S'mobley_3083321'
p304
sS'1-chloro-2-(2-chloroethoxy)ethane'
p305
S'mobley_4603202'
p306
sS'1,2,3-trichlorobenzene'
p307
S'mobley_3980099'
p308
sS'1-acetoxyethyl acetate'
p309
S'mobley_4463913'
p310
sS'2-isopropylsulfanylpropane'
p311
S'mobley_9974966'
p312
sS'butan-2-ol'
p313
S'mobley_1903702'
p314
sS'Amitriptyline'
p315
S'mobley_5282042'
p316
sS'diethoxymethoxybenzene'
p317
S'mobley_4934872'
p318
sS'3-methylbutan-2-one'
p319
S'mobley_8739734'
p320
sS'endrin'
p321
S'mobley_8117218'
p322
sS'isobutylbenzene'
p323
S'mobley_4252724'
p324
sS'1-cyclohexylethanone'
p325
S'mobley_2043882'
p326
sS'bromoethane'
p327
S'mobley_994483'
p328
sS'chlorpyrifos'
p329
S'mobley_7326706'
p330
sS'N,N-4-trimethylbenzamide'
p331
S'mobley_2659552'
p332
sS'1,1-diphenylethene'
p333
S'mobley_4479135'
p334
sS'4-methylaniline'
p335
S'mobley_5518547'
p336
sS'1,2-dimethoxybenzene'
p337
S'mobley_2613240'
p338
sS'2-methylbutan-2-ol'
p339
S'mobley_9838013'
p340
sS'bromomethane'
p341
S'mobley_8983100'
p342
sS'propionamide'
p343
S'mobley_8427539'
p344
sS'hexan-1-ol'
p345
S'mobley_3546460'
p346
sS'N,N-dimethyl-4-nitro-benzamide'
p347
S'mobley_7415647'
p348
sS'tetrahydropyran'
p349
S'mobley_3395921'
p350
sS'1,2,3,4,6,7,8,9-octachlorodibenzo-p-dioxin'
p351
S'mobley_9821936'
p352
sS'2-ethylphenol'
p353
S'mobley_2126135'
p354
sS'pebulate'
p355
S'mobley_1352110'
p356
sS'hexachlorobenzene'
p357
S'mobley_4845722'
p358
sS'oct-2-enal'
p359
S'mobley_6081058'
p360
sS'2,6-dichlorosyringaldehyde'
p361
S'mobley_6195751'
p362
sS'acetic acid'
p363
S'mobley_3034976'
p364
sS'acetone'
p365
S'mobley_3867265'
p366
sS'3-methylbut-1-ene'
p367
S'mobley_2143011'
p368
sS'anisole'
p369
S'mobley_7295828'
p370
sS'1-nitropentane'
p371
S'mobley_1235151'
p372
sS'terbutryn'
p373
S'mobley_6338073'
p374
sS'pentan-3-one'
p375
S'mobley_1875719'
p376
sS'decane'
p377
S'mobley_2197088'
p378
sS'methyl octanoate'
p379
S'mobley_7608435'
p380
sS'1-N,1-N-diethyl-2,6-dinitro-4-(trifluoromethyl)benzene-1,3-diamine'
p381
S'mobley_5076071'
p382
sS'1,2-dichlorobenzene'
p383
S'mobley_2489709'
p384
sS'1,2,2-trifluoroethoxybenzene'
p385
S'mobley_6843802'
p386
sS'1-bromo-4-methyl-benzene'
p387
S'mobley_4494568'
p388
sS'methyl propanoate'
p389
S'mobley_1075836'
p390
sS'1-methylnaphthalene'
p391
S'mobley_9414831'
p392
sS'3,5-dichloro-2,6-dimethoxyphenol'
p393
S'mobley_6688723'
p394
sS'propyl acetate'
p395
S'mobley_7573149'
p396
sS'N,N-dimethylmethanamine'
p397
S'mobley_9209581'
p398
sS'terbacil'
p399
S'mobley_3105103'
p400
sS'isobutyl 2-methylpropanoate'
p401
S'mobley_6456034'
p402
sS'acenaphthene'
p403
S'mobley_2261979'
p404
sS'1-methylcyclohexene'
p405
S'mobley_6571751'
p406
sS'2,3-dichlorodibenzo-p-dioxin'
p407
S'mobley_1469079'
p408
sS'thiophene'
p409
S'mobley_2972906'
p410
sS'methyl 2,2-dimethylpropanoate'
p411
S'mobley_1781152'
p412
sS'2,2,4-trimethylpentane'
p413
S'mobley_1139153'
p414
sS'5-Amino-4-chloro-2-phenylpyridazin-3(2H)-one'
p415
S'mobley_2523689'
p416
sS'methylsulfanylbenzene'
p417
S'mobley_1189457'
p418
sS'4-chlorophenol'
p419
S'mobley_7066554'
p420
sS'hexylbenzene'
p421
S'mobley_588781'
p422
sS'ethoxyethane'
p423
S'mobley_1144156'
p424
sS'acetonitrile'
p425
S'mobley_7532833'
p426
sS'pentan-1-ol'
p427
S'mobley_5759258'
p428
sS'2-isobutylpyrazine'
p429
S'mobley_2693089'
p430
sS'butanenitrile'
p431
S'mobley_8221999'
p432
sS'fenuron'
p433
S'mobley_6861308'
p434
sS'1,2,3,4-tetrachloro-5-phenyl-benzene'
p435
S'mobley_9510785'
p436
sS'benzyl bromide'
p437
S'mobley_1905088'
p438
sS'pent-1-ene'
p439
S'mobley_4043951'
p440
sS'ethyl hexanoate'
p441
S'mobley_1592519'
p442
sS'ethion'
p443
S'mobley_7754849'
p444
sS'2-chloro-1,1,1-trimethoxy-ethane'
p445
S'mobley_3589456'
p446
sS'indane'
p447
S'mobley_5094777'
p448
sS'1,3-bis-(nitrooxy)butane'
p449
S'mobley_9741965'
p450
sS'oct-1-yne'
p451
S'mobley_8522124'
p452
sS'5-trifluoromethyluracil'
p453
S'mobley_7794077'
p454
sS'flurbiprofen'
p455
S'mobley_1527293'
p456
sS'2-methylthiophene'
p457
S'mobley_9705941'
p458
sS'1,1,2-trichloro-1,2,2-trifluoro-ethane'
p459
S'mobley_1838110'
p460
sS'diiodomethane'
p461
S'mobley_664966'
p462
sS'butan-1-amine'
p463
S'mobley_9733743'
p464
sS'N-methylaniline'
p465
S'mobley_7774695'
p466
sS'3,5-dimethylpyridine'
p467
S'mobley_1363784'
p468
sS'methylsulfanylethane'
p469
S'mobley_2049967'
p470
sS'2-chlorodibenzo-p-dioxin'
p471
S'mobley_5371840'
p472
sS'2,4-dimethylpyridine'
p473
S'mobley_8861672'
p474
sS'methanesulfonyl chloride'
p475
S'mobley_4850657'
p476
sS'pentan-3-ol'
p477
S'mobley_7227357'
p478
sS'2-nitrophenol'
p479
S'mobley_5063386'
p480
sS'isobutyl formate'
p481
S'mobley_7455579'
p482
sS'pyrrole'
p483
S'mobley_2837389'
p484
sS'cyanuric acid'
p485
S'mobley_6239320'
p486
sS'3-methylbutanoic acid'
p487
S'mobley_2929847'
p488
sS'diethyl propanedioate'
p489
S'mobley_2402487'
p490
sS'ethyl propanoate'
p491
S'mobley_7943327'
p492
sS'pirimor'
p493
S'mobley_3201701'
p494
sS'3-methoxyaniline'
p495
S'mobley_755351'
p496
sS'dibenzo-p-dioxin'
p497
S'mobley_172879'
p498
sS'2-methylbut-2-ene'
p499
S'mobley_778352'
p500
sS'4-propylphenol'
p501
S'mobley_4683624'
p502
sS'methylcyclopentane'
p503
S'mobley_5852491'
p504
sS'ethyl pentanoate'
p505
S'mobley_6619554'
p506
sS'1-(3-pyridyl)ethanone'
p507
S'mobley_6353617'
p508
sS'1,2,3,7-tetrachlorodibenzo-p-dioxin'
p509
S'mobley_2844990'
p510
sS'1,4-dichloro-2-phenyl-benzene'
p511
S'mobley_6359156'
p512
sS'tetrahydrofuran'
p513
S'mobley_8882696'
p514
sS'4-ethylphenol'
p515
S'mobley_2923700'
p516
sS'4-propylguaiacol'
p517
S'mobley_3359593'
p518
sS'2-methylbenzaldehyde'
p519
S'mobley_8883511'
p520
sS'(2S,5R)-2-isopropyl-5-methylcyclohexanone'
p521
S'mobley_5616693'
p522
sS'formaldehyde'
p523
S'mobley_2146331'
p524
sS'(2Z)-3,7-dimethylocta-2,6-dien-1-ol'
p525
S'mobley_9897248'
p526
sS'butyl paraben'
p527
S'mobley_7912193'
p528
sS'non-1-ene'
p529
S'mobley_3709920'
p530
sS'm-cresol'
p531
S'mobley_8691603'
p532
sS'pentyl acetate'
p533
S'mobley_8514745'
p534
sS'2-phenylethanol'
p535
S'mobley_1858644'
p536
sS'pent-1-yne'
p537
S'mobley_430089'
p538
sS'N-propylpropan-1-amine'
p539
S'mobley_2958326'
p540
sS'1,1,1,2-tetramethoxyethane'
p541
S'mobley_5747981'
p542
sS'1,3,5-trichloro-2-(2,6-dichlorophenyl)benzene'
p543
S'mobley_5561855'
p544
sS'cyclohexanone'
p545
S'mobley_3682850'
p546
sS'1-methyl-3-nitro-benzene'
p547
S'mobley_7298388'
p548
sS'aldicarb'
p549
S'mobley_5200358'
p550
sS'piperazine'
p551
S'mobley_951560'
p552
sS'2,2-dimethylbutane'
p553
S'mobley_5935995'
p554
sS'N-butylbutan-1-amine'
p555
S'mobley_7860938'
p556
sS'1-benzylimidazole'
p557
S'mobley_4613090'
p558
sS'tetrafluoromethane'
p559
S'mobley_676247'
p560
sS'octan-2-one'
p561
S'mobley_9407874'
p562
sS'(2S,3R,4S,5R)-oxane-2,3,4,5-tetrol'
p563
S'mobley_1896013'
p564
sS'2-[(1R)-1-methylpropyl]-4,6-dinitro-phenolate'
p565
S'mobley_3274817'
p566
sS'butadiene'
p567
S'mobley_511661'
p568
sS'1,1-dichloroethylene'
p569
S'mobley_2493732'
p570
sS'2-nitroaniline'
p571
S'mobley_5948990'
p572
sS'methyl benzoate'
p573
S'mobley_3968739'
p574
sS'isoprene'
p575
S'mobley_8765203'
p576
sS'1-methylimidazole'
p577
S'mobley_5499659'
p578
sS'1,4-dimethylnaphthalene'
p579
S'mobley_3715043'
p580
sS'3-ethylphenol'
p581
S'mobley_2354112'
p582
sS'methoxyethane'
p583
S'mobley_6911232'
p584
sS'1,2,3,4-tetrachloro-5-(3,4,5-trichlorophenyl)benzene'
p585
S'mobley_3269819'
p586
sS'propyl propanoate'
p587
S'mobley_5890803'
p588
sS'cyclopentene'
p589
S'mobley_8885088'
p590
sS'heptan-4-one'
p591
S'mobley_2390199'
p592
sS'2,3,4-trimethylpentane'
p593
S'mobley_4177472'
p594
sS'captan'
p595
S'mobley_1417007'
p596
sS'pentanenitrile'
p597
S'mobley_4893032'
p598
sS'naphthalen-2-amine'
p599
S'mobley_3264884'
p600
sS'3-nitroaniline'
p601
S'mobley_3777264'
p602
sS'2-butoxyethanol'
p603
S'mobley_5880265'
p604
sS'chloromethane'
p605
S'mobley_4434915'
p606
sS'naproxen'
p607
S'mobley_2269032'
p608
sS'trifluoromethylbenzene'
p609
S'mobley_8809274'
p610
sS'2-propoxyethanol'
p611
S'mobley_4687447'
p612
sS'1-chlorohexane'
p613
S'mobley_1893937'
p614
sS'nonan-2-one'
p615
S'mobley_1502181'
p616
sS'alachlor'
p617
S'mobley_8124669'
p618
sS'1,2-dichloroethane'
p619
S'mobley_1857976'
p620
sS'4-methylmorpholine'
p621
S'mobley_8558116'
p622
sS'bromoform'
p623
S'mobley_7578802'
p624
sS'1-methoxypropane'
p625
S'mobley_2422586'
p626
sS'2-isopropoxypropane'
p627
S'mobley_1615431'
p628
sS'1-chloro-pentane'
p629
S'mobley_2178600'
p630
sS'cyclopentane'
p631
S'mobley_8006582'
p632
sS'2-N-ethyl-6-(methylsulfanyl)-4-N-(propan-2-yl)-1,3,5-triazine-2,4-diamine'
p633
S'mobley_3047364'
p634
sS'acetaldehyde'
p635
S'mobley_1967551'
p636
sS'1,4-dioxane'
p637
S'mobley_6739648'
p638
sS'1,1-difluoroethane'
p639
S'mobley_3370989'
p640
sS'4-methoxyaniline'
p641
S'mobley_4218209'
p642
sS'(2R,3R,4S,5S,6R)-6-(hydroxymethyl)tetrahydropyran-2,3,4,5-tetrol'
p643
S'mobley_9534740'
p644
sS'3,5-dimethylphenol'
p645
S'mobley_7009711'
p646
sS'morpholine'
p647
S'mobley_1659169'
p648
sS'2-ethylpyrazine'
p649
S'mobley_5220185'
p650
sS'naphthalen-2-ol'
p651
S'mobley_3663158'
p652
sS'phthalimide'
p653
S'mobley_2782339'
p654
sS'propyl paraben'
p655
S'mobley_6201330'
p656
sS'1-chloro-2-methyl-benzene'
p657
S'mobley_1760914'
p658
sS'2-chloro-2-(difluoromethoxy)-1,1,1-trifluoro-ethane'
p659
S'mobley_2023925'
p660
sS'pentanoic acid'
p661
S'mobley_4792268'
p662
sS'1,4-dibromobenzene'
p663
S'mobley_7150646'
p664
sS'5-bromouracil'
p665
S'mobley_4039055'
p666
sS'3,5,5-trimethylcyclohex-2-en-1-one'
p667
S'mobley_7364468'
p668
sS'1,4-dichlorobenzene'
p669
S'mobley_4553008'
p670
sS'3-methylpyridine'
p671
S'mobley_5977084'
p672
sS'iodomethane'
p673
S'mobley_4364398'
p674
sS'diethyl (2R)-2-dimethoxyphosphinothioylsulfanylbutanedioate'
p675
S'mobley_8916409'
p676
sS'N-(3,4-dichlorophenyl)propanimidic acid'
p677
S'mobley_7463408'
p678
sS'undecan-2-one'
p679
S'mobley_7375018'
p680
sS'2,2,5-trimethylhexane'
p681
S'mobley_3060426'
p682
sS'hexan-3-ol'
p683
S'mobley_7977115'
p684
sS'4-ethylpyridine'
p685
S'mobley_6303022'
p686
sS'chloroethane'
p687
S'mobley_2198613'
p688
sS'iodobenzene'
p689
S'mobley_3398536'
p690
sS'2,6-dimethylpyridine'
p691
S'mobley_4584540'
p692
sS'n-butane'
p693
S'mobley_1923244'
p694
sS'propan-1-amine'
p695
S'mobley_9185328'
p696
sS'nonane'
p697
S'mobley_4375719'
p698
sS'isobutyl nitrate'
p699
S'mobley_2881590'
p700
sS'(E)-1,2-dichloroethylene'
p701
S'mobley_9913368'
p702
sS'methylparathion'
p703
S'mobley_1922649'
p704
sS'3-chloropyridine'
p705
S'mobley_2789243'
p706
sS'fluorobenzene'
p707
S'mobley_4483973'
p708
sS'decan-2-one'
p709
S'mobley_9617923'
p710
sS'cyclopropane'
p711
S'mobley_2784376'
p712
sS'methanethiol'
p713
S'mobley_525934'
p714
sS'3-methoxyphenol'
p715
S'mobley_2457863'
p716
sS'2-methylpentan-2-ol'
p717
S'mobley_3414356'
p718
sS'methyl cyclopropanecarboxylate'
p719
S'mobley_4620651'
p720
sS'N,N-dipropyl(propylsulfanyl)formamide'
p721
S'mobley_8713762'
p722
sS'methyl 2,2,2-trifluoroacetate'
p723
S'mobley_9028462'
p724
sS'N-ethylethanamine'
p725
S'mobley_8426916'
p726
sS'2,5-dimethylpyridine'
p727
S'mobley_9507933'
p728
sS'nonanal'
p729
S'mobley_1976156'
p730
sS'trimethyl phosphate'
p731
S'mobley_6115639'
p732
sS'oct-1-ene'
p733
S'mobley_9197172'
p734
sS'2-methylbutan-1-ol'
p735
S'mobley_7983227'
p736
sS'1-methylpiperazine'
p737
S'mobley_2771569'
p738
sS'1-butoxy-2-propanol'
p739
S'mobley_7913234'
p740
sS'pent-2-ene'
p741
S'mobley_9112978'
p742
sS'propan-2-ol'
p743
S'mobley_7326982'
p744
sS'ethyl paraben'
p745
S'mobley_4609460'
p746
sS'diphenyl ether'
p747
S'mobley_6102880'
p748
sS'diflunisal'
p749
S'mobley_6055410'
p750
sS'1,1,2-trichloroethylene'
p751
S'mobley_766666'
p752
sS'diazinon'
p753
S'mobley_5393242'
p754
sS'2,5-dimethylphenol'
p755
S'mobley_3144334'
p756
sS'2,6-dimethoxyphenol'
p757
S'mobley_486214'
p758
sS'9H-fluorene'
p759
S'mobley_9565165'
p760
sS'N-methylmethanamine'
p761
S'mobley_5692472'
p762
sS'hexanoic acid'
p763
S'mobley_1735893'
p764
sS'1,3,5-trichloro-2-phenyl-benzene'
p765
S'mobley_5538249'
p766
sS'4-methylpentan-2-ol'
p767
S'mobley_5123639'
p768
sS'2-chloro-1-(2,4-dichlorophenyl)ethenyl diethyl phosphate'
p769
S'mobley_6522117'
p770
sS'4-chloroaniline'
p771
S'mobley_8723116'
p772
sS'isobutyl acetate'
p773
S'mobley_859464'
p774
sS'propionic acid'
p775
S'mobley_7758918'
p776
sS'1,1,1,2,2-pentachloroethane'
p777
S'mobley_2492140'
p778
sS'2,3-dimethylbuta-1,3-diene'
p779
S'mobley_900088'
p780
sS'4-methylpyridine'
p781
S'mobley_1520842'
p782
sS'naphthalen-1-yl N-methylcarbamate'
p783
S'mobley_9007496'
p784
sS'4-hydroxybenzaldehyde'
p785
S'mobley_7988076'
p786
sS'naphthalene'
p787
S'mobley_282648'
p788
sS'4-nitrophenol'
p789
S'mobley_2751110'
p790
sS'2-methylpent-1-ene'
p791
S'mobley_1899443'
p792
sS'phenylmethanol'
p793
S'mobley_5311804'
p794
sS'hydrogen sulfide'
p795
S'mobley_1929982'
p796
sS'2,4-dimethylphenol'
p797
S'mobley_4780078'
p798
sS'bromo-trifluoro-methane'
p799
S'mobley_7732703'
p800
sS'2-methoxypropane'
p801
S'mobley_3269565'
p802
sS'acetylsalicylic acid'
p803
S'mobley_2913224'
p804
sS'4-bromophenol'
p805
S'mobley_1733799'
p806
sS'1,2,4,5-tetrachlorobenzene'
p807
S'mobley_6804509'
p808
sS'4-methoxy-N,N-dimethyl-benzamide'
p809
S'mobley_5600967'
p810
sS'ethylsulfanylethane'
p811
S'mobley_4983965'
p812
sS'1-iodohexane'
p813
S'mobley_6250025'
p814
sS'isopentyl formate'
p815
S'mobley_4924862'
p816
sS'1,2,4-trichlorobenzene'
p817
S'mobley_7814642'
p818
sS'N,N-diethylethanamine'
p819
S'mobley_8449031'
p820
sS'2-methylpyridine'
p821
S'mobley_4287564'
p822
sS'1,2-dimethylcyclohexane'
p823
S'mobley_4715906'
p824
sS'1-iodopentane'
p825
S'mobley_8525830'
p826
sS'4-methyl-1H-imidazole'
p827
S'mobley_5732611'
p828
sS'benzyl chloride'
p829
S'mobley_2484519'
p830
sS'1,2-bis(trifluoromethyl)benzene'
p831
S'mobley_6358463'
p832
sS'2,4-dimethylpentan-3-one'
p833
S'mobley_4013838'
p834
sS'methylsulfanylmethane'
p835
S'mobley_9073553'
p836
sS'1-butoxybutane'
p837
S'mobley_129464'
p838
sS'1,4-dichlorobutane'
p839
S'mobley_5286200'
p840
sS'(Z)-1,2-dichloroethylene'
p841
S'mobley_4465023'
p842
sS'heptane'
p843
S'mobley_8614858'
p844
sS'isopropenylbenzene'
p845
S'mobley_3746675'
p846
sS'dicamba'
p847
S'mobley_5708811'
p848
sS'sulfolane'
p849
S'mobley_3323117'
p850
sS'1,2,4-trimethylbenzene'
p851
S'mobley_3183805'
p852
sS'but-1-yne'
p853
S'mobley_9121449'
p854
sS'dichloromethane'
p855
S'mobley_3762186'
p856
sS'3-chloroaniline'
p857
S'mobley_6257907'
p858
sS'cyclohexanamine'
p859
S'mobley_1036761'
p860
sS'n-pentane'
p861
S'mobley_5449201'
p862
sS'N-butyl-N-ethyl-2,6-dinitro-4-(trifluoromethyl)aniline'
p863
S'mobley_7829570'
p864
sS'3,3-dimethylbutan-2-one'
p865
S'mobley_5346580'
p866
sS'3-hydroxybenzonitrile'
p867
S'mobley_2661134'
p868
sS'methylcyclohexane'
p869
S'mobley_9100956'
p870
sS'1-nitropropane'
p871
S'mobley_9671033'
p872
sS'tert-butylbenzene'
p873
S'mobley_7893124'
p874
sS'3,4-dimethylpyridine'
p875
S'mobley_2371092'
p876
sS'triethylphosphate'
p877
S'mobley_1323538'
p878
sS'N,N-dimethylbenzamide'
p879
S'mobley_4188615'
p880
sS'methyl methanesulfonate'
p881
S'mobley_9201263'
p882
sS'1-bromoheptane'
p883
S'mobley_2517158'
p884
sS'1-bromohexane'
p885
S'mobley_929676'
p886
sS'heptan-1-amine'
p887
S'mobley_718988'
p888
sS'1-(2-hydroxyethylamino)-9,10-anthraquinone'
p889
S'mobley_2316618'
p890
sS'but-1-ene'
p891
S'mobley_1662128'
p892
sS'2-iodophenol'
p893
S'mobley_8789465'
p894
sS'methyl formate'
p895
S'mobley_1717215'
p896
sS'hept-1-yne'
p897
S'mobley_49274'
p898
sS'2,6-dimethylphenol'
p899
S'mobley_1755375'
p900
sS'3-chlorophenol'
p901
S'mobley_8057732'
p902
sS'1,2,4,5-tetrachloro-3-(3,4-dichlorophenyl)benzene'
p903
S'mobley_8311303'
p904
sS'propyl formate'
p905
S'mobley_8754702'
p906
sS'butyric acid'
p907
S'mobley_820789'
p908
sS'1,2,4-trichlorodibenzo-p-dioxin'
p909
S'mobley_8827942'
p910
sS'1-phenylethanone'
p911
S'mobley_7497999'
p912
sS'1,2,3,4,7,8-hexachlorodibenzo-p-dioxin'
p913
S'mobley_2960202'
p914
sS'iodoethane'
p915
S'mobley_1107178'
p916
sS'm-xylene'
p917
S'mobley_1424265'
p918
sS'2-ethylpyridine'
p919
S'mobley_6988468'
p920
sS'ethylbenzene'
p921
S'mobley_8127829'
p922
sS'2-acetoxyethyl acetate'
p923
S'mobley_352111'
p924
sS'9,10-dihydroanthracene'
p925
S'mobley_2972345'
p926
sS'propylbenzene'
p927
S'mobley_6430250'
p928
sS'chloroform'
p929
S'mobley_2996632'
p930
sS'N-methylacetamide'
p931
S'mobley_1963873'
p932
sS'chloro-difluoro-methane'
p933
S'mobley_8311321'
p934
sS'butanal'
p935
S'mobley_8573194'
p936
sS'3-chloroprop-1-ene'
p937
S'mobley_7099614'
p938
sS'methyldisulfanylmethane'
p939
S'mobley_7690440'
p940
sS'pyridine-4-carbonitrile'
p941
S'mobley_5026370'
p942
sS'2-bromo-1,1,1,2-tetrafluoro-ethane'
p943
S'mobley_8685905'
p944
sS'4-methylbenzaldehyde'
p945
S'mobley_6175884'
p946
sS'1-propylsulfanylpropane'
p947
S'mobley_5052949'
p948
sS'quinone'
p949
S'mobley_3727287'
p950
sS'2-hydroxybenzaldehyde'
p951
S'mobley_2850833'
p952
sS'2-chlorobutane'
p953
S'mobley_6235784'
p954
sS'1,4-diamino-9,10-anthracenedione'
p955
S'mobley_242480'
p956
sS'2-bromo-2-chloro-1,1,1-trifluoro-ethane'
p957
S'mobley_4506634'
p958
sS'4-methyl-2-methoxyphenol'
p959
S'mobley_5917842'
p960
sS'(2E)-hex-2-enal'
p961
S'mobley_2792521'
p962
sS'2-methylhexane'
p963
S'mobley_4043987'
p964
sS'(2R,5R)-2-methyl-5-(1-methylethenyl)-cyclohexanone'
p965
S'mobley_1160109'
p966
sS'1-ethyl-2-methylbenzene'
p967
S'mobley_3040612'
p968
sS'1-bromopropane'
p969
S'mobley_7708038'
p970
sS'1,2,3,4-tetrachloro-5-(3,4-dichlorophenyl)benzene'
p971
S'mobley_1034539'
p972
sS'1,2,3,4-tetrachloro-5-(2,3,4-trichlorophenyl)benzene'
p973
S'mobley_667278'
p974
sS'chlorobenzene'
p975
S'mobley_7608462'
p976
sS'butan-1-ol'
p977
S'mobley_1019269'
p978
sS'2-methylpropan-1-ol'
p979
S'mobley_2245668'
p980
sS'3-methylhexane'
p981
S'mobley_9883303'
p982
sS'2,2-dichloro-1,1-difluoro-1-methoxy-ethane'
p983
S'mobley_5347550'
p984
sS'1,2,3,4,5-pentachloro-6-(2,3,4,5,6-pentachlorophenyl)benzene'
p985
S'mobley_5456566'
p986
sS'sec-butylbenzene'
p987
S'mobley_2183616'
p988
sS'mesitylene'
p989
S'mobley_1987439'
p990
sS'1-propoxypropane'
p991
S'mobley_7542832'
p992
sS'1,3-dichlorobenzene'
p993
S'mobley_1079207'
p994
sS'methyl acetate'
p995
S'mobley_3982371'
p996
sS'hexyl nitrate'
p997
S'mobley_3802803'
p998
sS'1-amino-9,10-anthracenedione'
p999
S'mobley_8052240'
p1000
sS'2-ethoxyethyl acetate'
p1001
S'mobley_7417968'
p1002
sS'1,1,1,2-tetrachloroethane'
p1003
S'mobley_1893815'
p1004
sS'pentan-2-one'
p1005
S'mobley_1881249'
p1006
sS'2-methylpropanal'
p1007
S'mobley_5627459'
p1008
sS'1,1,1-trimethoxyethane'
p1009
S'mobley_550662'
p1010
sS'diethyl butanedioate'
p1011
S'mobley_1743409'
p1012
sS'1-bromo-pentane'
p1013
S'mobley_3738859'
p1014
sS'3,3-dimethylpentane'
p1015
S'mobley_2609604'
p1016
sS'methyl hexanoate'
p1017
S'mobley_1017962'
p1018
sS'2-nitropropane'
p1019
S'mobley_967099'
p1020
sS'pentachloronitrobenzene'
p1021
S'mobley_1396156'
p1022
sS'hept-1-ene'
p1023
S'mobley_4762983'
p1024
sS'butyl acetate'
p1025
S'mobley_2364370'
p1026
sS'toluene'
p1027
S'mobley_1873346'
p1028
sS'2-chloropropane'
p1029
S'mobley_1231151'
p1030
sS'propan-1-ol'
p1031
S'mobley_313406'
p1032
sS'isohexane'
p1033
S'mobley_7106722'
p1034
sS'pentylcyclopentane'
p1035
S'mobley_2328633'
p1036
sS'1,4-dimethylcyclohexane'
p1037
S'mobley_9139060'
p1038
sS'1-chlorodibenzo-p-dioxin'
p1039
S'mobley_7239499'
p1040
sS'biphenyle'
p1041
S'mobley_2005792'
p1042
sS'heptan-1-ol'
p1043
S'mobley_5079234'
p1044
sS'diethoxy-(4-nitrophenoxy)-thioxo-$l^{5}-phosphane'
p1045
S'mobley_9281946'
p1046
sS'3,4-dichlorophenol'
p1047
S'mobley_9257453'
p1048
sS'ethoxybenzene'
p1049
S'mobley_2763835'
p1050
sS'diethoxy-(ethylsulfanylmethylsulfanyl)-thioxo-$l^{5}-phosphane'
p1051
S'mobley_9460824'
p1052
sS'benzene'
p1053
S'mobley_3053621'
p1054
sS'2,3-dimethylphenol'
p1055
S'mobley_1571523'
p1056
sS'azetidine'
p1057
S'mobley_6266306'
p1058
sS'3-methylbutan-1-ol'
p1059
S'mobley_5973402'
p1060
sS'hexyl acetate'
p1061
S'mobley_2607611'
p1062
sS'5-chlorouracil'
p1063
S'mobley_9557440'
p1064
sS'ibuprofen'
p1065
S'mobley_2078467'
p1066
sS'(3R)-3,7-Dimethylocta-1,6-dien-3-yl acetate'
p1067
S'mobley_6935906'
p1068
sS'octane'
p1069
S'mobley_3167746'
p1070
sS'3-methylheptane'
p1071
S'mobley_6896128'
p1072
sS'm-bis(trifluoromethyl)benzene'
p1073
S'mobley_4678740'
p1074
sS'pyrrolidine'
p1075
S'mobley_646007'
p1076
sS'cumene'
p1077
S'mobley_5445548'
p1078
sS'4-methylpentan-2-one'
p1079
S'mobley_8337977'
p1080
sS'5-iodouracil'
p1081
S'mobley_2727678'
p1082
sS'hex-1-yne'
p1083
S'mobley_1674094'
p1084
sS'1,2-diethoxyethane'
p1085
S'mobley_4690963'
p1086
sS'3-nitrooxypropyl nitrate'
p1087
S'mobley_2636578'
p1088
sS'heptan-2-one'
p1089
S'mobley_3573480'
p1090
sS'imidazole'
p1091
S'mobley_7735340'
p1092
sS'isopentane'
p1093
S'mobley_1803862'
p1094
sS'isopentyl acetate'
p1095
S'mobley_5471704'
p1096
sS'6-isopropyl-3-methyl-1-cyclohex-2-enone'
p1097
S'mobley_7676709'
p1098
sS'glycerol'
p1099
S'mobley_3259411'
p1100
sS'acetamide'
p1101
S'mobley_8048190'
p1102
sS'3-nitrophenol'
p1103
S'mobley_7176290'
p1104
sS'p-xylene'
p1105
S'mobley_3234716'
p1106
sS'4-fluorophenol'
p1107
S'mobley_852937'
p1108
sS'3-phenylpropan-1-ol'
p1109
S'mobley_7463799'
p1110
sS'2-methoxy-2-methyl-propane'
p1111
S'mobley_9794857'
p1112
sS'1-(4-methoxyphenyl)ethanone'
p1113
S'mobley_632905'
p1114
sS'1-bromobutane'
p1115
S'mobley_2802855'
p1116
sS'1,3-dichloro-2-(2,6-dichlorophenyl)benzene'
p1117
S'mobley_628951'
p1118
sS'2-methyltetrahydrofuran'
p1119
S'mobley_5056289'
p1120
sS'2-methoxyethanol'
p1121
S'mobley_5816127'
p1122
sS'octan-1-ol'
p1123
S'mobley_36119'
p1124
sS'2-chloro-2-methyl-propane'
p1125
S'mobley_7047032'
p1126
sS'1-cyclopropylethanone'
p1127
S'mobley_197466'
p1128
sS'2,2,2-trifluoroethanol'
p1129
S'mobley_3006808'
p1130
sS'[2-benzhydryloxyethyl]-dimethyl-amine'
p1131
S'mobley_1944394'
p1132
sS'methyl butanoate'
p1133
S'mobley_5390332'
p1134
sS'methyl 4-nitrobenzoate'
p1135
S'mobley_1328936'
p1136
sS'cyclohexene'
p1137
S'mobley_3211679'
p1138
sS'1,1-diethoxyethane'
p1139
S'mobley_3686115'
p1140
sS'2,3-dimethylnaphthalene'
p1141
S'mobley_547634'
p1142
sS'styrene'
p1143
S'mobley_2859600'
p1144
sS'nonan-5-one'
p1145
S'mobley_3318135'
p1146
sS'1,2,3,5-tetrachlorobenzene'
p1147
S'mobley_1855337'
p1148
sS'(2E)-3,7-dimethylocta-2,6-dien-1-ol'
p1149
S'mobley_819018'
p1150
sS'prop-1-ene'
p1151
S'mobley_303222'
p1152
sS'dichlobenil'
p1153
S'mobley_9740891'
p1154
sS'cyclohepta-1,3,5-triene'
p1155
S'mobley_9729792'
p1156
sS'1-nitroethane'
p1157
S'mobley_8320545'
p1158
sS'1,1-dichloroethane'
p1159
S'mobley_3999471'
p1160
sS'1-(4-pyridyl)ethanone'
p1161
S'mobley_6794076'
p1162
sS'chloroethylene'
p1163
S'mobley_6474572'
p1164
sS'2-methoxyaniline'
p1165
S'mobley_5072416'
p1166
sS'1-ethyl-4-methyl-benzene'
p1167
S'mobley_9942801'
p1168
sS'penta-1,4-diene'
p1169
S'mobley_9246215'
p1170
sS'o-xylene'
p1171
S'mobley_9478823'
p1172
sS'pentyl propanoate'
p1173
S'mobley_3572203'
p1174
sS'pyridine-3-carbonitrile'
p1175
S'mobley_8764620'
p1176
sS'2,4-dimethylpentane'
p1177
S'mobley_8436428'
p1178
sS'1,2,3,4-tetrachlorodibenzo-p-dioxin'
p1179
S'mobley_5510474'
p1180
sS'hydrazine'
p1181
S'mobley_7261305'
p1182
sS'ethanamine'
p1183
S'mobley_2410897'
p1184
sS'1-amino-4-hydroxy-9,10-anthracenedione'
p1185
S'mobley_4371692'
p1186
sS'butyl nitrate'
p1187
S'mobley_902954'
p1188
sS'cyclopentanone'
p1189
S'mobley_3968043'
p1190
sS'1-chlorobutane'
p1191
S'mobley_3639400'
p1192
sS'phenol'
p1193
S'mobley_20524'
p1194
sS'methoxymethane'
p1195
S'mobley_7015518'
p1196
sS'1-chloropropane'
p1197
S'mobley_1977493'
p1198
sS'2,3,7,8-tetrachlorodibenzo-p-dioxin'
p1199
S'mobley_2845466'
p1200
sS'N-isopropylpropan-2-amine'
p1201
S'mobley_8705848'
p1202
sS'benzenethiol'
p1203
S'mobley_5520946'
p1204
sS'1-bromooctane'
p1205
S'mobley_9015240'
p1206
sS'pentan-2-ol'
p1207
S'mobley_2864987'
p1208
sS'heptanal'
p1209
S'mobley_7859387'
p1210
sS'but-2-enal'
p1211
S'mobley_6497672'
p1212
sS'chlordane'
p1213
S'mobley_6733657'
p1214
sS'2-iodopropane'
p1215
S'mobley_210639'
p1216
sS'1-methylpiperidine'
p1217
S'mobley_63712'
p1218
sS'3-methyl-1H-indole'
p1219
S'mobley_1821184'
p1220
sS'naphthalen-1-amine'
p1221
S'mobley_3843583'
p1222
sS'ethyl formate'
p1223
S'mobley_2294995'
p1224
sS'2-methylpentan-3-ol'
p1225
S'mobley_7610437'
p1226
sS'[(2S)-butan-2-yl] nitrate'
p1227
S'mobley_7869158'
p1228
sS'ethanethiol'
p1229
S'mobley_1800170'
p1230
sS'1-methyl-2-nitro-benzene'
p1231
S'mobley_5747188'
p1232
sS'1-iodopropane'
p1233
S'mobley_1199854'
p1234
sS'methanamine'
p1235
S'mobley_6714389'
p1236
sS'2-methylprop-1-ene'
p1237
S'mobley_299266'
p1238
sS'trifluralin'
p1239
S'mobley_7176248'
p1240
sS'2-chloro-1,1,1-trifluoro-ethane'
p1241
S'mobley_8191186'
p1242
sS'benzaldehyde'
p1243
S'mobley_3969312'
p1244
sS'1-chloro-2-phenyl-benzene'
p1245
S'mobley_9717937'
p1246
sS'cyclohexane'
p1247
S'mobley_2689721'
p1248
sS'1-pyrrolidin-1-ylethanone'
p1249
S'mobley_2725802'
p1250
sS'2,7-dichlorodibenzo-p-dioxin'
p1251
S'mobley_4149784'
p1252
sS'heptachlor'
p1253
S'mobley_468867'
p1254
sS'nitralin'
p1255
S'mobley_2725215'
p1256
sS'1,2-dimethoxyethane'
p1257
S'mobley_4630641'
p1258
sS'pyrene'
p1259
S'mobley_2577969'
p1260
sS'1,2-dichloropropane'
p1261
S'mobley_4699732'
p1262
sS'profluralin'
p1263
S'mobley_2501588'
p1264
sS'neopentane'
p1265
S'mobley_1261349'
p1266
sS'pyridine-4-carbaldehyde'
p1267
S'mobley_8798016'
p1268
sS'2-fluorophenol'
p1269
S'mobley_7200804'
p1270
sS'2-chlorosyringaldehyde'
p1271
S'mobley_3265457'
p1272
sS'6-chlorouracil'
p1273
S'mobley_4338603'
p1274
sS'carbofuran'
p1275
S'mobley_6620221'
p1276
sS'dibromomethane'
p1277
S'mobley_9246351'
p1278
sS'cyclopentanol'
p1279
S'mobley_8899867'
p1280
sS'bromacil'
p1281
S'mobley_194273'
p1282
sS'fluoromethane'
p1283
S'mobley_9029594'
p1284
s.