(dp1
S'mobley_1323538'
p2
(dp3
S'smiles'
p4
S'CCOP(=O)(OCC)OCC'
p5
sS'notes'
p6
(lp7
S'Experimental uncertainty as suggested by 10.1039/P29900000291 -- 0.2 kcal/mol.'
p8
asS'd_expt'
p9
F0.20000000000000001
sS'expt'
p10
F-7.5
sS'expt_reference'
p11
S'10.1039/P29900000291'
p12
sS'nickname'
p13
S' triethylphosphate'
p14
ssS'mobley_2661134'
p15
(dp16
g4
S'c1cc(cc(c1)O)C#N'
p17
sg6
(lp18
S'Experimental uncertainty not presently available, so assigned a default value.'
p19
asg9
F0.59999999999999998
sg10
F-9.6500000000000004
sg11
S'10.1021/ct050097l'
p20
sg13
S' 3-hydroxybenzonitrile'
p21
ssS'mobley_6929123'
p22
(dp23
g4
S'COC(=O)CCl'
p24
sg6
(lp25
g19
asg9
F0.59999999999999998
sg10
F-4
sg11
S'10.1139/v80-201'
p26
sg13
S' methyl 2-chloroacetate'
p27
ssS'mobley_3395921'
p28
(dp29
g4
S'C1CCOCC1'
p30
sg6
(lp31
g19
asg9
F0.59999999999999998
sg10
F-3.1200000000000001
sg11
g20
sg13
S' tetrahydropyran'
p32
ssS'mobley_5449201'
p33
(dp34
g4
S'CCCCC'
p35
sg6
(lp36
g8
asg9
F0.20000000000000001
sg10
F2.2999999999999998
sg11
g12
sg13
S' n-pentane'
p37
ssS'mobley_5631798'
p38
(dp39
g4
S'N'
sg6
(lp40
g19
asg9
F0.59999999999999998
sg10
F-4.29
sg11
g20
sg13
S' ammonia'
p41
ssS'mobley_1674094'
p42
(dp43
g4
S'CCCCC#C'
p44
sg6
(lp45
g19
asg9
F0.59999999999999998
sg10
F0.28999999999999998
sg11
g20
sg13
S' hex-1-yne'
p46
ssS'mobley_9838013'
p47
(dp48
g4
S'CCC(C)(C)O'
p49
sg6
(lp50
g19
asg9
F0.59999999999999998
sg10
F-4.4299999999999997
sg11
g20
sg13
S' 2-methylbutan-2-ol'
p51
ssS'mobley_1735893'
p52
(dp53
g4
S'CCCCCC(=O)O'
p54
sg6
(lp55
g19
asg9
F0.59999999999999998
sg10
F-6.21
sg11
g20
sg13
S' hexanoic acid'
p56
ssS'mobley_2198613'
p57
(dp58
g4
S'CCCl'
p59
sg6
(lp60
g19
asg9
F0.59999999999999998
sg10
F-0.63
sg11
g20
sg13
S' chloroethane'
p61
ssS'mobley_1449384'
p62
(dp63
g4
S'Cc1ccc(cc1)C(C)C'
p64
sg6
(lp65
g19
asg9
F0.59999999999999998
sg10
F-0.68000000000000005
sg11
g20
sg13
S' 1-isopropyl-4-methyl-benzene'
p66
ssS'mobley_3682850'
p67
(dp68
g4
S'C1CCC(=O)CC1'
p69
sg6
(lp70
g19
asg9
F0.59999999999999998
sg10
F-4.9100000000000001
sg11
g20
sg13
S' cyclohexanone'
p71
ssS'mobley_3264884'
p72
(dp73
g4
S'c1ccc2cc(ccc2c1)N'
p74
sg6
(lp75
g19
asg9
F0.59999999999999998
sg10
F-7.4699999999999998
sg11
g20
sg13
S' naphthalen-2-amine'
p76
ssS'mobley_8614858'
p77
(dp78
g4
S'CCCCCCC'
p79
sg6
(lp80
g19
asg9
F0.59999999999999998
sg10
F2.6699999999999999
sg11
g20
sg13
S' heptane'
p81
ssS'mobley_4043987'
p82
(dp83
g4
S'CCCCC(C)C'
p84
sg6
(lp85
g19
asg9
F0.59999999999999998
sg10
F2.9300000000000002
sg11
g20
sg13
S' 2-methylhexane'
p86
ssS'mobley_2864987'
p87
(dp88
g4
S'CCC[C@@H](C)O'
p89
sg6
(lp90
S'Renamed mobley_2864987 from pentan-2-ol to (2R)-pentan-2-ol (the name from the 3D structure) since the former did not completely specify stereochemistry.\n'
p91
asg9
F0.59999999999999998
sg10
F-4.3899999999999997
sg11
g20
sg13
S' pentan-2-ol'
p92
ssS'mobley_859464'
p93
(dp94
g4
S'CC(C)COC(=O)C'
p95
sg6
(lp96
g19
asg9
F0.59999999999999998
sg10
F-2.3599999999999999
sg11
g20
sg13
S' isobutyl acetate'
p97
ssS'mobley_3053621'
p98
(dp99
g4
S'c1ccccc1'
p100
sg6
(lp101
g8
asg9
F0.20000000000000001
sg10
F-0.90000000000000002
sg11
g12
sg13
S' benzene'
p102
ssS'mobley_1352110'
p103
(dp104
g4
S'CCCCN(CC)C(=O)SCCC'
p105
sg6
(lp106
g19
asg9
F1.9299999999999999
sg10
F-3.6400000000000001
sg11
S'10.1021/jp806724u'
p107
sg13
S' pebulate'
p108
ssS'mobley_4291494'
p109
(dp110
g4
S'c1ccnc(c1)Cl'
p111
sg6
(lp112
g19
asg9
F0.59999999999999998
sg10
F-4.3899999999999997
sg11
g20
sg13
S' 2-chloropyridine'
p113
ssS'mobley_2364370'
p114
(dp115
g4
S'CCCCOC(=O)C'
p116
sg6
(lp117
g19
asg9
F0.59999999999999998
sg10
F-2.6400000000000001
sg11
g20
sg13
S' butyl acetate'
p118
ssS'mobley_1893815'
p119
(dp120
g4
S'C(C(Cl)(Cl)Cl)Cl'
p121
sg6
(lp122
g19
asg9
F0.10000000000000001
sg10
F-1.4299999999999999
sg11
S'10.1007/s10822-012-9568-8'
p123
sg13
S' 1,1,1,2-tetrachloroethane'
p124
ssS'mobley_5200358'
p125
(dp126
g4
S'CC(C)(/C=N\\OC(=O)NC)SC'
p127
sg6
(lp128
S'Renamed mobley_5200358 from aldicarb to [(Z)-(2-methyl-2-methylsulfanyl-propylidene)amino] N-methylcarbamate (the name from the 3D structure) since the former did not completely specify stereochemistry.\n'
p129
asg9
F0.10000000000000001
sg10
F-9.8399999999999999
sg11
g107
sg13
S' aldicarb'
p130
ssS'mobley_9246215'
p131
(dp132
g4
S'C=CCC=C'
p133
sg6
(lp134
g19
asg9
F0.59999999999999998
sg10
F0.93000000000000005
sg11
g20
sg13
S' penta-1,4-diene'
p135
ssS'mobley_5110043'
p136
(dp137
g4
S'Cc1ccc2cc(ccc2c1)C'
p138
sg6
(lp139
g19
asg9
F0.59999999999999998
sg10
F-2.6299999999999999
sg11
g20
sg13
S' 2,6-dimethylnaphthalene'
p140
ssS'mobley_6190089'
p141
(dp142
g4
S'C(C(Cl)Cl)(Cl)Cl'
p143
sg6
(lp144
g19
asg9
F0.10000000000000001
sg10
F-2.3700000000000001
sg11
g123
sg13
S' 1,1,2,2-tetrachloroethane'
p145
ssS'mobley_6266306'
p146
(dp147
g4
S'C1CNC1'
p148
sg6
(lp149
g19
asg9
F0.59999999999999998
sg10
F-5.5599999999999996
sg11
g20
sg13
S' azetidine'
p150
ssS'mobley_2850833'
p151
(dp152
g4
S'c1ccc(c(c1)C=O)O'
p153
sg6
(lp154
g19
asg9
cnumpy.core.multiarray
scalar
p155
(cnumpy
dtype
p156
(S'f8'
I0
I1
tRp157
(I3
S'<'
NNNI-1
I-1
I0
tbS'\x9a\x99\x99\x99\x99\x99\xb9?'
tRp158
sg10
g155
(g157
S'\xb8\x1e\x85\xebQ\xb8\x12\xc0'
tRp159
sg11
S'SAMPL4_Guthrie'
p160
sg13
S' 2-hydroxybenzaldehyde'
p161
ssS'mobley_9246351'
p162
(dp163
g4
S'C(Br)Br'
p164
sg6
(lp165
g19
asg9
F0.59999999999999998
sg10
F-1.96
sg11
g20
sg13
S' dibromomethane'
p166
ssS'mobley_8011706'
p167
(dp168
g4
S'CN(C)C=O'
p169
sg6
(lp170
g19
asg9
F0.59999999999999998
sg10
F-7.8099999999999996
sg11
g20
sg13
S' N,N-dimethylformamide'
p171
ssS'mobley_4924862'
p172
(dp173
g4
S'CC(C)CCOC=O'
p174
sg6
(lp175
g19
asg9
F0.59999999999999998
sg10
F-2.1299999999999999
sg11
g20
sg13
S' isopentyl formate'
p176
ssS'mobley_9942801'
p177
(dp178
g4
S'CCc1ccc(cc1)C'
p179
sg6
(lp180
g19
asg9
F0.59999999999999998
sg10
F-0.94999999999999996
sg11
g20
sg13
S' 1-ethyl-4-methyl-benzene'
p181
ssS'mobley_7578802'
p182
(dp183
g4
S'C(Br)(Br)Br'
p184
sg6
(lp185
g19
asg9
F0.59999999999999998
sg10
F-2.1299999999999999
sg11
g20
sg13
S' bromoform'
p186
ssS'mobley_8861672'
p187
(dp188
g4
S'Cc1ccnc(c1)C'
p189
sg6
(lp190
g19
asg9
F0.59999999999999998
sg10
F-4.8600000000000003
sg11
g20
sg13
S' 2,4-dimethylpyridine'
p191
ssS'mobley_194273'
p192
(dp193
g4
S'CC[C@H](C)n1c(=O)c(c([nH]c1=O)C)Br'
p194
sg6
(lp195
S'Renamed mobley_194273 from bromacil to 5-bromo-6-methyl-3-[(1S)-1-methylpropyl]-1H-pyrimidine-2,4-dione (the name from the 3D structure) since the former did not completely specify stereochemistry.\n'
p196
asg9
F1.9299999999999999
sg10
F-9.7300000000000004
sg11
g107
sg13
S' bromacil'
p197
ssS'mobley_1244778'
p198
(dp199
g4
S'C1CCCC(CC1)O'
p200
sg6
(lp201
g19
asg9
F0.59999999999999998
sg10
F-5.4800000000000004
sg11
g20
sg13
S' cycloheptanol'
p202
ssS'mobley_468867'
p203
(dp204
g4
S'C1=C[C@@H]([C@@H]2[C@H]1[C@@]3(C(=C([C@]2(C3(Cl)Cl)Cl)Cl)Cl)Cl)Cl'
p205
sg6
(lp206
g19
asg9
F0.10000000000000001
sg10
F-2.5499999999999998
sg11
g107
sg13
S' heptachlor'
p207
ssS'mobley_8827942'
p208
(dp209
g4
S'c1ccc2c(c1)Oc3c(cc(c(c3O2)Cl)Cl)Cl'
p210
sg6
(lp211
g19
asg9
F0.10000000000000001
sg10
F-4.0499999999999998
sg11
g123
sg13
S' 1,2,4-trichlorodibenzo-p-dioxin'
p212
ssS'mobley_3738859'
p213
(dp214
g4
S'CCCCCBr'
p215
sg6
(lp216
g8
asg9
F0.20000000000000001
sg10
F-0.10000000000000001
sg11
g12
sg13
S' 1-bromo-pentane'
p217
ssS'mobley_8427539'
p218
(dp219
g4
S'CCC(=O)N'
p220
sg6
(lp221
g8
asg9
F0.20000000000000001
sg10
F-9.4000000000000004
sg11
g12
sg13
S' propionamide'
p222
ssS'mobley_1107178'
p223
(dp224
g4
S'CCI'
p225
sg6
(lp226
g19
asg9
F0.59999999999999998
sg10
F-0.73999999999999999
sg11
g20
sg13
S' iodoethane'
p227
ssS'mobley_2789243'
p228
(dp229
g4
S'c1cc(cnc1)Cl'
p230
sg6
(lp231
g19
asg9
F0.59999999999999998
sg10
F-4.0099999999999998
sg11
g20
sg13
S' 3-chloropyridine'
p232
ssS'mobley_2008055'
p233
(dp234
g4
S'CC'
p235
sg6
(lp236
g19
asg9
F0.59999999999999998
sg10
F1.8300000000000001
sg11
g20
sg13
S' ethane'
p237
ssS'mobley_1873346'
p238
(dp239
g4
S'Cc1ccccc1'
p240
sg6
(lp241
g8
asg9
F0.20000000000000001
sg10
F-0.90000000000000002
sg11
g12
sg13
S' toluene'
p242
ssS'mobley_7794077'
p243
(dp244
g4
S'c1c(c(=O)[nH]c(=O)[nH]1)C(F)(F)F'
p245
sg6
(lp246
g19
asg9
F0.16
sg10
F-15.460000000000001
sg11
S'10.1007/s10822-010-9350-8'
p247
sg13
S' 5-trifluoromethyluracil'
p248
ssS'mobley_1849020'
p249
(dp250
g4
S'CCOP(=S)(OCC)SCSc1ccc(cc1)Cl'
p251
sg6
(lp252
g19
aS'Changed IUPAC name from carbophenothion to 4-chlorophenyl)sulfanylmethylsulfanyl-diethoxy-thioxo-$l^{5}-phosphane for better handling/standardization.'
p253
asg9
F0.82999999999999996
sg10
F-6.5
sg11
g107
sg13
S' carbophenothion'
p254
ssS'mobley_8798016'
p255
(dp256
g4
S'c1cnccc1C=O'
p257
sg6
(lp258
g19
asg9
F0.59999999999999998
sg10
F-7
sg11
g20
sg13
S' pyridine-4-carbaldehyde'
p259
ssS'mobley_5157661'
p260
(dp261
g4
S'CC(C)C'
p262
sg6
(lp263
g8
asg9
F0.20000000000000001
sg10
F2.2999999999999998
sg11
g12
sg13
S' isobutane'
p264
ssS'mobley_6201330'
p265
(dp266
g4
S'CCCOC(=O)c1ccc(cc1)O'
p267
sg6
(lp268
g19
asg9
F0.22
sg10
F-9.3699999999999992
sg11
g247
sg13
S' propyl paraben'
p269
ssS'mobley_4620651'
p270
(dp271
g4
S'COC(=O)C1CC1'
p272
sg6
(lp273
g19
asg9
F0.59999999999999998
sg10
F-4.0999999999999996
sg11
g20
sg13
S' methyl cyclopropanecarboxylate'
p274
ssS'mobley_9717937'
p275
(dp276
g4
S'c1ccc(cc1)c2ccccc2Cl'
p277
sg6
(lp278
g19
asg9
F0.10000000000000001
sg10
F-2.6899999999999999
sg11
g123
sg13
S' 1-chloro-2-phenyl-benzene'
p279
ssS'mobley_6861308'
p280
(dp281
g4
S'CN(C)C(=O)Nc1ccccc1'
p282
sg6
(lp283
g19
asg9
F1.9299999999999999
sg10
F-9.1300000000000008
sg11
g107
sg13
S' fenuron'
p284
ssS'mobley_4630641'
p285
(dp286
g4
S'COCCOC'
p287
sg6
(lp288
g19
asg9
F0.59999999999999998
sg10
F-4.8399999999999999
sg11
g20
sg13
S' 1,2-dimethoxyethane'
p289
ssS'mobley_2636578'
p290
(dp291
g4
S'C(CO[N+](=O)[O-])CO[N+](=O)[O-]'
p292
sg6
(lp293
g19
aS'IUPAC name and SMILES standardized in v0.2 to match PubChem.\n'
p294
asg9
g155
(g157
S'\xf6(\\\x8f\xc2\xf5\xd8?'
tRp295
sg10
g155
(g157
S'333333\x13\xc0'
tRp296
sg11
g160
sg13
S' 3-nitrooxypropyl nitrate'
p297
ssS'mobley_5571660'
p298
(dp299
g4
S'Cc1cccc(c1N)C'
p300
sg6
(lp301
g19
asg9
F0.59999999999999998
sg10
F-5.21
sg11
g20
sg13
S' 2,6-dimethylaniline'
p302
ssS'mobley_7690440'
p303
(dp304
g4
S'CSSC'
p305
sg6
(lp306
g19
asg9
F0.59999999999999998
sg10
F-1.8300000000000001
sg11
g20
sg13
S' methyldisulfanylmethane'
p307
ssS'mobley_2523689'
p308
(dp309
g4
S'c1ccc(cc1)n2c(=O)c(c(cn2)N)Cl'
p310
sg6
(lp311
g19
aS'Changed IUPAC name from pyrazon to 5-Amino-4-chloro-2-phenylpyridazin-3(2H)-one for better handling/standardization.'
p312
asg9
F1.9299999999999999
sg10
F-16.43
sg11
g107
sg13
S' pyrazon'
p313
ssS'mobley_4479135'
p314
(dp315
g4
S'C=C(c1ccccc1)c2ccccc2'
p316
sg6
(lp317
g19
asg9
g155
(g157
S'\x9a\x99\x99\x99\x99\x99\xb9?'
tRp318
sg10
g155
(g157
S'=\n\xd7\xa3p=\x06\xc0'
tRp319
sg11
g160
sg13
S' 1,1-diphenylethene'
p320
ssS'mobley_7176248'
p321
(dp322
g4
S'CCCN(CCC)c1c(cc(cc1[N+](=O)[O-])C(F)(F)F)[N+](=O)[O-]'
p323
sg6
(lp324
g19
aS'Changed IUPAC name from trifluralin to 2,6-Dinitro-N,N-dipropyl-4-(trifluoromethyl)aniline for better handling/standardization.'
p325
asg9
F0.10000000000000001
sg10
F-3.25
sg11
g107
sg13
S' trifluralin'
p326
ssS'mobley_2295058'
p327
(dp328
g4
S'COC(=O)c1ccc(cc1)O'
p329
sg6
(lp330
g19
asg9
F0.26000000000000001
sg10
F-9.5099999999999998
sg11
g247
sg13
S' methyl paraben'
p331
ssS'mobley_819018'
p332
(dp333
g4
S'CC(=CCC/C(=C/CO)/C)C'
p334
sg6
(lp335
g19
aS'IUPAC name standardized in v0.2 to match PubChem.\n'
p336
asg9
g155
(g157
S'\xb8\x1e\x85\xebQ\xb8\xce?'
tRp337
sg10
g155
(g157
S'\xcd\xcc\xcc\xcc\xcc\xcc\x11\xc0'
tRp338
sg11
g160
sg13
S' (2E)-3,7-dimethylocta-2,6-dien-1-ol'
p339
ssS'mobley_1976156'
p340
(dp341
g4
S'CCCCCCCCC=O'
p342
sg6
(lp343
g19
asg9
F0.59999999999999998
sg10
F-2.0699999999999998
sg11
g20
sg13
S' nonanal'
p344
ssS'mobley_2197088'
p345
(dp346
g4
S'CCCCCCCCCC'
p347
sg6
(lp348
g19
asg9
F0.59999999999999998
sg10
F3.1600000000000001
sg11
g20
sg13
S' decane'
p349
ssS'mobley_627267'
p350
(dp351
g4
S'CC(C)CBr'
p352
sg6
(lp353
g19
asg9
F0.59999999999999998
sg10
F-0.029999999999999999
sg11
g20
sg13
S' 1-bromo-2-methyl-propane'
p354
ssS'mobley_7415647'
p355
(dp356
g4
S'CN(C)C(=O)c1ccc(cc1)[N+](=O)[O-]'
p357
sg6
(lp358
g19
asg9
F0.59999999999999998
sg10
F-11.949999999999999
sg11
S'10.1139/v92-210'
p359
sg13
S' N,N-dimethyl-4-nitro-benzamide'
p360
ssS'mobley_6812653'
p361
(dp362
g4
S'CCCCCC'
p363
sg6
(lp364
g19
asg9
F0.59999999999999998
sg10
F2.48
sg11
g20
sg13
S' hexane'
p365
ssS'mobley_5052949'
p366
(dp367
g4
S'CCCSCCC'
p368
sg6
(lp369
g19
asg9
F0.59999999999999998
sg10
F-1.28
sg11
g20
sg13
S' 1-propylsulfanylpropane'
p370
ssS'mobley_3151666'
p371
(dp372
g4
S'CCCCCCCCCCO'
p373
sg6
(lp374
g19
asg9
F0.59999999999999998
sg10
F-3.6400000000000001
sg11
g20
sg13
S' decan-1-ol'
p375
ssS'mobley_1659169'
p376
(dp377
g4
S'C1COCCN1'
p378
sg6
(lp379
g19
asg9
F0.59999999999999998
sg10
F-7.1699999999999999
sg11
g20
sg13
S' morpholine'
p380
ssS'mobley_9534740'
p381
(dp382
g4
S'C([C@@H]1[C@H]([C@@H]([C@H]([C@@H](O1)O)O)O)O)O'
p383
sg6
(lp384
g19
aS'Changed IUPAC name from d-glucose to (2R,3R,4S,5S,6R)-6-(hydroxymethyl)tetrahydropyran-2,3,4,5-tetrol for better handling/standardization.'
p385
asg9
F0.22
sg10
F-25.469999999999999
sg11
g247
sg13
S' d-glucose'
p386
ssS'mobley_994483'
p387
(dp388
g4
S'CCBr'
p389
sg6
(lp390
g19
asg9
F0.59999999999999998
sg10
F-0.73999999999999999
sg11
g20
sg13
S' bromoethane'
p391
ssS'mobley_1189457'
p392
(dp393
g4
S'CSc1ccccc1'
p394
sg6
(lp395
g19
asg9
F0.59999999999999998
sg10
F-2.73
sg11
g20
sg13
S' methylsulfanylbenzene'
p396
ssS'mobley_8260524'
p397
(dp398
g4
S'CC#C'
p399
sg6
(lp400
g19
asg9
F0.59999999999999998
sg10
F-0.47999999999999998
sg11
g20
sg13
S' prop-1-yne'
p401
ssS'mobley_646007'
p402
(dp403
g4
S'C1CCNC1'
p404
sg6
(lp405
g19
asg9
F0.59999999999999998
sg10
F-5.4800000000000004
sg11
g20
sg13
S' pyrrolidine'
p406
ssS'mobley_8436428'
p407
(dp408
g4
S'CC(C)CC(C)C'
p409
sg6
(lp410
g19
asg9
F0.59999999999999998
sg10
F2.8300000000000001
sg11
g20
sg13
S' 2,4-dimethylpentane'
p411
ssS'mobley_6804509'
p412
(dp413
g4
S'c1c(c(cc(c1Cl)Cl)Cl)Cl'
p414
sg6
(lp415
g19
asg9
F0.59999999999999998
sg10
F-1.3400000000000001
sg11
g20
sg13
S' 1,2,4,5-tetrachlorobenzene'
p416
ssS'mobley_6843802'
p417
(dp418
g4
S'c1ccc(cc1)O[C@@H](C(F)F)F'
p419
sg6
(lp420
S'Renamed mobley_6843802 from 1,2,2-trifluoroethoxybenzene to [(1R)-1,2,2-trifluoroethoxy]benzene (the name from the 3D structure) since the former did not completely specify stereochemistry.\n'
p421
asg9
F0.59999999999999998
sg10
F-1.29
sg11
S'J. Lu, 1994, Ph.D. Thesis, University of Western Ontario'
p422
sg13
S' 1,2,2-trifluoroethoxybenzene'
p423
ssS'mobley_1922649'
p424
(dp425
g4
S'COP(=S)(OC)Oc1ccc(cc1)[N+](=O)[O-]'
p426
sg6
(lp427
g19
aS'Changed IUPAC name from methyparathion to methylparathion for better handling/standardization.'
p428
asg9
F0.10000000000000001
sg10
F-7.1900000000000004
sg11
g107
sg13
S' methylparathion'
p429
ssS'mobley_632905'
p430
(dp431
g4
S'CC(=O)c1ccc(cc1)OC'
p432
sg6
(lp433
g19
asg9
F0.59999999999999998
sg10
F-4.4000000000000004
sg11
g20
sg13
S' 4-acetylanisole'
p434
ssS'mobley_4039055'
p435
(dp436
g4
S'c1c(c(=O)[nH]c(=O)[nH]1)Br'
p437
sg6
(lp438
g19
asg9
F0.55000000000000004
sg10
F-18.170000000000002
sg11
g247
sg13
S' 5-bromouracil'
p439
ssS'mobley_5346580'
p440
(dp441
g4
S'CC(=O)C(C)(C)C'
p442
sg6
(lp443
g19
asg9
F0.59999999999999998
sg10
F-3.1099999999999999
sg11
g20
sg13
S' 3,3-dimethylbutan-2-one'
p444
ssS'mobley_4683624'
p445
(dp446
g4
S'CCCc1ccc(cc1)O'
p447
sg6
(lp448
g19
aS'Experimental value updated 10/22/13 as the average of -5.90 and -4.52, which are measured experimental values from Varhanickova, D., Shiu, W., Mackay, D., J. Chem. Eng. Data 1995, 40, 448-451 and Terres, E., Gebert, F., Hulsemann, H., Petereit, H., Toepsch, H., Ruppert, W., Brennstoff-Chemie 1955, 36, 272-274., respectively. The uncertainty was taken as the standard deviation across these two measurements.\n'
p449
asg9
F0.68999999999999995
sg10
g155
(g157
S'\xd7\xa3p=\n\xd7\x14\xc0'
tRp450
sg11
S'10.1021/je00018a020 and Terres, E., Gebert, F., Hulsemann, H., Petereit, H., Toepsch, H., Ruppert, W., Brennstoff-Chemie 1955, 36, 272-274'
p451
sg13
S' 4-propylphenol'
p452
ssS'mobley_6619554'
p453
(dp454
g4
S'CCCCC(=O)OCC'
p455
sg6
(lp456
g19
asg9
F0.59999999999999998
sg10
F-2.4900000000000002
sg11
g20
sg13
S' ethyl pentanoate'
p457
ssS'mobley_3034976'
p458
(dp459
g4
S'CC(=O)O'
p460
sg6
(lp461
g19
asg9
F0.59999999999999998
sg10
F-6.6900000000000004
sg11
g20
sg13
S' acetic acid'
p462
ssS'mobley_8426916'
p463
(dp464
g4
S'CCNCC'
p465
sg6
(lp466
g19
asg9
F0.59999999999999998
sg10
F-4.0700000000000003
sg11
g20
sg13
S' N-ethylethanamine'
p467
ssS'mobley_550662'
p468
(dp469
g4
S'CC(OC)(OC)OC'
p470
sg6
(lp471
g19
asg9
F0.59999999999999998
sg10
F-4.4199999999999999
sg11
S'10.1021/ja00802a021'
p472
sg13
S' 1,1,1-trimethoxyethane'
p473
ssS'mobley_755351'
p474
(dp475
g4
S'COc1cccc(c1)N'
p476
sg6
(lp477
g19
asg9
F0.59999999999999998
sg10
F-7.29
sg11
g20
sg13
S' 3-methoxyaniline'
p478
ssS'mobley_2751110'
p479
(dp480
g4
S'c1cc(ccc1[N+](=O)[O-])O'
p481
sg6
(lp482
g19
asg9
F0.59999999999999998
sg10
F-10.640000000000001
sg11
g20
sg13
S' 4-nitrophenol'
p483
ssS'mobley_5977084'
p484
(dp485
g4
S'Cc1cccnc1'
p486
sg6
(lp487
g19
asg9
F0.59999999999999998
sg10
F-4.7699999999999996
sg11
g20
sg13
S' 3-methylpyridine'
p488
ssS'mobley_5816127'
p489
(dp490
g4
S'COCCO'
p491
sg6
(lp492
g19
aS'Updated 10/22/13 using the mean of experimental data from two sources listed as experimental references.\n'
p493
asg9
F0.40000000000000002
sg10
g155
(g157
S'z\x14\xaeG\xe1z\x1a\xc0'
tRp494
sg11
S'10.1007/BF00646936 and 10.1136/oem.45.8.561'
p495
sg13
S' 2-methoxyethanol'
p496
ssS'mobley_6257907'
p497
(dp498
g4
S'c1cc(cc(c1)Cl)N'
p499
sg6
(lp500
g19
asg9
F0.59999999999999998
sg10
F-5.8200000000000003
sg11
g20
sg13
S' 3-chloroaniline'
p501
ssS'mobley_1963873'
p502
(dp503
g4
S'CC(=O)NC'
p504
sg6
(lp505
g19
asg9
F0.59999999999999998
sg10
F-10
sg11
g20
sg13
S' N-methylacetamide'
p506
ssS'mobley_7015518'
p507
(dp508
g4
S'COC'
p509
sg6
(lp510
g19
asg9
F0.59999999999999998
sg10
F-1.9099999999999999
sg11
g20
sg13
S' methoxymethane'
p511
ssS'mobley_6195751'
p512
(dp513
g4
S'COc1c(c(c(c(c1Cl)C=O)Cl)OC)O'
p514
sg6
(lp515
g19
asg9
g155
(g157
S'R\xb8\x1e\x85\xebQ\xe8?'
tRp516
sg10
F-8.6799999999999997
sg11
g160
sg13
S' 2,6-dichlorosyringaldehyde'
p517
ssS'mobley_5390332'
p518
(dp519
g4
S'CCCC(=O)OC'
p520
sg6
(lp521
g19
asg9
F0.59999999999999998
sg10
F-2.8300000000000001
sg11
g20
sg13
S' methyl butanoate'
p522
ssS'mobley_1017962'
p523
(dp524
g4
S'CCCCCC(=O)OC'
p525
sg6
(lp526
g19
asg9
F0.59999999999999998
sg10
F-2.4900000000000002
sg11
g20
sg13
S' methyl hexanoate'
p527
ssS'mobley_5538249'
p528
(dp529
g4
S'c1ccc(cc1)c2c(cc(cc2Cl)Cl)Cl'
p530
sg6
(lp531
g19
asg9
F0.10000000000000001
sg10
F-2.1600000000000001
sg11
g123
sg13
S' 1,3,5-trichloro-2-phenyl-benzene'
p532
ssS'mobley_9741965'
p533
(dp534
g4
S'C[C@@H](CCON([O-])[O-])ON([O-])[O-]'
p535
sg6
(lp536
g19
asg9
g155
(g157
S'\xf6(\\\x8f\xc2\xf5\xd8?'
tRp537
sg10
g155
(g157
S')\\\x8f\xc2\xf5(\x11\xc0'
tRp538
sg11
g160
sg13
S' 1,3-bis-(nitrooxy)butane'
p539
ssS'mobley_5616693'
p540
(dp541
g4
S'C[C@@H]1CC[C@H](C(=O)C1)C(C)C'
p542
sg6
(lp543
g19
asg9
F0.25
sg10
F-2.5299999999999998
sg11
g160
sg13
S' i-menthone'
p544
ssS'mobley_9114381'
p545
(dp546
g4
S'COC(=O)CC#N'
p547
sg6
(lp548
g19
asg9
F0.59999999999999998
sg10
F-6.7199999999999998
sg11
g26
sg13
S' methyl 2-cyanoacetate'
p549
ssS'mobley_9209581'
p550
(dp551
g4
S'CN(C)C'
p552
sg6
(lp553
g19
asg9
F0.59999999999999998
sg10
F-3.2000000000000002
sg11
g20
sg13
S' N,N-dimethylmethanamine'
p554
ssS'mobley_1160109'
p555
(dp556
g4
S'C[C@@H]1CC[C@H](CC1=O)C(=C)C'
p557
sg6
(lp558
g19
asg9
F0.20999999999999999
sg10
F-3.75
sg11
g160
sg13
S' (E)-dihydrocarvone'
p559
ssS'mobley_3515580'
p560
(dp561
g4
S'COc1ccccc1O'
p562
sg6
(lp563
g19
asg9
g155
(g157
S'\x9a\x99\x99\x99\x99\x99\xb9?'
tRp564
sg10
g155
(g157
S'\xc3\xf5(\\\x8f\xc2\x17\xc0'
tRp565
sg11
g160
sg13
S' 2-methoxyphenol'
p566
ssS'mobley_1571523'
p567
(dp568
g4
S'Cc1cccc(c1C)O'
p569
sg6
(lp570
g19
asg9
F0.59999999999999998
sg10
F-6.1600000000000001
sg11
g20
sg13
S' 2,3-dimethylphenol'
p571
ssS'mobley_2023925'
p572
(dp573
g4
S'[C@@H](C(F)(F)F)(OC(F)F)Cl'
p574
sg6
(lp575
S'Renamed mobley_2023925 from 2-chloro-2-(difluoromethoxy)-1,1,1-trifluoro-ethane to (2R)-2-chloro-2-(difluoromethoxy)-1,1,1-trifluoro-ethane (the name from the 3D structure) since the former did not completely specify stereochemistry.\n'
p576
asg9
F0.59999999999999998
sg10
F0.10000000000000001
sg11
g20
sg13
S' isoflurane'
p577
ssS'mobley_2771569'
p578
(dp579
g4
S'CN1CCNCC1'
p580
sg6
(lp581
g19
asg9
F0.59999999999999998
sg10
F-7.7699999999999996
sg11
g20
sg13
S' 1-methylpiperazine'
p582
ssS'mobley_8785107'
p583
(dp584
g4
S'C[C@H]1CC[C@@H](O1)C'
p585
sg6
(lp586
S'Renamed mobley_8785107 from 2,5-dimethyltetrahydrofuran to (2S,5S)-2,5-dimethyltetrahydrofuran (the name from the 3D structure) since the former did not completely specify stereochemistry.\n'
p587
asg9
F0.59999999999999998
sg10
F-2.9199999999999999
sg11
g20
sg13
S' 2,5-dimethyltetrahydrofuran'
p588
ssS'mobley_2881590'
p589
(dp590
g4
S'CC(C)CO[N+](=O)[O-]'
p591
sg6
(lp592
g19
asg9
F0.10000000000000001
sg10
F-1.8799999999999999
sg11
g107
sg13
S' isobutyl nitrate'
p593
ssS'mobley_313406'
p594
(dp595
g4
S'CCCO'
p596
sg6
(lp597
g19
asg9
F0.59999999999999998
sg10
F-4.8499999999999996
sg11
g20
sg13
S' propan-1-ol'
p598
ssS'mobley_3274817'
p599
(dp600
g4
S'CC[C@@H](C)c1cc(cc(c1O)[N+](=O)[O-])[N+](=O)[O-]'
p601
sg6
(lp602
g19
aS'Changed IUPAC name from dinoseb to 2-[(1R)-1-methylpropyl]-4,6-dinitro-phenolate for better handling/standardization.'
p603
asg9
F1.9299999999999999
sg10
F-6.2300000000000004
sg11
g107
sg13
S' dinoseb'
p604
ssS'mobley_9979854'
p605
(dp606
g4
S'C[C@H](C(F)(F)F)O'
p607
sg6
(lp608
S'Renamed mobley_9979854 from 1,1,1-trifluoropropan-2-ol to (2R)-1,1,1-trifluoropropan-2-ol (the name from the 3D structure) since the former did not completely specify stereochemistry.\n'
p609
asg9
F0.20000000000000001
sg10
F-4.2000000000000002
sg11
g12
sg13
S' 111-trifluoropropan-2-ol'
p610
ssS'mobley_2126135'
p611
(dp612
g4
S'CCc1ccccc1O'
p613
sg6
(lp614
g19
asg9
g155
(g157
S'\x9a\x99\x99\x99\x99\x99\xb9?'
tRp615
sg10
g155
(g157
S'\xa4p=\n\xd7\xa3\x16\xc0'
tRp616
sg11
g160
sg13
S' 2-ethylphenol'
p617
ssS'mobley_6743808'
p618
(dp619
g4
S'Cc1ccc(cc1C)O'
p620
sg6
(lp621
g19
asg9
F0.59999999999999998
sg10
F-6.5
sg11
g20
sg13
S' 3,4-dimethylphenol'
p622
ssS'mobley_2493732'
p623
(dp624
g4
S'C=C(Cl)Cl'
p625
sg6
(lp626
g19
asg9
F0.59999999999999998
sg10
F0.25
sg11
g20
sg13
S' 1,1-dichloroethylene'
p627
ssS'mobley_9407874'
p628
(dp629
g4
S'CCCCCCC(=O)C'
p630
sg6
(lp631
g19
asg9
F0.59999999999999998
sg10
F-2.8799999999999999
sg11
g20
sg13
S' octan-2-one'
p632
ssS'mobley_7142697'
p633
(dp634
g4
S'CCCCCN'
p635
sg6
(lp636
g19
asg9
F0.59999999999999998
sg10
F-4.0899999999999999
sg11
g20
sg13
S' pentan-1-amine'
p637
ssS'mobley_1896013'
p638
(dp639
g4
S'C1[C@H]([C@@H]([C@H]([C@H](O1)O)O)O)O'
p640
sg6
(lp641
g19
aS'Changed IUPAC name from d-xylose to (2S,3R,4S,5R)-oxane-2,3,4,5-tetrol for better handling/standardization.'
p642
asg9
F0.27000000000000002
sg10
F-20.52
sg11
g247
sg13
S' xylose'
p643
ssS'mobley_49274'
p644
(dp645
g4
S'CCCCCC#C'
p646
sg6
(lp647
g19
asg9
F0.59999999999999998
sg10
F0.59999999999999998
sg11
g20
sg13
S' hept-1-yne'
p648
ssS'mobley_4694328'
p649
(dp650
g4
S'CCCCCCCC=O'
p651
sg6
(lp652
g19
asg9
F0.59999999999999998
sg10
F-2.29
sg11
g20
sg13
S' octanal'
p653
ssS'mobley_7913234'
p654
(dp655
g4
S'CCCCOC[C@H](C)O'
p656
sg6
(lp657
S'Renamed mobley_7913234 from 1-butoxy-2-propanol to (2S)-1-butoxypropan-2-ol (the name from the 3D structure) since the former did not completely specify stereochemistry.\n'
p658
asg9
g155
(g157
S'333333\xc3?'
tRp659
sg10
g155
(g157
S'\xecQ\xb8\x1e\x85\xeb\x16\xc0'
tRp660
sg11
g160
sg13
S' 1-butoxy-2-propanol'
p661
ssS'mobley_1178614'
p662
(dp663
g4
S'c1ccc(c(c1)O)Cl'
p664
sg6
(lp665
g19
asg9
F0.59999999999999998
sg10
F-4.5499999999999998
sg11
g20
sg13
S' 2-chlorophenol'
p666
ssS'mobley_951560'
p667
(dp668
g4
S'C1CNCCN1'
p669
sg6
(lp670
g19
asg9
F0.59999999999999998
sg10
F-7.4000000000000004
sg11
g20
sg13
S' piperazine'
p671
ssS'mobley_3211679'
p672
(dp673
g4
S'C1CCC=CC1'
p674
sg6
(lp675
g19
asg9
g155
(g157
S'\x9a\x99\x99\x99\x99\x99\xb9?'
tRp676
sg10
g155
(g157
S'\xecQ\xb8\x1e\x85\xeb\xc1?'
tRp677
sg11
g160
sg13
S' cyclohexene'
p678
ssS'mobley_6359156'
p679
(dp680
g4
S'c1ccc(cc1)c2cc(ccc2Cl)Cl'
p681
sg6
(lp682
g19
asg9
F0.10000000000000001
sg10
F-2.46
sg11
g123
sg13
S' 1,4-dichloro-2-phenyl-benzene'
p683
ssS'mobley_3234716'
p684
(dp685
g4
S'Cc1ccc(cc1)C'
p686
sg6
(lp687
g19
asg9
F0.59999999999999998
sg10
F-0.80000000000000004
sg11
g20
sg13
S' p-xylene'
p688
ssS'mobley_5286200'
p689
(dp690
g4
S'C(CCCl)CCl'
p691
sg6
(lp692
g19
asg9
F0.59999999999999998
sg10
F-2.3199999999999998
sg11
g20
sg13
S' 1,4-dichlorobutane'
p693
ssS'mobley_7988076'
p694
(dp695
g4
S'c1cc(ccc1C=O)O'
p696
sg6
(lp697
g19
asg9
F0.59999999999999998
sg10
F-8.8300000000000001
sg11
g20
sg13
S' 4-hydroxybenzaldehyde'
p698
ssS'mobley_6854178'
p699
(dp700
g4
S'CC(C)OC=O'
p701
sg6
(lp702
g19
asg9
F0.59999999999999998
sg10
F-2.02
sg11
g20
sg13
S' isopropyl formate'
p703
ssS'mobley_9617923'
p704
(dp705
g4
S'CCCCCCCCC(=O)C'
p706
sg6
(lp707
g19
asg9
F0.59999999999999998
sg10
F-2.3399999999999999
sg11
g20
sg13
S' decan-2-one'
p708
ssS'mobley_2402487'
p709
(dp710
g4
S'CCOC(=O)CC(=O)OCC'
p711
sg6
(lp712
g19
asg9
F0.59999999999999998
sg10
F-6
sg11
S'10.1139/v91-2'
p713
sg13
S' diethyl propanedioate'
p714
ssS'mobley_1235151'
p715
(dp716
g4
S'CCCCC[N+](=O)[O-]'
p717
sg6
(lp718
g19
asg9
F0.59999999999999998
sg10
F-2.8199999999999998
sg11
g20
sg13
S' 1-nitropentane'
p719
ssS'mobley_2689721'
p720
(dp721
g4
S'C1CCCCC1'
p722
sg6
(lp723
g19
asg9
F0.59999999999999998
sg10
F1.23
sg11
g20
sg13
S' cyclohexane'
p724
ssS'mobley_4613090'
p725
(dp726
g4
S'c1ccc(cc1)Cn2ccnc2'
p727
sg6
(lp728
g19
asg9
g155
(g157
S'\xb8\x1e\x85\xebQ\xb8\xbe?'
tRp729
sg10
g155
(g157
S'\x85\xebQ\xb8\x1e\x85\x1e\xc0'
tRp730
sg11
g160
sg13
S' 1-benzylimidazole'
p731
ssS'mobley_1838110'
p732
(dp733
g4
S'C(C(F)(Cl)Cl)(F)(F)Cl'
p734
sg6
(lp735
g19
asg9
F0.59999999999999998
sg10
F1.77
sg11
g20
sg13
S' 1,1,2-Trichlorotrifluoroethane'
p736
ssS'mobley_3083321'
p737
(dp738
g4
S'COCOC'
p739
sg6
(lp740
S'Topology and coordinate files re-generated 10/9/13 from original .mol2 files.'
p741
ag19
aS'Experimental uncertainty estimate updated to 0.2 as of v0.2 to match uncertainty estimate given in Nicholls et al. paper.\n'
p742
asg9
F0.20000000000000001
sg10
F-2.9300000000000002
sg11
S'10.1021/jm070549+'
p743
sg13
S' dimethoxymethane'
p744
ssS'mobley_3572203'
p745
(dp746
g4
S'CCCCCOC(=O)CC'
p747
sg6
(lp748
g19
asg9
F0.59999999999999998
sg10
F-2.1099999999999999
sg11
g20
sg13
S' pentyl propanoate'
p749
ssS'mobley_3843583'
p750
(dp751
g4
S'c1ccc2c(c1)cccc2N'
p752
sg6
(lp753
g19
asg9
F0.59999999999999998
sg10
F-7.2800000000000002
sg11
g20
sg13
S' naphthalen-1-amine'
p754
ssS'mobley_8127829'
p755
(dp756
g4
S'CCc1ccccc1'
p757
sg6
(lp758
g19
asg9
F0.59999999999999998
sg10
F-0.79000000000000004
sg11
g20
sg13
S' ethylbenzene'
p759
ssS'mobley_7983227'
p760
(dp761
g4
S'CC[C@@H](C)CO'
p762
sg6
(lp763
S'Renamed mobley_7983227 from 2-methylbutan-1-ol to (2R)-2-methylbutan-1-ol (the name from the 3D structure) since the former did not completely specify stereochemistry.\n'
p764
asg9
F0.59999999999999998
sg10
F-4.4199999999999999
sg11
g20
sg13
S' 2-methylbutan-1-ol'
p765
ssS'mobley_2390199'
p766
(dp767
g4
S'CCCC(=O)CCC'
p768
sg6
(lp769
g19
asg9
F0.59999999999999998
sg10
F-2.9199999999999999
sg11
g20
sg13
S' heptan-4-one'
p770
ssS'mobley_2960202'
p771
(dp772
g4
S'c1c2c(cc(c1Cl)Cl)Oc3c(c(c(c(c3Cl)Cl)Cl)Cl)O2'
p773
sg6
(lp774
g19
asg9
F1
sg10
F-3.71
sg11
g123
sg13
S' 1,2,3,4,7,8-hexachlorodibenzo-p-dioxin'
p775
ssS'mobley_5326154'
p776
(dp777
g4
S'CN(C)c1ccccc1'
p778
sg6
(lp779
g19
asg9
F0.59999999999999998
sg10
F-3.4500000000000002
sg11
g20
sg13
S' N,N-dimethylaniline'
p780
ssS'mobley_7176290'
p781
(dp782
g4
S'c1cc(cc(c1)O)[N+](=O)[O-]'
p783
sg6
(lp784
g19
asg9
F0.59999999999999998
sg10
F-9.6199999999999992
sg11
g20
sg13
S' 3-nitrophenol'
p785
ssS'mobley_6334915'
p786
(dp787
g4
S'COP(=O)([C@H](C(Cl)(Cl)Cl)O)OC'
p788
sg6
(lp789
g19
aS'Changed IUPAC name from trichlorfon to (1R)-2,2,2-trichloro-1-dimethoxyphosphoryl-ethanol for better handling/standardization.'
p790
asg9
F1.9299999999999999
sg10
F-12.74
sg11
g107
sg13
S' trichlorfon'
p791
ssS'mobley_6497672'
p792
(dp793
g4
S'C/C=C/C=O'
p794
sg6
(lp795
S'Renamed mobley_6497672 from but-2-enal to (E)-but-2-enal (the name from the 3D structure) since the former did not completely specify stereochemistry.\n'
p796
asg9
F0.59999999999999998
sg10
F-4.2199999999999998
sg11
g20
sg13
S' but-2-enal'
p797
ssS'mobley_5665561'
p798
(dp799
g4
S'Cc1cc(c2ccccc2c1)C'
p800
sg6
(lp801
g19
asg9
F0.59999999999999998
sg10
F-2.4700000000000002
sg11
g20
sg13
S' 1,3-dimethylnaphthalene'
p802
ssS'mobley_4850657'
p803
(dp804
g4
S'CS(=O)(=O)Cl'
p805
sg6
(lp806
g19
asg9
F0.59999999999999998
sg10
F-4.8700000000000001
sg11
S'10.1139/v98-084'
p807
sg13
S' methanesulfonyl chloride'
p808
ssS'mobley_8809190'
p809
(dp810
g4
S'CCCCc1ccccc1'
p811
sg6
(lp812
g19
asg9
F0.59999999999999998
sg10
F-0.40000000000000002
sg11
g20
sg13
S' butylbenzene'
p813
ssS'mobley_1743409'
p814
(dp815
g4
S'CCOC(=O)CCC(=O)OCC'
p816
sg6
(lp817
g19
asg9
F0.59999999999999998
sg10
F-5.71
sg11
g713
sg13
S' diethyl butanedioate'
p818
ssS'mobley_900088'
p819
(dp820
g4
S'CC(=C)C(=C)C'
p821
sg6
(lp822
g19
asg9
F0.59999999999999998
sg10
F0.40000000000000002
sg11
g20
sg13
S' 2,3-dimethylbuta-1,3-diene'
p823
ssS'mobley_5759258'
p824
(dp825
g4
S'CCCCCO'
p826
sg6
(lp827
g19
asg9
F0.59999999999999998
sg10
F-4.5700000000000003
sg11
g20
sg13
S' pentan-1-ol'
p828
ssS'mobley_7608435'
p829
(dp830
g4
S'CCCCCCCC(=O)OC'
p831
sg6
(lp832
g19
asg9
F0.59999999999999998
sg10
F-2.04
sg11
g20
sg13
S' methyl octanoate'
p833
ssS'mobley_3006808'
p834
(dp835
g4
S'C(C(F)(F)F)O'
p836
sg6
(lp837
g19
asg9
F0.59999999999999998
sg10
F-4.3099999999999996
sg11
S'10.1039/F19736901577'
p838
sg13
S' 2,2,2-trifluoroethanol'
p839
ssS'mobley_6303022'
p840
(dp841
g4
S'CCc1ccncc1'
p842
sg6
(lp843
g19
asg9
F0.59999999999999998
sg10
F-4.7300000000000004
sg11
g20
sg13
S' 4-ethylpyridine'
p844
ssS'mobley_7047032'
p845
(dp846
g4
S'CC(C)(C)Cl'
p847
sg6
(lp848
g19
asg9
F0.59999999999999998
sg10
F1.0900000000000001
sg11
g20
sg13
S' 2-chloro-2-methyl-propane'
p849
ssS'mobley_1708457'
p850
(dp851
g4
S'CS(=O)(=O)C'
p852
sg6
(lp853
g19
asg9
F0.59999999999999998
sg10
F-10.08
sg11
S'J. Peter Guthrie, unpublished data, as provided to D. Mobley 2007/2008, and as cited in 10.1021/jp0764384'
p854
sg13
S' methylsulfonylmethane'
p855
ssS'mobley_1079207'
p856
(dp857
g4
S'c1cc(cc(c1)Cl)Cl'
p858
sg6
(lp859
g19
asg9
F0.59999999999999998
sg10
F-0.97999999999999998
sg11
g20
sg13
S' 1,3-dichlorobenzene'
p860
ssS'mobley_486214'
p861
(dp862
g4
S'COc1cccc(c1O)OC'
p863
sg6
(lp864
g19
asg9
g155
(g157
S'\x9a\x99\x99\x99\x99\x99\xb9?'
tRp865
sg10
g155
(g157
S'\xd7\xa3p=\n\xd7\x1b\xc0'
tRp866
sg11
g160
sg13
S' 2,6-dimethoxyphenol'
p867
ssS'mobley_8573194'
p868
(dp869
g4
S'CCCC=O'
p870
sg6
(lp871
g19
asg9
F0.59999999999999998
sg10
F-3.1800000000000002
sg11
g20
sg13
S' butanal'
p872
ssS'mobley_7375018'
p873
(dp874
g4
S'CCCCCCCCCC(=O)C'
p875
sg6
(lp876
g19
asg9
F0.59999999999999998
sg10
F-2.1499999999999999
sg11
g20
sg13
S' undecan-2-one'
p877
ssS'mobley_4792268'
p878
(dp879
g4
S'CCCCC(=O)O'
p880
sg6
(lp881
g19
asg9
F0.59999999999999998
sg10
F-6.1600000000000001
sg11
g20
sg13
S' pentanoic acid'
p882
ssS'mobley_1520842'
p883
(dp884
g4
S'Cc1ccncc1'
p885
sg6
(lp886
g19
asg9
F0.59999999999999998
sg10
F-4.9299999999999997
sg11
g20
sg13
S' 4-methylpyridine'
p887
ssS'mobley_5520946'
p888
(dp889
g4
S'c1ccc(cc1)S'
p890
sg6
(lp891
g19
asg9
F0.59999999999999998
sg10
F-2.5499999999999998
sg11
g20
sg13
S' benzenethiol'
p892
ssS'mobley_2005792'
p893
(dp894
g4
S'c1ccc(cc1)c2ccccc2'
p895
sg6
(lp896
g8
aS'Changed IUPAC name from biphenyle to biphenyl for better handling/standardization.'
p897
asg9
F0.20000000000000001
sg10
F-2.7000000000000002
sg11
g12
sg13
S' biphenyl'
p898
ssS'mobley_7688753'
p899
(dp900
g4
S'c1cc(cc(c1)O)C=O'
p901
sg6
(lp902
g19
aS"Experimental value updated 10/22/13 from J. Peter Guthrie's examination of published data. A range of values -7.48 to -9.52 seem possible, but the original experimental data has not yet been located. More work is needed.\n"
p903
asg9
F1.8999999999999999
sg10
F-9.5199999999999996
sg11
g20
sg13
S' 3-hydroxybenzaldehyde'
p904
ssS'mobley_7860938'
p905
(dp906
g4
S'CCCCNCCCC'
p907
sg6
(lp908
g19
asg9
F0.59999999999999998
sg10
F-3.2400000000000002
sg11
g20
sg13
S' N-butylbutan-1-amine'
p909
ssS'mobley_4780078'
p910
(dp911
g4
S'Cc1ccc(c(c1)C)O'
p912
sg6
(lp913
g19
asg9
F0.59999999999999998
sg10
F-6.0099999999999998
sg11
g20
sg13
S' 2,4-dimethylphenol'
p914
ssS'mobley_3709920'
p915
(dp916
g4
S'CCCCCCCC=C'
p917
sg6
(lp918
g19
asg9
F0.59999999999999998
sg10
F2.0600000000000001
sg11
g20
sg13
S' non-1-ene'
p919
ssS'mobley_7542832'
p920
(dp921
g4
S'CCCOCCC'
p922
sg6
(lp923
g19
asg9
F0.59999999999999998
sg10
F-1.1599999999999999
sg11
g20
sg13
S' 1-propoxypropane'
p924
ssS'mobley_2492140'
p925
(dp926
g4
S'C(C(Cl)(Cl)Cl)(Cl)Cl'
p927
sg6
(lp928
g19
asg9
F0.10000000000000001
sg10
F-1.23
sg11
g123
sg13
S' 1,1,1,2,2-pentachloroethane'
p929
ssS'mobley_8899867'
p930
(dp931
g4
S'C1CCC(C1)O'
p932
sg6
(lp933
g19
asg9
F0.59999999999999998
sg10
F-5.4900000000000002
sg11
g20
sg13
S' cyclopentanol'
p934
ssS'mobley_5371840'
p935
(dp936
g4
S'c1ccc2c(c1)Oc3ccc(cc3O2)Cl'
p937
sg6
(lp938
g19
asg9
F0.10000000000000001
sg10
F-3.1000000000000001
sg11
g123
sg13
S' 2-chlorodibenzo-p-dioxin'
p939
ssS'mobley_2929847'
p940
(dp941
g4
S'CC(C)CC(=O)O'
p942
sg6
(lp943
g19
asg9
F0.59999999999999998
sg10
F-6.0899999999999999
sg11
g20
sg13
S' 3-methylbutanoic acid'
p944
ssS'mobley_8006582'
p945
(dp946
g4
S'C1CCCC1'
p947
sg6
(lp948
g19
asg9
F0.59999999999999998
sg10
F1.2
sg11
g20
sg13
S' cyclopentane'
p949
ssS'mobley_2146331'
p950
(dp951
g4
S'C=O'
p952
sg6
(lp953
g19
aS'Formaldehyde is covalently hydrated in water. Our value here is the true free energy of hydration (based on the concentration of formaldehyde in gas vs in water) as opposed to the apparent one. See Guthrie, J. P., J. Am. Chem. Soc. 2000, 122, 5529-5538.\n'
p954
asg9
F0.59999999999999998
sg10
F-2.75
sg11
g20
sg13
S' formaldehyde'
p955
ssS'mobley_2099370'
p956
(dp957
g4
S'C[C@@H](c1cccc(c1)C(=O)c2ccccc2)C(=O)O'
p958
sg6
(lp959
S'Renamed mobley_2099370 from ketoprofen to (2S)-2-(3-benzoylphenyl)propanoic acid (the name from the 3D structure) since the former did not completely specify stereochemistry.\n'
p960
asg9
F0.17999999999999999
sg10
F-10.779999999999999
sg11
g247
sg13
S' ketoprofen'
p961
ssS'mobley_1781152'
p962
(dp963
g4
S'CC(C)(C)C(=O)OC'
p964
sg6
(lp965
g19
asg9
F0.59999999999999998
sg10
F-2.3999999999999999
sg11
g20
sg13
S' methyl 2,2-dimethylpropanoate'
p966
ssS'mobley_3968043'
p967
(dp968
g4
S'C1CCC(=O)C1'
p969
sg6
(lp970
g19
asg9
F0.59999999999999998
sg10
F-4.7000000000000002
sg11
g20
sg13
S' cyclopentanone'
p971
ssS'mobley_3323117'
p972
(dp973
g4
S'C1CC[S+2](C1)([O-])[O-]'
p974
sg6
(lp975
g19
asg9
F0.31
sg10
F-8.6099999999999994
sg11
g247
sg13
S' sulfolane'
p976
ssS'mobley_4043951'
p977
(dp978
g4
S'CCCC=C'
p979
sg6
(lp980
g19
asg9
F0.59999999999999998
sg10
F1.6799999999999999
sg11
g20
sg13
S' pent-1-ene'
p981
ssS'mobley_8705848'
p982
(dp983
g4
S'CC(C)NC(C)C'
p984
sg6
(lp985
g19
asg9
F0.59999999999999998
sg10
F-3.2200000000000002
sg11
g20
sg13
S' 2-Propanamine'
p986
ssS'mobley_2484519'
p987
(dp988
g4
S'c1ccc(cc1)CCl'
p989
sg6
(lp990
g741
ag19
ag742
asg9
F0.20000000000000001
sg10
F-1.9299999999999999
sg11
g743
sg13
S' benzyl chloride'
p991
ssS'mobley_547634'
p992
(dp993
g4
S'Cc1cc2ccccc2cc1C'
p994
sg6
(lp995
g19
asg9
F0.59999999999999998
sg10
F-2.7799999999999998
sg11
g20
sg13
S' 2,3-dimethylnaphthalene'
p996
ssS'mobley_8311321'
p997
(dp998
g4
S'C(F)(F)Cl'
p999
sg6
(lp1000
g19
asg9
F0.59999999999999998
sg10
F-0.5
sg11
g20
sg13
S' chloro-difluoro-methane'
p1001
ssS'mobley_3318135'
p1002
(dp1003
g4
S'CCCCC(=O)CCCC'
p1004
sg6
(lp1005
g19
asg9
F0.59999999999999998
sg10
F-2.6400000000000001
sg11
g20
sg13
S' nonan-5-one'
p1006
ssS'mobley_3761215'
p1007
(dp1008
g4
S'CC(Cl)(Cl)Cl'
p1009
sg6
(lp1010
g19
asg9
F0.59999999999999998
sg10
F-0.19
sg11
g20
sg13
S' 1,1,1-trichloroethane'
p1011
ssS'mobley_3047364'
p1012
(dp1013
g4
S'CCNc1nc(nc(n1)SC)NC(C)C'
p1014
sg6
(lp1015
g19
aS'Changed IUPAC name from ametryn to 2-N-ethyl-6-(methylsulfanyl)-4-N-(propan-2-yl)-1,3,5-triazine-2,4-diamine for better handling/standardization.'
p1016
asg9
F0.45000000000000001
sg10
F-7.6500000000000004
sg11
g107
sg13
S' ametryne'
p1017
ssS'mobley_3183805'
p1018
(dp1019
g4
S'Cc1ccc(c(c1)C)C'
p1020
sg6
(lp1021
g19
asg9
F0.59999999999999998
sg10
F-0.85999999999999999
sg11
g20
sg13
S' 1,2,4-trimethylbenzene'
p1022
ssS'mobley_1717215'
p1023
(dp1024
g4
S'COC=O'
p1025
sg6
(lp1026
g19
asg9
F0.59999999999999998
sg10
F-2.7799999999999998
sg11
g20
sg13
S' methyl formate'
p1027
ssS'mobley_5600967'
p1028
(dp1029
g4
S'CN(C)C(=O)c1ccc(cc1)OC'
p1030
sg6
(lp1031
g19
asg9
F0.59999999999999998
sg10
F-11.01
sg11
g359
sg13
S' 4-methoxy-N,N-dimethyl-benzamide'
p1032
ssS'mobley_6794076'
p1033
(dp1034
g4
S'CC(=O)c1ccncc1'
p1035
sg6
(lp1036
g19
asg9
F0.59999999999999998
sg10
F-7.6200000000000001
sg11
g20
sg13
S' 1-(4-pyridyl)ethanone'
p1037
ssS'mobley_6055410'
p1038
(dp1039
g4
S'c1cc(c(cc1c2ccc(cc2F)F)C(=O)O)O'
p1040
sg6
(lp1041
g19
asg9
F0.20000000000000001
sg10
F-9.4000000000000004
sg11
g247
sg13
S' diflunisal'
p1042
ssS'mobley_7455579'
p1043
(dp1044
g4
S'CC(C)COC=O'
p1045
sg6
(lp1046
g19
asg9
F0.59999999999999998
sg10
F-2.2200000000000002
sg11
g20
sg13
S' isobutyl formate'
p1047
ssS'mobley_7393673'
p1048
(dp1049
g4
S'COc1ccc(cc1)C(=O)OC'
p1050
sg6
(lp1051
g19
asg9
F0.59999999999999998
sg10
F-5.3300000000000001
sg11
g359
sg13
S' methyl 4-methoxybenzoate'
p1052
ssS'mobley_7676709'
p1053
(dp1054
g4
S'CC1=CC(=O)[C@@H](CC1)C(C)C'
p1055
sg6
(lp1056
S'Renamed mobley_7676709 from 6-isopropyl-3-methyl-1-cyclohex-2-enone to (6S)-6-isopropyl-3-methyl-cyclohex-2-en-1-one (the name from the 3D structure) since the former did not completely specify stereochemistry.\n'
p1057
asg9
F0.10000000000000001
sg10
F-4.5099999999999998
sg11
g160
sg13
S' d-piperitone'
p1058
ssS'mobley_2845466'
p1059
(dp1060
g4
S'c1c2c(cc(c1Cl)Cl)Oc3cc(c(cc3O2)Cl)Cl'
p1061
sg6
(lp1062
g19
asg9
F1
sg10
F-3.3700000000000001
sg11
g123
sg13
S' 2,3,7,8-tetrachlorodibenzo-p-dioxin'
p1063
ssS'mobley_9197172'
p1064
(dp1065
g4
S'CCCCCCC=C'
p1066
sg6
(lp1067
g19
asg9
F0.59999999999999998
sg10
F1.9199999999999999
sg11
g20
sg13
S' oct-1-ene'
p1068
ssS'mobley_9055303'
p1069
(dp1070
g4
S'C'
sg6
(lp1071
g8
asg9
F0.20000000000000001
sg10
F2
sg11
g12
sg13
S' methane'
p1072
ssS'mobley_6935906'
p1073
(dp1074
g4
S'CC(=CCC[C@](C)(C=C)OC(=O)C)C'
p1075
sg6
(lp1076
g19
asg9
g155
(g157
S'333333\xeb?'
tRp1077
sg10
g155
(g157
S'\xecQ\xb8\x1e\x85\xeb\x03\xc0'
tRp1078
sg11
g160
sg13
S' AC1L9CWH'
p1079
ssS'mobley_7239499'
p1080
(dp1081
g4
S'c1ccc2c(c1)Oc3cccc(c3O2)Cl'
p1082
sg6
(lp1083
g19
asg9
F0.10000000000000001
sg10
F-3.52
sg11
g123
sg13
S' 1-chlorodibenzo-p-dioxin'
p1084
ssS'mobley_4193752'
p1085
(dp1086
g4
S'c1ccc(cc1)[N+](=O)[O-]'
p1087
sg6
(lp1088
g19
asg9
F0.59999999999999998
sg10
F-4.1200000000000001
sg11
g20
sg13
S' nitrobenzene'
p1089
ssS'mobley_2844990'
p1090
(dp1091
g4
S'c1cc2c(cc1Cl)Oc3cc(c(c(c3O2)Cl)Cl)Cl'
p1092
sg6
(lp1093
g19
asg9
F1
sg10
F-3.8399999999999999
sg11
g123
sg13
S' 1,2,3,7-tetrachlorodibenzo-p-dioxin'
p1094
ssS'mobley_2925352'
p1095
(dp1096
g4
S'Cc1ccc(cc1)O'
p1097
sg6
(lp1098
g19
asg9
F0.59999999999999998
sg10
F-6.1299999999999999
sg11
g20
sg13
S' p-cresol'
p1099
ssS'mobley_4934872'
p1100
(dp1101
g4
S'CCOC(OCC)Oc1ccccc1'
p1102
sg6
(lp1103
g19
asg9
F0.59999999999999998
sg10
F-5.2300000000000004
sg11
g854
sg13
S' diethoxymethoxybenzene'
p1104
ssS'mobley_1923244'
p1105
(dp1106
g4
S'CCCC'
p1107
sg6
(lp1108
g8
asg9
F0.20000000000000001
sg10
F2.1000000000000001
sg11
g12
sg13
S' n-butane'
p1109
ssS'mobley_3690931'
p1110
(dp1111
g4
S'CCCC(=O)OCCC'
p1112
sg6
(lp1113
g19
asg9
F0.59999999999999998
sg10
F-2.2799999999999998
sg11
g20
sg13
S' propyl butanoate'
p1114
ssS'mobley_6359135'
p1115
(dp1116
g4
S'C(Cl)(Cl)(Cl)Cl'
p1117
sg6
(lp1118
g19
asg9
F0.59999999999999998
sg10
F0.080000000000000002
sg11
g20
sg13
S' carbon tetrachloride'
p1119
ssS'mobley_1857976'
p1120
(dp1121
g4
S'C(CCl)Cl'
p1122
sg6
(lp1123
g19
asg9
F0.59999999999999998
sg10
F-1.79
sg11
g20
sg13
S' 1,2-dichloroethane'
p1124
ssS'mobley_2068538'
p1125
(dp1126
g4
S'CCC'
p1127
sg6
(lp1128
g8
asg9
F0.20000000000000001
sg10
F2
sg11
g12
sg13
S' propane'
p1129
ssS'mobley_52782'
p1130
(dp1131
g4
S'C(CO[N+](=O)[O-])O[N+](=O)[O-]'
p1132
sg6
(lp1133
g19
aS'Changed IUPAC name from nitroglycol to 1,2-dinitroxyethane for better handling/standardization.'
p1134
asg9
F0.10000000000000001
sg10
F-5.7300000000000004
sg11
g107
sg13
S' 1,2-dinitroxyethane'
p1135
ssS'mobley_4584540'
p1136
(dp1137
g4
S'Cc1cccc(n1)C'
p1138
sg6
(lp1139
g19
asg9
F0.59999999999999998
sg10
F-4.5899999999999999
sg11
g20
sg13
S' 2,6-dimethylpyridine'
p1140
ssS'mobley_7573149'
p1141
(dp1142
g4
S'CCCOC(=O)C'
p1143
sg6
(lp1144
g19
asg9
F0.59999999999999998
sg10
F-2.79
sg11
g20
sg13
S' propyl acetate'
p1145
ssS'mobley_7758918'
p1146
(dp1147
g4
S'CCC(=O)O'
p1148
sg6
(lp1149
g19
asg9
F0.59999999999999998
sg10
F-6.46
sg11
g20
sg13
S' propionic acid'
p1150
ssS'mobley_2763835'
p1151
(dp1152
g4
S'CCOc1ccccc1'
p1153
sg6
(lp1154
g19
asg9
F0.59999999999999998
sg10
F-2.2200000000000002
sg11
g20
sg13
S' ethoxybenzene'
p1155
ssS'mobley_4218209'
p1156
(dp1157
g4
S'COc1ccc(cc1)N'
p1158
sg6
(lp1159
g19
asg9
F0.59999999999999998
sg10
F-7.4800000000000004
sg11
g20
sg13
S' 4-methoxyaniline'
p1160
ssS'mobley_2727678'
p1161
(dp1162
g4
S'c1c(c(=O)[nH]c(=O)[nH]1)I'
p1163
sg6
(lp1164
g19
asg9
F0.64000000000000001
sg10
F-18.719999999999999
sg11
g247
sg13
S' 5-iodouracil'
p1165
ssS'mobley_6973347'
p1166
(dp1167
g4
S'CCOC(=O)C'
p1168
sg6
(lp1169
g19
asg9
F0.59999999999999998
sg10
F-2.9399999999999999
sg11
g20
sg13
S' ethyl acetate'
p1170
ssS'mobley_6175884'
p1171
(dp1172
g4
S'Cc1ccc(cc1)C=O'
p1173
sg6
(lp1174
g19
asg9
F0.59999999999999998
sg10
F-4.2699999999999996
sg11
g20
sg13
S' 4-methylbenzaldehyde'
p1175
ssS'mobley_6235784'
p1176
(dp1177
g4
S'CC[C@H](C)Cl'
p1178
sg6
(lp1179
S'Renamed mobley_6235784 from 2-chlorobutane to (2S)-2-chlorobutane (the name from the 3D structure) since the former did not completely specify stereochemistry.\n'
p1180
asg9
F0.59999999999999998
sg10
F0
sg11
g20
sg13
S' 2-chlorobutane'
p1181
ssS'mobley_5026370'
p1182
(dp1183
g4
S'c1cnccc1C#N'
p1184
sg6
(lp1185
g19
asg9
F0.59999999999999998
sg10
F-6.0199999999999996
sg11
g20
sg13
S' pyridine-4-carbonitrile'
p1186
ssS'mobley_3762186'
p1187
(dp1188
g4
S'C(Cl)Cl'
p1189
sg6
(lp1190
g19
asg9
F0.59999999999999998
sg10
F-1.3100000000000001
sg11
g20
sg13
S' dichloromethane'
p1191
ssS'mobley_1977493'
p1192
(dp1193
g4
S'CCCCl'
p1194
sg6
(lp1195
g19
asg9
F0.59999999999999998
sg10
F-0.33000000000000002
sg11
g20
sg13
S' 1-chloropropane'
p1196
ssS'mobley_1396156'
p1197
(dp1198
g4
S'c1(c(c(c(c(c1Cl)Cl)Cl)Cl)Cl)N(=O)=O'
p1199
sg6
(lp1200
g19
asg9
F0.25
sg10
F-5.2199999999999998
sg11
g247
sg13
S' pentachloronitrobenzene'
p1201
ssS'mobley_9507933'
p1202
(dp1203
g4
S'Cc1ccc(nc1)C'
p1204
sg6
(lp1205
g19
asg9
F0.59999999999999998
sg10
F-4.7199999999999998
sg11
g20
sg13
S' 2,5-dimethylpyridine'
p1206
ssS'mobley_9913368'
p1207
(dp1208
g4
S'C(=C/Cl)\\Cl'
p1209
sg6
(lp1210
S'Renamed mobley_9913368 from (E)-1,2-dichloroethylene to (E)-1,2-dichloroethylene (the name from the 3D structure) since the former did not completely specify stereochemistry.\n'
p1211
asg9
F0.59999999999999998
sg10
F-0.78000000000000003
sg11
g20
sg13
S' (E)-1,2-dichloroethylene'
p1212
ssS'mobley_3167746'
p1213
(dp1214
g4
S'CCCCCCCC'
p1215
sg6
(lp1216
g19
asg9
F0.59999999999999998
sg10
F2.8799999999999999
sg11
g20
sg13
S' octane'
p1217
ssS'mobley_2725802'
p1218
(dp1219
g4
S'CC(=O)N1CCCC1'
p1220
sg6
(lp1221
g19
asg9
F0.59999999999999998
sg10
F-9.8000000000000007
sg11
g20
sg13
S' 1-pyrrolidin-1-ylethanone'
p1222
ssS'mobley_7912193'
p1223
(dp1224
g4
S'CCCCOC(=O)c1ccc(cc1)O'
p1225
sg6
(lp1226
g19
asg9
F0.27000000000000002
sg10
F-8.7200000000000006
sg11
g247
sg13
S' butyl paraben'
p1227
ssS'mobley_242480'
p1228
(dp1229
g4
S'c1ccc2c(c1)C(=O)c3c(ccc(c3C2=O)N)N'
p1230
sg6
(lp1231
g19
asg9
g155
(g157
S'ffffff\xd6?'
tRp1232
sg10
g155
(g157
S"33333\xb3'\xc0"
tRp1233
sg11
g160
sg13
S' disperse violet'
p1234
ssS'mobley_5445548'
p1235
(dp1236
g4
S'CC(C)c1ccccc1'
p1237
sg6
(lp1238
g19
asg9
F0.59999999999999998
sg10
F-0.29999999999999999
sg11
g20
sg13
S' cumene'
p1239
ssS'mobley_8823527'
p1240
(dp1241
g4
S'c1cc(c(cc1Cl)c2cc(c(c(c2)Cl)Cl)Cl)Cl'
p1242
sg6
(lp1243
g19
asg9
F0.13
sg10
F-3.6099999999999999
sg11
g123
sg13
S" 2,3',4',5,5'-pentachloro-biphenyl"
p1244
ssS'mobley_1019269'
p1245
(dp1246
g4
S'CCCCO'
p1247
sg6
(lp1248
g19
asg9
F0.59999999999999998
sg10
F-4.7199999999999998
sg11
g20
sg13
S' butan-1-ol'
p1249
ssS'mobley_1755375'
p1250
(dp1251
g4
S'Cc1cccc(c1O)C'
p1252
sg6
(lp1253
g19
asg9
F0.59999999999999998
sg10
F-5.2599999999999998
sg11
g20
sg13
S' 2,6-dimethylphenol'
p1254
ssS'mobley_4371692'
p1255
(dp1256
g4
S'c1ccc2c(c1)C(=O)c3c(ccc(c3C2=O)O)N'
p1257
sg6
(lp1258
g19
asg9
g155
(g157
S'\xecQ\xb8\x1e\x85\xeb\xd1?'
tRp1259
sg10
g155
(g157
S'\x8f\xc2\xf5(\\\x0f#\xc0'
tRp1260
sg11
g160
sg13
S' 1-amino-4-hydroxyanthraquinone'
p1261
ssS'mobley_1139153'
p1262
(dp1263
g4
S'CC(C)CC(C)(C)C'
p1264
sg6
(lp1265
g19
asg9
F0.59999999999999998
sg10
F2.8900000000000001
sg11
g20
sg13
S' 2,2,4-trimethylpentane'
p1266
ssS'mobley_5471704'
p1267
(dp1268
g4
S'CC(C)CCOC(=O)C'
p1269
sg6
(lp1270
g19
asg9
F0.59999999999999998
sg10
F-2.21
sg11
g20
sg13
S' isopentyl acetate'
p1271
ssS'mobley_6060301'
p1272
(dp1273
g4
S'CCCCCCN'
p1274
sg6
(lp1275
g19
asg9
F0.59999999999999998
sg10
F-3.9500000000000002
sg11
g20
sg13
S' hexan-1-amine'
p1276
ssS'mobley_588781'
p1277
(dp1278
g4
S'CCCCCCc1ccccc1'
p1279
sg6
(lp1280
g19
asg9
F0.59999999999999998
sg10
F-0.040000000000000001
sg11
g20
sg13
S' hexylbenzene'
p1281
ssS'mobley_2354112'
p1282
(dp1283
g4
S'CCc1cccc(c1)O'
p1284
sg6
(lp1285
g19
asg9
F0.59999999999999998
sg10
F-6.25
sg11
g20
sg13
S' 3-ethylphenol'
p1286
ssS'mobley_6896128'
p1287
(dp1288
g4
S'CCCC[C@@H](C)CC'
p1289
sg6
(lp1290
S'Renamed mobley_6896128 from 3-methylheptane to (3S)-3-methylheptane (the name from the 3D structure) since the former did not completely specify stereochemistry.\n'
p1291
asg9
F0.59999999999999998
sg10
F2.9700000000000002
sg11
g20
sg13
S' 3-methylheptane'
p1292
ssS'mobley_8772587'
p1293
(dp1294
g4
S'CCCCI'
p1295
sg6
(lp1296
g19
asg9
F0.59999999999999998
sg10
F-0.25
sg11
g20
sg13
S' 1-iodobutane'
p1297
ssS'mobley_5456566'
p1298
(dp1299
g4
S'c1(c(c(c(c(c1Cl)Cl)Cl)Cl)Cl)c2c(c(c(c(c2Cl)Cl)Cl)Cl)Cl'
p1300
sg6
(lp1301
g19
asg9
F1
sg10
F-2.98
sg11
g123
sg13
S' decachlorobiphenyl'
p1302
ssS'mobley_2371092'
p1303
(dp1304
g4
S'Cc1ccncc1C'
p1305
sg6
(lp1306
g19
asg9
F0.59999999999999998
sg10
F-5.2199999999999998
sg11
g20
sg13
S' 3,4-dimethylpyridine'
p1307
ssS'mobley_1328936'
p1308
(dp1309
g4
S'COC(=O)c1ccc(cc1)[N+](=O)[O-]'
p1310
sg6
(lp1311
g19
asg9
F0.59999999999999998
sg10
F-6.8799999999999999
sg11
g359
sg13
S' methyl 4-nitrobenzoate'
p1312
ssS'mobley_5499659'
p1313
(dp1314
g4
S'Cn1ccnc1'
p1315
sg6
(lp1316
g19
asg9
F0.59999999999999998
sg10
F-8.4100000000000001
sg11
g20
sg13
S' 1-methylimidazole'
p1317
ssS'mobley_2792521'
p1318
(dp1319
g4
S'CCC/C=C/C=O'
p1320
sg6
(lp1321
S'Renamed mobley_2792521 from hex-2-enal to (E)-hex-2-enal (the name from the 3D structure) since the former did not completely specify stereochemistry.\n'
p1322
aS'Experimental value provided by J. Peter Guthrie, University of Western Ontario, 10/23/2013, as a weighted average of the Buttery et al. and Karl et al. values noted in the experimental reference field.'
p1323
asg9
F0.59999999999999998
sg10
F-3.6800000000000002
sg11
S'10.1021/jf60178a004 and 10.1016/S1387-3806(02)00927-2'
p1324
sg13
S' (2E)-hex-2-enal'
p1325
ssS'mobley_9974966'
p1326
(dp1327
g4
S'CC(C)SC(C)C'
p1328
sg6
(lp1329
g19
asg9
F0.59999999999999998
sg10
F-1.21
sg11
g20
sg13
S' 2-isopropylsulfanylpropane'
p1330
ssS'mobley_6733657'
p1331
(dp1332
g4
S'C1[C@H]([C@@H]2[C@H]([C@H]1Cl)[C@]3(C(=C([C@@]2(C3(Cl)Cl)Cl)Cl)Cl)Cl)Cl'
p1333
sg6
(lp1334
g19
asg9
F0.10000000000000001
sg10
F-3.4399999999999999
sg11
g107
sg13
S' chlordane'
p1335
ssS'mobley_9121449'
p1336
(dp1337
g4
S'CCC#C'
p1338
sg6
(lp1339
g19
asg9
F0.59999999999999998
sg10
F-0.16
sg11
g20
sg13
S' but-1-yne'
p1340
ssS'mobley_2310185'
p1341
(dp1342
g4
S'CCO'
p1343
sg6
(lp1344
g19
asg9
F0.59999999999999998
sg10
F-5
sg11
g20
sg13
S' ethanol'
p1345
ssS'mobley_7099614'
p1346
(dp1347
g4
S'C=CCCl'
p1348
sg6
(lp1349
g19
asg9
F0.59999999999999998
sg10
F-0.56999999999999995
sg11
g20
sg13
S' 3-chloroprop-1-ene'
p1350
ssS'mobley_7295828'
p1351
(dp1352
g4
S'COc1ccccc1'
p1353
sg6
(lp1354
g19
asg9
F0.59999999999999998
sg10
F-2.4500000000000002
sg11
g20
sg13
S' anisole'
p1355
ssS'mobley_63712'
p1356
(dp1357
g4
S'CN1CCCCC1'
p1358
sg6
(lp1359
g19
asg9
F0.59999999999999998
sg10
F-3.8799999999999999
sg11
g20
sg13
S' 1-methylpiperidine'
p1360
ssS'mobley_3060426'
p1361
(dp1362
g4
S'CC(C)CCC(C)(C)C'
p1363
sg6
(lp1364
g19
asg9
F0.59999999999999998
sg10
F2.9300000000000002
sg11
g20
sg13
S' 2,2,5-trimethylhexane'
p1365
ssS'mobley_5282042'
p1366
(dp1367
g4
S'CN(C)CCC=C1c2ccccc2CCc3c1cccc3'
p1368
sg6
(lp1369
g19
asg9
F0.59999999999999998
sg10
F-7.4299999999999997
sg11
g160
sg13
S' amitriptyline'
p1370
ssS'mobley_2607611'
p1371
(dp1372
g4
S'CCCCCCOC(=O)C'
p1373
sg6
(lp1374
g19
asg9
F0.59999999999999998
sg10
F-2.2599999999999998
sg11
g20
sg13
S' hexyl acetate'
p1375
ssS'mobley_1036761'
p1376
(dp1377
g4
S'C1CCC(CC1)N'
p1378
sg6
(lp1379
g19
asg9
F0.59999999999999998
sg10
F-4.5899999999999999
sg11
g20
sg13
S' cyclohexanamine'
p1380
ssS'mobley_4893032'
p1381
(dp1382
g4
S'CCCCC#N'
p1383
sg6
(lp1384
g19
asg9
F0.59999999999999998
sg10
F-3.52
sg11
g20
sg13
S' pentanenitrile'
p1385
ssS'mobley_8558116'
p1386
(dp1387
g4
S'CN1CCOCC1'
p1388
sg6
(lp1389
g19
asg9
F0.59999999999999998
sg10
F-6.3200000000000003
sg11
g20
sg13
S' 4-methylmorpholine'
p1390
ssS'mobley_5518547'
p1391
(dp1392
g4
S'Cc1ccc(cc1)N'
p1393
sg6
(lp1394
g19
asg9
F0.59999999999999998
sg10
F-5.5700000000000003
sg11
g20
sg13
S' 4-methylaniline'
p1395
ssS'mobley_3378420'
p1396
(dp1397
g4
S'CCCCCCCCCO'
p1398
sg6
(lp1399
g19
asg9
F0.59999999999999998
sg10
F-3.8799999999999999
sg11
g20
sg13
S' nonan-1-ol'
p1400
ssS'mobley_9794857'
p1401
(dp1402
g4
S'CC(C)(C)OC'
p1403
sg6
(lp1404
g19
asg9
F0.59999999999999998
sg10
F-2.21
sg11
g713
sg13
S' 2-methoxy-2-methyl-propane'
p1405
ssS'mobley_6456034'
p1406
(dp1407
g4
S'CC(C)COC(=O)C(C)C'
p1408
sg6
(lp1409
g19
asg9
F0.59999999999999998
sg10
F-1.6899999999999999
sg11
g20
sg13
S' isobutyl 2-methylpropanoate'
p1410
ssS'mobley_3573480'
p1411
(dp1412
g4
S'CCCCCC(=O)C'
p1413
sg6
(lp1414
g19
asg9
F0.59999999999999998
sg10
F-3.04
sg11
g20
sg13
S' heptan-2-one'
p1415
ssS'mobley_676247'
p1416
(dp1417
g4
S'C(F)(F)(F)F'
p1418
sg6
(lp1419
g19
asg9
F0.59999999999999998
sg10
F3.1200000000000001
sg11
g20
sg13
S' tetrafluoromethane'
p1420
ssS'mobley_5760563'
p1421
(dp1422
g4
S'COS(=O)(=O)OC'
p1423
sg6
(lp1424
g19
asg9
F0.59999999999999998
sg10
F-5.0999999999999996
sg11
S'10.1139/v78-385'
p1425
sg13
S' dimethyl sulfate'
p1426
ssS'mobley_8754702'
p1427
(dp1428
g4
S'CCCOC=O'
p1429
sg6
(lp1430
g19
asg9
F0.59999999999999998
sg10
F-2.48
sg11
g20
sg13
S' propyl formate'
p1431
ssS'mobley_3169935'
p1432
(dp1433
g4
S'c1ccc(c(c1)N)Cl'
p1434
sg6
(lp1435
g19
asg9
F0.59999999999999998
sg10
F-4.9100000000000001
sg11
g20
sg13
S' 2-chloroaniline'
p1436
ssS'mobley_5311804'
p1437
(dp1438
g4
S'c1ccc(cc1)CO'
p1439
sg6
(lp1440
g19
asg9
F0.59999999999999998
sg10
F-6.6200000000000001
sg11
g20
sg13
S' phenylmethanol'
p1441
ssS'mobley_6115639'
p1442
(dp1443
g4
S'COP(=O)(OC)OC'
p1444
sg6
(lp1445
g19
asg9
F0.10000000000000001
sg10
F-8.6999999999999993
sg11
g247
sg13
S' trimethyl phosphate'
p1446
ssS'mobley_6714389'
p1447
(dp1448
g4
S'CN'
p1449
sg6
(lp1450
g19
asg9
F0.59999999999999998
sg10
F-4.5499999999999998
sg11
g20
sg13
S' methanamine'
p1451
ssS'mobley_9015240'
p1452
(dp1453
g4
S'CCCCCCCCBr'
p1454
sg6
(lp1455
g19
asg9
F0.59999999999999998
sg10
F0.52000000000000002
sg11
g20
sg13
S' 1-bromooctane'
p1456
ssS'mobley_1417007'
p1457
(dp1458
g4
S'C1C=CC[C@@H]2[C@@H]1C(=O)N(C2=O)SC(Cl)(Cl)Cl'
p1459
sg6
(lp1460
S'Renamed mobley_1417007 from captan to (3aR,7aR)-2-(trichloromethylsulfanyl)-3a,4,7,7a-tetrahydroisoindole-1,3-dione (the name from the 3D structure) since the former did not completely specify stereochemistry.\n'
p1461
asg9
F1.9299999999999999
sg10
F-9.0099999999999998
sg11
g107
sg13
S' captan'
p1462
ssS'mobley_2681549'
p1463
(dp1464
g4
S'c1c(cc(cc1Cl)Cl)Cl'
p1465
sg6
(lp1466
g19
asg9
F0.59999999999999998
sg10
F-0.78000000000000003
sg11
g20
sg13
S' 1,3,5-trichlorobenzene'
p1467
ssS'mobley_4287564'
p1468
(dp1469
g4
S'Cc1ccccn1'
p1470
sg6
(lp1471
g19
asg9
F0.59999999999999998
sg10
F-4.6299999999999999
sg11
g20
sg13
S' 2-methylpyridine'
p1472
ssS'mobley_2043882'
p1473
(dp1474
g4
S'CC(=O)C1CCCCC1'
p1475
sg6
(lp1476
g19
asg9
F0.59999999999999998
sg10
F-3.8999999999999999
sg11
g20
sg13
S' 1-cyclohexylethanone'
p1477
ssS'mobley_352111'
p1478
(dp1479
g4
S'CC(=O)OCCOC(=O)C'
p1480
sg6
(lp1481
g19
asg9
F0.59999999999999998
sg10
F-6.3399999999999999
sg11
g20
sg13
S' 2-acetoxyethyl acetate'
p1482
ssS'mobley_3686115'
p1483
(dp1484
g4
S'CCOC(C)OCC'
p1485
sg6
(lp1486
g741
ag19
ag742
asg9
F0.20000000000000001
sg10
F-3.2799999999999998
sg11
g743
sg13
S' 1,1-diethoxyethane'
p1487
ssS'mobley_8337722'
p1488
(dp1489
g4
S'C[C@@H]1CC[C@H]([C@@H](C1)O)C(C)C'
p1490
sg6
(lp1491
g19
asg9
F0.28000000000000003
sg10
F-3.2000000000000002
sg11
g160
sg13
S' i-menthol'
p1492
ssS'mobley_7326706'
p1493
(dp1494
g4
S'CCOP(=S)(OCC)Oc1c(cc(c(n1)Cl)Cl)Cl'
p1495
sg6
(lp1496
g19
asg9
F0.20999999999999999
sg10
F-5.04
sg11
g107
sg13
S' chlorpyrifos'
p1497
ssS'mobley_3144334'
p1498
(dp1499
g4
S'Cc1ccc(c(c1)O)C'
p1500
sg6
(lp1501
g19
asg9
F0.59999999999999998
sg10
F-5.9100000000000001
sg11
g20
sg13
S' 2,5-dimethylphenol'
p1502
ssS'mobley_5973402'
p1503
(dp1504
g4
S'CC(C)CCO'
p1505
sg6
(lp1506
g19
asg9
F0.59999999999999998
sg10
F-4.4199999999999999
sg11
g20
sg13
S' 3-methylbutan-1-ol'
p1507
ssS'mobley_6353617'
p1508
(dp1509
g4
S'CC(=O)c1cccnc1'
p1510
sg6
(lp1511
g19
asg9
F0.59999999999999998
sg10
F-8.2599999999999998
sg11
g20
sg13
S' 1-(3-pyridyl)ethanone'
p1512
ssS'mobley_2261979'
p1513
(dp1514
g4
S'c1cc2cccc3c2c(c1)CC3'
p1515
sg6
(lp1516
g19
asg9
F0.59999999999999998
sg10
F-3.1499999999999999
sg11
g20
sg13
S' acenaphthene'
p1517
ssS'mobley_4715906'
p1518
(dp1519
g4
S'C[C@@H]1CCCC[C@@H]1C'
p1520
sg6
(lp1521
S'Renamed mobley_4715906 from 1,2-dimethylcyclohexane to (1R,2S)-1,2-dimethylcyclohexane (the name from the 3D structure) since the former did not completely specify stereochemistry.\n'
p1522
asg9
F0.59999999999999998
sg10
F1.5800000000000001
sg11
g20
sg13
S' 1,2-dimethylcyclohexane'
p1523
ssS'mobley_5952846'
p1524
(dp1525
g4
S'C(=C(Cl)Cl)(Cl)Cl'
p1526
sg6
(lp1527
g19
asg9
F0.59999999999999998
sg10
F0.10000000000000001
sg11
g20
sg13
S' 1,1,2,2-tetrachloroethylene'
p1528
ssS'mobley_1903702'
p1529
(dp1530
g4
S'CC[C@H](C)O'
p1531
sg6
(lp1532
S'Renamed mobley_1903702 from butan-2-ol to (2S)-butan-2-ol (the name from the 3D structure) since the former did not completely specify stereochemistry.\n'
p1533
asg9
F0.59999999999999998
sg10
F-4.6200000000000001
sg11
g20
sg13
S' butan-2-ol'
p1534
ssS'mobley_5220185'
p1535
(dp1536
g4
S'CCc1cnccn1'
p1537
sg6
(lp1538
g19
asg9
F0.59999999999999998
sg10
F-5.4500000000000002
sg11
g20
sg13
S' 2-ethylpyrazine'
p1539
ssS'mobley_5510474'
p1540
(dp1541
g4
S'c1ccc2c(c1)Oc3c(c(c(c(c3Cl)Cl)Cl)Cl)O2'
p1542
sg6
(lp1543
g19
asg9
F0.14000000000000001
sg10
F-3.8100000000000001
sg11
g123
sg13
S' 1,2,3,4-tetrachlorodibenzo-p-dioxin'
p1544
ssS'mobley_3980099'
p1545
(dp1546
g4
S'c1cc(c(c(c1)Cl)Cl)Cl'
p1547
sg6
(lp1548
g19
asg9
F0.59999999999999998
sg10
F-1.24
sg11
g20
sg13
S' 1,2,3-trichlorobenzene'
p1549
ssS'mobley_1944394'
p1550
(dp1551
g4
S'CN(C)CCOC(c1ccccc1)c2ccccc2'
p1552
sg6
(lp1553
g19
asg9
g155
(g157
S'\xd7\xa3p=\n\xd7\xe3?'
tRp1554
sg10
g155
(g157
S'\xaeG\xe1z\x14\xae"\xc0'
tRp1555
sg11
g160
sg13
S' benadryl'
p1556
ssS'mobley_2501588'
p1557
(dp1558
g4
S'CCC[N@@](CC1CC1)c2c(cc(cc2[N+](=O)[O-])C(F)(F)F)[N+](=O)[O-]'
p1559
sg6
(lp1560
g19
asg9
F1.3700000000000001
sg10
F-2.4500000000000002
sg11
g107
sg13
S' profluralin'
p1561
ssS'mobley_3968739'
p1562
(dp1563
g4
S'COC(=O)c1ccccc1'
p1564
sg6
(lp1565
g19
asg9
F0.59999999999999998
sg10
F-3.9199999999999999
sg11
g20
sg13
S' methyl benzoate'
p1566
ssS'mobley_9897248'
p1567
(dp1568
g4
S'CC(=CCC/C(=C\\CO)/C)C'
p1569
sg6
(lp1570
g19
aS'Former IUPAC name Nerol replaced with one generated from the 3D structure, (2Z)-3,7-dimethylocta-2,6-dien-1-ol'
p1571
asg9
g155
(g157
S'\x00\x00\x00\x00\x00\x00\xd0?'
tRp1572
sg10
g155
(g157
S'\x1f\x85\xebQ\xb8\x1e\x13\xc0'
tRp1573
sg11
g160
sg13
S' nerol'
p1574
ssS'mobley_3727287'
p1575
(dp1576
g4
S'C1=CC(=O)C=CC1=O'
p1577
sg6
(lp1578
g8
asg9
F0.20000000000000001
sg10
F-6.5
sg11
g12
sg13
S' quinone'
p1579
ssS'mobley_2577969'
p1580
(dp1581
g4
S'c1cc2ccc3cccc4c3c2c(c1)cc4'
p1582
sg6
(lp1583
g19
asg9
F0.59999999999999998
sg10
F-4.5199999999999996
sg11
g20
sg13
S' pyrene'
p1584
ssS'mobley_6620221'
p1585
(dp1586
g4
S'CC1(Cc2cccc(c2O1)OC(=O)NC)C'
p1587
sg6
(lp1588
g19
asg9
F0.29999999999999999
sg10
F-9.6099999999999994
sg11
g107
sg13
S' carbofuran'
p1589
ssS'mobley_3370989'
p1590
(dp1591
g4
S'CC(F)F'
p1592
sg6
(lp1593
g19
asg9
F0.59999999999999998
sg10
F-0.11
sg11
g20
sg13
S' 1,1-difluoroethane'
p1594
ssS'mobley_6239320'
p1595
(dp1596
g4
S'c1(=O)[nH]c(=O)[nH]c(=O)[nH]1'
p1597
sg6
(lp1598
g19
asg9
F0.27000000000000002
sg10
F-18.059999999999999
sg11
g247
sg13
S' cyanuric acid'
p1599
ssS'mobley_5056289'
p1600
(dp1601
g4
S'C[C@H]1CCCO1'
p1602
sg6
(lp1603
S'Renamed mobley_5056289 from 2-methyltetrahydrofuran to (2S)-2-methyltetrahydrofuran (the name from the 3D structure) since the former did not completely specify stereochemistry.\n'
p1604
asg9
F0.59999999999999998
sg10
F-3.2999999999999998
sg11
g20
sg13
S' 2-methyltetrahydrofuran'
p1605
ssS'mobley_6358463'
p1606
(dp1607
g4
S'c1ccc(c(c1)C(F)(F)F)C(F)(F)F'
p1608
sg6
(lp1609
g19
asg9
F0.59999999999999998
sg10
F1.0700000000000001
sg11
g20
sg13
S' 1,2-bis(trifluoromethyl)benzene'
p1610
ssS'mobley_1261349'
p1611
(dp1612
g4
S'CC(C)(C)C'
p1613
sg6
(lp1614
g19
asg9
F0.59999999999999998
sg10
F2.5099999999999998
sg11
g20
sg13
S' neopentane'
p1615
ssS'mobley_1363784'
p1616
(dp1617
g4
S'Cc1cc(cnc1)C'
p1618
sg6
(lp1619
g19
asg9
F0.59999999999999998
sg10
F-4.8399999999999999
sg11
g20
sg13
S' 3,5-dimethylpyridine'
p1620
ssS'mobley_628086'
p1621
(dp1622
g4
S'C[C@@H](C(F)(F)F)O'
p1623
sg6
(lp1624
S'Renamed mobley_628086 from 1,1,1-trifluoropropan-2-ol to (2S)-1,1,1-trifluoropropan-2-ol (the name from the 3D structure) since the former did not completely specify stereochemistry.\n'
p1625
asg9
F0.59999999999999998
sg10
F-4.1600000000000001
sg11
g20
sg13
S' 1,1,1-trifluoropropan-2-ol'
p1626
ssS'mobley_8207196'
p1627
(dp1628
g4
S'CCNc1nc(nc(n1)Cl)NCC'
p1629
sg6
(lp1630
g19
asg9
F0.10000000000000001
sg10
F-10.220000000000001
sg11
g107
sg13
S' simazine'
p1631
ssS'mobley_5732611'
p1632
(dp1633
g4
S'Cc1c[nH]cn1'
p1634
sg6
(lp1635
g19
asg9
F0.59999999999999998
sg10
F-10.27
sg11
S'10.1021/bi00507a030'
p1636
sg13
S' 4-methyl-1H-imidazole'
p1637
ssS'mobley_7039935'
p1638
(dp1639
g4
S'c1ccc2c(c1)cccc2O'
p1640
sg6
(lp1641
g19
asg9
F0.59999999999999998
sg10
F-7.6699999999999999
sg11
g20
sg13
S' naphthalen-1-ol'
p1642
ssS'mobley_1662128'
p1643
(dp1644
g4
S'CCC=C'
p1645
sg6
(lp1646
g19
asg9
F0.59999999999999998
sg10
F1.3799999999999999
sg11
g20
sg13
S' but-1-ene'
p1647
ssS'mobley_9510785'
p1648
(dp1649
g4
S'c1ccc(cc1)c2cc(c(c(c2Cl)Cl)Cl)Cl'
p1650
sg6
(lp1651
g19
asg9
F1
sg10
F-3.48
sg11
g123
sg13
S' 2,3,4,5-tetrachlorobiphenyl'
p1652
ssS'mobley_4465023'
p1653
(dp1654
g4
S'C(=C\\Cl)\\Cl'
p1655
sg6
(lp1656
S'Renamed mobley_4465023 from (Z)-1,2-dichloroethylene to (Z)-1,2-dichloroethylene (the name from the 3D structure) since the former did not completely specify stereochemistry.\n'
p1657
asg9
F0.59999999999999998
sg10
F-1.1699999999999999
sg11
g20
sg13
S' (Z)-1,2-dichloroethylene'
p1658
ssS'mobley_4364398'
p1659
(dp1660
g4
S'CI'
p1661
sg6
(lp1662
g19
asg9
F0.59999999999999998
sg10
F-0.89000000000000001
sg11
g20
sg13
S' iodomethane'
p1663
ssS'mobley_6917738'
p1664
(dp1665
g4
S'COCCN'
p1666
sg6
(lp1667
g19
asg9
F0.59999999999999998
sg10
F-6.5499999999999998
sg11
g20
sg13
S' 2-methoxyethanamine'
p1668
ssS'mobley_6102880'
p1669
(dp1670
g4
S'c1ccc(cc1)Oc2ccccc2'
p1671
sg6
(lp1672
g19
asg9
g155
(g157
S'\x14\xaeG\xe1z\x14\xe6?'
tRp1673
sg10
g155
(g157
S'\xf6(\\\x8f\xc2\xf5\x06\xc0'
tRp1674
sg11
g160
sg13
S' diphenyl ether'
p1675
ssS'mobley_8118832'
p1676
(dp1677
g4
S'C=CCO'
p1678
sg6
(lp1679
g19
asg9
F0.59999999999999998
sg10
F-5.0300000000000002
sg11
g20
sg13
S' prop-2-en-1-ol'
p1680
ssS'mobley_5076071'
p1681
(dp1682
g4
S'CCN(CC)c1c(cc(c(c1[N+](=O)[O-])N)C(F)(F)F)[N+](=O)[O-]'
p1683
sg6
(lp1684
g19
aS'Changed IUPAC name from dinitramine to 1-N,1-N-diethyl-2,6-dinitro-4-(trifluoromethyl)benzene-1,3-diamine for better handling/standardization.'
p1685
asg9
F1.9299999999999999
sg10
F-5.6600000000000001
sg11
g107
sg13
S' dinitramine'
p1686
ssS'mobley_20524'
p1687
(dp1688
g4
S'c1ccc(cc1)O'
p1689
sg6
(lp1690
g8
asg9
F0.20000000000000001
sg10
F-6.5999999999999996
sg11
g12
sg13
S' phenol'
p1691
ssS'mobley_7378987'
p1692
(dp1693
g4
S'Cn1cnc2c1c(=O)n(c(=O)n2C)C'
p1694
sg6
(lp1695
g19
asg9
F0.73999999999999999
sg10
F-12.640000000000001
sg11
g247
sg13
S' caffeine'
p1696
ssS'mobley_7227357'
p1697
(dp1698
g4
S'CCC(CC)O'
p1699
sg6
(lp1700
g19
asg9
F0.59999999999999998
sg10
F-4.3499999999999996
sg11
g20
sg13
S' pentan-3-ol'
p1701
ssS'mobley_9139060'
p1702
(dp1703
g4
S'CC1CCC(CC1)C'
p1704
sg6
(lp1705
g19
asg9
F0.59999999999999998
sg10
F2.1099999999999999
sg11
g20
sg13
S' 1,4-dimethylcyclohexane'
p1706
ssS'mobley_2996632'
p1707
(dp1708
g4
S'C(Cl)(Cl)Cl'
p1709
sg6
(lp1710
g19
asg9
F0.59999999999999998
sg10
F-1.0800000000000001
sg11
g20
sg13
S' chloroform'
p1711
ssS'mobley_9073553'
p1712
(dp1713
g4
S'CSC'
p1714
sg6
(lp1715
g19
asg9
F0.59999999999999998
sg10
F-1.6100000000000001
sg11
g20
sg13
S' methylsulfanylmethane'
p1716
ssS'mobley_397645'
p1717
(dp1718
g4
S'CCOC(=O)c1ccccc1'
p1719
sg6
(lp1720
g19
asg9
F0.59999999999999998
sg10
F-3.6400000000000001
sg11
g20
sg13
S' ethyl benzoate'
p1721
ssS'mobley_2518989'
p1722
(dp1723
g4
S'CCOP(=S)(OCC)S[C@@H](CCl)N1C(=O)c2ccccc2C1=O'
p1724
sg6
(lp1725
S'Renamed mobley_2518989 from 2-(2-chloro-1-diethoxyphosphinothioylsulfanylethyl)isoindole-1,3-dione to 2-[(1S)-2-chloro-1-diethoxyphosphinothioylsulfanyl-ethyl]isoindoline-1,3-dione (the name from the 3D structure) since the former did not completely specify stereochemistry.\n'
p1726
asg9
F1.9299999999999999
sg10
F-5.7400000000000002
sg11
g107
sg13
S' dialifor'
p1727
ssS'mobley_282648'
p1728
(dp1729
g4
S'c1ccc2ccccc2c1'
p1730
sg6
(lp1731
g19
asg9
F0.59999999999999998
sg10
F-2.3999999999999999
sg11
g20
sg13
S' naphthalene'
p1732
ssS'mobley_5857'
p1733
(dp1734
g4
S'c1ccc2c(c1)cccn2'
p1735
sg6
(lp1736
g19
asg9
F0.59999999999999998
sg10
F-5.7199999999999998
sg11
g20
sg13
S' quinoline'
p1737
ssS'mobley_197466'
p1738
(dp1739
g4
S'CC(=O)C1CC1'
p1740
sg6
(lp1741
g19
asg9
F0.59999999999999998
sg10
F-4.6100000000000003
sg11
g20
sg13
S' 1-cyclopropylethanone'
p1742
ssS'mobley_718988'
p1743
(dp1744
g4
S'CCCCCCCN'
p1745
sg6
(lp1746
g19
asg9
F0.59999999999999998
sg10
F-3.79
sg11
g20
sg13
S' heptan-1-amine'
p1747
ssS'mobley_967099'
p1748
(dp1749
g4
S'CC(C)[N+](=O)[O-]'
p1750
sg6
(lp1751
g19
asg9
F0.59999999999999998
sg10
F-3.1299999999999999
sg11
g20
sg13
S' 2-nitropropane'
p1752
ssS'mobley_1792062'
p1753
(dp1754
g4
S'C(CBr)Br'
p1755
sg6
(lp1756
g19
asg9
F0.59999999999999998
sg10
F-2.3300000000000001
sg11
g20
sg13
S' 1,2-dibromoethane'
p1757
ssS'mobley_7203421'
p1758
(dp1759
g4
S'CCCCCC(=O)N'
p1760
sg6
(lp1761
g19
asg9
F0.59999999999999998
sg10
F-9.3100000000000005
sg11
g20
sg13
S' hexanamide'
p1762
ssS'mobley_4678740'
p1763
(dp1764
g4
S'c1cc(cc(c1)C(F)(F)F)C(F)(F)F'
p1765
sg6
(lp1766
g741
ag19
aS'Changed IUPAC name from m-bis(trifluoromethyl)benzene to 1,3-bis(trifluoromethyl)benzene for better handling/standardization.'
p1767
ag742
asg9
F0.20000000000000001
sg10
F1.0700000000000001
sg11
g743
sg13
S' m-bis(trifluoromethyl)benzene'
p1768
ssS'mobley_7200804'
p1769
(dp1770
g4
S'c1ccc(c(c1)O)F'
p1771
sg6
(lp1772
g19
asg9
F0.59999999999999998
sg10
F-5.29
sg11
g20
sg13
S' 2-fluorophenol'
p1773
ssS'mobley_7814642'
p1774
(dp1775
g4
S'c1cc(c(cc1Cl)Cl)Cl'
p1776
sg6
(lp1777
g19
asg9
F0.59999999999999998
sg10
F-1.1200000000000001
sg11
g20
sg13
S' 1,2,4-trichlorobenzene'
p1778
ssS'mobley_5094777'
p1779
(dp1780
g4
S'c1ccc2c(c1)CCC2'
p1781
sg6
(lp1782
g19
asg9
F0.59999999999999998
sg10
F-1.46
sg11
g20
sg13
S' indane'
p1783
ssS'mobley_4561957'
p1784
(dp1785
g4
S'CC(C)C(C)C'
p1786
sg6
(lp1787
g19
asg9
F0.59999999999999998
sg10
F2.3399999999999999
sg11
g20
sg13
S' 2,3-dimethylbutane'
p1788
ssS'mobley_5852491'
p1789
(dp1790
g4
S'CC1CCCC1'
p1791
sg6
(lp1792
g19
asg9
F0.59999999999999998
sg10
F1.5900000000000001
sg11
g20
sg13
S' methylcyclopentane'
p1793
ssS'mobley_1987439'
p1794
(dp1795
g4
S'Cc1cc(cc(c1)C)C'
p1796
sg6
(lp1797
g19
asg9
F0.59999999999999998
sg10
F-0.90000000000000002
sg11
g20
sg13
S' mesitylene'
p1798
ssS'mobley_8492526'
p1799
(dp1800
g4
S'CCCCC=O'
p1801
sg6
(lp1802
g19
asg9
F0.59999999999999998
sg10
F-3.0299999999999998
sg11
g20
sg13
S' pentanal'
p1803
ssS'mobley_4494568'
p1804
(dp1805
g4
S'Cc1ccc(cc1)Br'
p1806
sg6
(lp1807
g19
asg9
F0.59999999999999998
sg10
F-1.3899999999999999
sg11
g20
sg13
S' 1-bromo-4-methyl-benzene'
p1808
ssS'mobley_7869158'
p1809
(dp1810
g4
S'CC[C@H](C)O[N+](=O)[O-]'
p1811
sg6
(lp1812
g19
aS'Changed IUPAC name from 2-butyl nitrate to [(2S)-butan-2-yl] nitrate for better handling/standardization.'
p1813
asg9
F0.10000000000000001
sg10
F-1.8200000000000001
sg11
g107
sg13
S' [(2S)-butan-2-yl] nitrate'
p1814
ssS'mobley_7893124'
p1815
(dp1816
g4
S'CC(C)(C)c1ccccc1'
p1817
sg6
(lp1818
g19
asg9
F0.59999999999999998
sg10
F-0.44
sg11
g20
sg13
S' tert-butylbenzene'
p1819
ssS'mobley_5880265'
p1820
(dp1821
g4
S'CCCCOCCO'
p1822
sg6
(lp1823
g19
asg9
F0.59999999999999998
sg10
F-6.25
sg11
g20
sg13
S' 2-butoxyethanol'
p1824
ssS'mobley_8691603'
p1825
(dp1826
g4
S'Cc1cccc(c1)O'
p1827
sg6
(lp1828
g19
asg9
F0.59999999999999998
sg10
F-5.4900000000000002
sg11
g20
sg13
S' m-cresol'
p1829
ssS'mobley_2693089'
p1830
(dp1831
g4
S'CC(C)Cc1cnccn1'
p1832
sg6
(lp1833
g19
asg9
F0.59999999999999998
sg10
F-5.04
sg11
g20
sg13
S' 2-isobutylpyrazine'
p1834
ssS'mobley_8525830'
p1835
(dp1836
g4
S'CCCCCI'
p1837
sg6
(lp1838
g19
asg9
F0.59999999999999998
sg10
F-0.14000000000000001
sg11
g20
sg13
S' 1-iodopentane'
p1839
ssS'mobley_6232400'
p1840
(dp1841
g4
S'c1cc(cnc1)C=O'
p1842
sg6
(lp1843
g19
asg9
F0.59999999999999998
sg10
F-7.0999999999999996
sg11
g20
sg13
S' pyridine-3-carbaldehyde'
p1844
ssS'mobley_4506634'
p1845
(dp1846
g4
S'[C@@H](C(F)(F)F)(Cl)Br'
p1847
sg6
(lp1848
S'Renamed mobley_4506634 from 2-bromo-2-chloro-1,1,1-trifluoro-ethane to (2R)-2-bromo-2-chloro-1,1,1-trifluoro-ethane (the name from the 3D structure) since the former did not completely specify stereochemistry.\n'
p1849
asg9
F0.59999999999999998
sg10
F-0.11
sg11
g20
sg13
S' 2-bromo-2-chloro-1,1,1-trifluoro-ethane'
p1850
ssS'mobley_6430250'
p1851
(dp1852
g4
S'CCCc1ccccc1'
p1853
sg6
(lp1854
g19
asg9
F0.59999999999999998
sg10
F-0.53000000000000003
sg11
g20
sg13
S' propylbenzene'
p1855
ssS'mobley_8685905'
p1856
(dp1857
g4
S'[C@@H](C(F)(F)F)(F)Br'
p1858
sg6
(lp1859
S'Renamed mobley_8685905 from 2-bromo-1,1,1,2-tetrafluoro-ethane to (2R)-2-bromo-1,1,1,2-tetrafluoro-ethane (the name from the 3D structure) since the former did not completely specify stereochemistry.\n'
p1860
asg9
F0.59999999999999998
sg10
F0.5
sg11
g20
sg13
S' teflurane'
p1861
ssS'mobley_2451097'
p1862
(dp1863
g4
S'c1ccc(cc1)C#N'
p1864
sg6
(lp1865
g19
asg9
F0.59999999999999998
sg10
F-4.0999999999999996
sg11
S'10.1039/P29940001777'
p1866
sg13
S' benzonitrile'
p1867
ssS'mobley_7943327'
p1868
(dp1869
g4
S'CCC(=O)OCC'
p1870
sg6
(lp1871
g19
asg9
F0.59999999999999998
sg10
F-2.6800000000000002
sg11
g20
sg13
S' ethyl propanoate'
p1872
ssS'mobley_337666'
p1873
(dp1874
g4
S'c1c(c(=O)[nH]c(=O)[nH]1)F'
p1875
sg6
(lp1876
g19
aS'Changed IUPAC name from 5-flurouracil to 5-fluorouracil for better handling/standardization.'
p1877
asg9
F0.88
sg10
F-16.920000000000002
sg11
g247
sg13
S' 5-fluorouracil'
p1878
ssS'mobley_1893937'
p1879
(dp1880
g4
S'CCCCCCCl'
p1881
sg6
(lp1882
g19
asg9
F0.59999999999999998
sg10
F0
sg11
g20
sg13
S' 1-chlorohexane'
p1883
ssS'mobley_1827204'
p1884
(dp1885
g4
S'CCCCCC=O'
p1886
sg6
(lp1887
g19
asg9
F0.59999999999999998
sg10
F-2.8100000000000001
sg11
g20
sg13
S' hexanal'
p1888
ssS'mobley_2913224'
p1889
(dp1890
g4
S'CC(=O)Oc1ccccc1C(=O)O'
p1891
sg6
(lp1892
g19
asg9
F0.17999999999999999
sg10
F-9.9399999999999995
sg11
g247
sg13
S' acetylsalicylic acid'
p1893
ssS'mobley_5561855'
p1894
(dp1895
g4
S'c1cc(c(c(c1)Cl)c2c(cc(cc2Cl)Cl)Cl)Cl'
p1896
sg6
(lp1897
g19
asg9
F0.10000000000000001
sg10
F-1.96
sg11
g123
sg13
S" 2,2',4,6,6'-pentachlorobiphenyl"
p1898
ssS'mobley_8723116'
p1899
(dp1900
g4
S'c1cc(ccc1N)Cl'
p1901
sg6
(lp1902
g19
asg9
F0.59999999999999998
sg10
F-5.9000000000000004
sg11
g20
sg13
S' 4-chloroaniline'
p1903
ssS'mobley_2517158'
p1904
(dp1905
g4
S'CCCCCCCBr'
p1906
sg6
(lp1907
g19
asg9
F0.59999999999999998
sg10
F0.34000000000000002
sg11
g20
sg13
S' 1-bromoheptane'
p1908
ssS'mobley_6250025'
p1909
(dp1910
g4
S'CCCCCCI'
p1911
sg6
(lp1912
g19
asg9
F0.59999999999999998
sg10
F0.080000000000000002
sg11
g20
sg13
S' 1-iodohexane'
p1913
ssS'mobley_4687447'
p1914
(dp1915
g4
S'CCCOCCO'
p1916
sg6
(lp1917
g19
asg9
F0.59999999999999998
sg10
F-6.4000000000000004
sg11
g20
sg13
S' 2-propoxyethanol'
p1918
ssS'mobley_3325209'
p1919
(dp1920
g4
S'COC(c1ccccc1)(OC)OC'
p1921
sg6
(lp1922
g19
asg9
F0.59999999999999998
sg10
F-4.04
sg11
g26
sg13
S' trimethoxymethylbenzene'
p1923
ssS'mobley_1875719'
p1924
(dp1925
g4
S'CCC(=O)CC'
p1926
sg6
(lp1927
g8
asg9
F0.20000000000000001
sg10
F-3.4100000000000001
sg11
g12
sg13
S' pentan-3-one'
p1928
ssS'mobley_9112978'
p1929
(dp1930
g4
S'CC/C=C\\C'
p1931
sg6
(lp1932
S'Renamed mobley_9112978 from pent-2-ene to (Z)-pent-2-ene (the name from the 3D structure) since the former did not completely specify stereochemistry.\n'
p1933
asg9
F0.59999999999999998
sg10
F1.3100000000000001
sg11
g20
sg13
S' pent-2-ene'
p1934
ssS'mobley_5692472'
p1935
(dp1936
g4
S'CNC'
p1937
sg6
(lp1938
g19
asg9
F0.59999999999999998
sg10
F-4.29
sg11
g20
sg13
S' N-methylmethanamine'
p1939
ssS'mobley_2972345'
p1940
(dp1941
g4
S'c1ccc2c(c1)Cc3ccccc3C2'
p1942
sg6
(lp1943
g19
asg9
g155
(g157
S'\x9a\x99\x99\x99\x99\x99\xb9?'
tRp1944
sg10
g155
(g157
S'=\n\xd7\xa3p=\x0e\xc0'
tRp1945
sg11
g160
sg13
S' 9,10-dihydroanthracene'
p1946
ssS'mobley_3976574'
p1947
(dp1948
g4
S'c1cc2c(cc1Cl)Oc3c(c(c(c(c3Cl)Cl)Cl)Cl)O2'
p1949
sg6
(lp1950
g19
asg9
F1
sg10
F-4.1500000000000004
sg11
g123
sg13
S' 1,2,3,4,7-pentachlorodibenzo-p-dioxin'
p1951
ssS'mobley_8966374'
p1952
(dp1953
g4
S'Cc1cnccn1'
p1954
sg6
(lp1955
g19
asg9
F0.59999999999999998
sg10
F-5.5099999999999998
sg11
g20
sg13
S' 2-methylpyrazine'
p1956
ssS'mobley_2328633'
p1957
(dp1958
g4
S'CCCCCC1CCCC1'
p1959
sg6
(lp1960
g19
asg9
F0.59999999999999998
sg10
F2.5499999999999998
sg11
g20
sg13
S' pentylcyclopentane'
p1961
ssS'mobley_7298388'
p1962
(dp1963
g4
S'Cc1cccc(c1)[N+](=O)[O-]'
p1964
sg6
(lp1965
g19
asg9
F0.59999999999999998
sg10
F-3.4500000000000002
sg11
g20
sg13
S' 1-methyl-3-nitro-benzene'
p1966
ssS'mobley_3269819'
p1967
(dp1968
g4
S'c1c(cc(c(c1Cl)Cl)Cl)c2cc(c(c(c2Cl)Cl)Cl)Cl'
p1969
sg6
(lp1970
g19
asg9
F0.10000000000000001
sg10
F-3.1699999999999999
sg11
g123
sg13
S" 2,3,4,5,3',4',5'-heptachlorobiphenyl"
p1971
ssS'mobley_3802803'
p1972
(dp1973
g4
S'CCCCCCON([O-])[O-]'
p1974
sg6
(lp1975
g19
asg9
g155
(g157
S'\x9a\x99\x99\x99\x99\x99\xb9?'
tRp1976
sg10
g155
(g157
S'\x8f\xc2\xf5(\\\x8f\xfa\xbf'
tRp1977
sg11
g160
sg13
S' hexyl nitrate'
p1978
ssS'mobley_7497999'
p1979
(dp1980
g4
S'CC(=O)c1ccccc1'
p1981
sg6
(lp1982
g19
asg9
F0.59999999999999998
sg10
F-4.5800000000000001
sg11
g20
sg13
S' 1-phenylethanone'
p1983
ssS'mobley_8208692'
p1984
(dp1985
g4
S'c1c(c(c(c(c1Cl)Cl)Cl)Cl)c2c(cc(c(c2Cl)Cl)Cl)Cl'
p1986
sg6
(lp1987
g19
asg9
F0.25
sg10
F-4.6100000000000003
sg11
g123
sg13
S" 2,2',3,3',4,4',5,6'-octachloro-biphenyl"
p1988
ssS'mobley_1199854'
p1989
(dp1990
g4
S'CCCI'
p1991
sg6
(lp1992
g19
asg9
F0.59999999999999998
sg10
F-0.53000000000000003
sg11
g20
sg13
S' 1-iodopropane'
p1993
ssS'mobley_3867265'
p1994
(dp1995
g4
S'CC(=O)C'
p1996
sg6
(lp1997
g19
asg9
F0.59999999999999998
sg10
F-3.7999999999999998
sg11
g20
sg13
S' acetone'
p1998
ssS'mobley_5072416'
p1999
(dp2000
g4
S'COc1ccccc1N'
p2001
sg6
(lp2002
g19
asg9
F0.59999999999999998
sg10
F-6.1200000000000001
sg11
g20
sg13
S' 2-methoxyaniline'
p2003
ssS'mobley_2489709'
p2004
(dp2005
g4
S'c1ccc(c(c1)Cl)Cl'
p2006
sg6
(lp2007
g19
asg9
F0.59999999999999998
sg10
F-1.3600000000000001
sg11
g20
sg13
S' 1,2-dichlorobenzene'
p2008
ssS'mobley_2481002'
p2009
(dp2010
g4
S'C([N+](=O)[O-])(Cl)(Cl)Cl'
p2011
sg6
(lp2012
g19
aS'Changed IUPAC name from chloropicrin to trichloro(nitro)methane for better handling/standardization.'
p2013
asg9
F0.10000000000000001
sg10
F-1.45
sg11
g107
sg13
S' trichloro(nitro)methane'
p2014
ssS'mobley_1034539'
p2015
(dp2016
g4
S'c1cc(c(cc1c2cc(c(c(c2Cl)Cl)Cl)Cl)Cl)Cl'
p2017
sg6
(lp2018
g19
asg9
F0.10000000000000001
sg10
F-3.04
sg11
g123
sg13
S" 2,3,3',4,4',5-hexachlorobiphenyl"
p2019
ssS'mobley_9460824'
p2020
(dp2021
g4
S'CCOP(=S)(OCC)SCSCC'
p2022
sg6
(lp2023
g19
aS'Changed IUPAC name from phorate to diethoxy-(ethylsulfanylmethylsulfanyl)-thioxo-$l^{5}-phosphane for better handling/standardization.'
p2024
asg9
F0.10000000000000001
sg10
F-4.3700000000000001
sg11
g107
sg13
S' phorate'
p2025
ssS'mobley_8882696'
p2026
(dp2027
g4
S'C1CCOC1'
p2028
sg6
(lp2029
g19
asg9
F0.59999999999999998
sg10
F-3.4700000000000002
sg11
g20
sg13
S' tetrahydrofuran'
p2030
ssS'mobley_7708038'
p2031
(dp2032
g4
S'CCCBr'
p2033
sg6
(lp2034
g19
asg9
F0.59999999999999998
sg10
F-0.56000000000000005
sg11
g20
sg13
S' 1-bromopropane'
p2035
ssS'mobley_8916409'
p2036
(dp2037
g4
S'CCOC(=O)C[C@H](C(=O)OCC)SP(=S)(OC)OC'
p2038
sg6
(lp2039
g19
aS'Changed IUPAC name from malathion to diethyl (2R)-2-dimethoxyphosphinothioylsulfanylbutanedioate for better handling/standardization.'
p2040
asg9
F0.20999999999999999
sg10
F-8.1500000000000004
sg11
g107
sg13
S' butanedioic acid'
p2041
ssS'mobley_1770205'
p2042
(dp2043
g4
S'COP(=S)(OC)SCn1c(=O)c2ccccc2nn1'
p2044
sg6
(lp2045
g19
aS'Changed IUPAC name from azinphosmethyl to 3-(dimethoxyphosphinothioylsulfanylmethyl)-1,2,3-benzotriazin-4-one for better handling/standardization.'
p2046
asg9
F1.3700000000000001
sg10
F-10.029999999999999
sg11
g107
sg13
S' azinphos-methyl'
p2047
ssS'mobley_3982371'
p2048
(dp2049
g4
S'CC(=O)OC'
p2050
sg6
(lp2051
g19
asg9
F0.59999999999999998
sg10
F-3.1299999999999999
sg11
g20
sg13
S' methyl acetate'
p2052
ssS'mobley_2659552'
p2053
(dp2054
g4
S'Cc1ccc(cc1)C(=O)N(C)C'
p2055
sg6
(lp2056
g741
ag19
ag742
asg9
F0.20000000000000001
sg10
F-9.7599999999999998
sg11
g743
sg13
S' N,N-4-trimethylbenzamide'
p2057
ssS'mobley_2422586'
p2058
(dp2059
g4
S'CCCOC'
p2060
sg6
(lp2061
g19
asg9
F0.59999999999999998
sg10
F-1.6599999999999999
sg11
g20
sg13
S' 1-methoxypropane'
p2062
ssS'mobley_2725215'
p2063
(dp2064
g4
S'CCCN(CCC)c1c(cc(cc1[N+](=O)[O-])S(=O)(=O)C)[N+](=O)[O-]'
p2065
sg6
(lp2066
g19
asg9
F1.9299999999999999
sg10
F-7.9800000000000004
sg11
g107
sg13
S' nitralin'
p2067
ssS'mobley_9571888'
p2068
(dp2069
g4
S'C1[C@@H]2[C@H](COS(=O)O1)[C@@]3(C(=C([C@]2(C3(Cl)Cl)Cl)Cl)Cl)Cl'
p2070
sg6
(lp2071
g19
asg9
F0.26000000000000001
sg10
F-4.2300000000000004
sg11
g107
sg13
S' endosulfan alpha'
p2072
ssS'mobley_3777264'
p2073
(dp2074
g4
S'c1cc(cc(c1)[N+](=O)[O-])N'
p2075
sg6
(lp2076
g19
asg9
F0.59999999999999998
sg10
F-8.8399999999999999
sg11
g20
sg13
S' 3-nitroaniline'
p2077
ssS'mobley_6006813'
p2078
(dp2079
g4
S'CCCC[N+](=O)[O-]'
p2080
sg6
(lp2081
g19
asg9
F0.59999999999999998
sg10
F-3.0899999999999999
sg11
g20
sg13
S' 1-nitrobutane'
p2082
ssS'mobley_1636752'
p2083
(dp2084
g4
S'CO'
p2085
sg6
(lp2086
g19
asg9
F0.59999999999999998
sg10
F-5.0999999999999996
sg11
g20
sg13
S' methanol'
p2087
ssS'mobley_3525176'
p2088
(dp2089
g4
S'CCCCCc1ccccc1'
p2090
sg6
(lp2091
g19
asg9
F0.59999999999999998
sg10
F-0.23000000000000001
sg11
g20
sg13
S' pentylbenzene'
p2092
ssS'mobley_1905088'
p2093
(dp2094
g4
S'c1ccc(cc1)CBr'
p2095
sg6
(lp2096
g741
ag19
ag742
asg9
F0.20000000000000001
sg10
F-2.3799999999999999
sg11
g743
sg13
S' benzyl bromide'
p2097
ssS'mobley_637522'
p2098
(dp2099
g4
S'c1ccc2cc3ccccc3cc2c1'
p2100
sg6
(lp2101
g19
asg9
F0.59999999999999998
sg10
F-3.9500000000000002
sg11
g20
sg13
S' anthracene'
p2102
ssS'mobley_1615431'
p2103
(dp2104
g4
S'CC(C)OC(C)C'
p2105
sg6
(lp2106
g19
asg9
F0.59999999999999998
sg10
F-0.53000000000000003
sg11
g20
sg13
S' 2-isopropoxypropane'
p2107
ssS'mobley_9281946'
p2108
(dp2109
g4
S'CCOP(=S)(OCC)Oc1ccc(cc1)[N+](=O)[O-]'
p2110
sg6
(lp2111
g19
aS'Changed IUPAC name from parathion to diethoxy-(4-nitrophenoxy)-thioxo-$l^{5}-phosphane for better handling/standardization.'
p2112
asg9
F0.10000000000000001
sg10
F-6.7400000000000002
sg11
g107
sg13
S' parathion'
p2113
ssS'mobley_1469079'
p2114
(dp2115
g4
S'c1ccc2c(c1)Oc3cc(c(cc3O2)Cl)Cl'
p2116
sg6
(lp2117
g19
asg9
F1
sg10
F-3.5600000000000001
sg11
g123
sg13
S' 2,3-dichlorodibenzo-p-dioxin'
p2118
ssS'mobley_4603202'
p2119
(dp2120
g4
S'C(CCl)OCCCl'
p2121
sg6
(lp2122
g741
ag19
aS'Changed IUPAC name from bis-2-chloroethyl ether to 1-chloro-2-(2-chloroethoxy)ethane for better handling/standardization.'
p2123
ag742
asg9
F0.20000000000000001
sg10
F-4.2300000000000004
sg11
g743
sg13
S" 2,2'-dichlorodiethyl ether"
p2124
ssS'mobley_2341732'
p2125
(dp2126
g4
S'CCCCC(=O)OC'
p2127
sg6
(lp2128
g19
asg9
F0.59999999999999998
sg10
F-2.5600000000000001
sg11
g20
sg13
S' methyl pentanoate'
p2129
ssS'mobley_6981465'
p2130
(dp2131
g4
S'CC(C)OC(=O)C'
p2132
sg6
(lp2133
g19
asg9
F0.59999999999999998
sg10
F-2.6400000000000001
sg11
g20
sg13
S' isopropyl acetate'
p2134
ssS'mobley_1527293'
p2135
(dp2136
g4
S'C[C@@H](c1ccc(c(c1)F)c2ccccc2)C(=O)O'
p2137
sg6
(lp2138
S'Renamed mobley_1527293 from flurbiprofen to (2S)-2-(3-fluoro-4-phenyl-phenyl)propanoic acid (the name from the 3D structure) since the former did not completely specify stereochemistry.\n'
p2139
asg9
F0.16
sg10
F-8.4199999999999999
sg11
g247
sg13
S' flurbiprofen'
p2140
ssS'mobley_3425174'
p2141
(dp2142
g4
S'C(F)Cl'
p2143
sg6
(lp2144
g19
asg9
F0.59999999999999998
sg10
F-0.77000000000000002
sg11
g20
sg13
S' chloro-fluoro-methane'
p2145
ssS'mobley_5393242'
p2146
(dp2147
g4
S'CCOP(=S)(OCC)Oc1cc(nc(n1)C(C)C)C'
p2148
sg6
(lp2149
g19
asg9
F0.13
sg10
F-6.4800000000000004
sg11
g107
sg13
S' diazinon'
p2150
ssS'mobley_9624458'
p2151
(dp2152
g4
S'C(CCl)CCl'
p2153
sg6
(lp2154
g19
asg9
F0.59999999999999998
sg10
F-1.8899999999999999
sg11
g20
sg13
S' 1,3-dichloropropane'
p2155
ssS'mobley_2316618'
p2156
(dp2157
g4
S'c1ccc2c(c1)C(=O)c3cccc(c3C2=O)NCCO'
p2158
sg6
(lp2159
g19
asg9
g155
(g157
S'\x9a\x99\x99\x99\x99\x99\xf1?'
tRp2160
sg10
g155
(g157
S'\xecQ\xb8\x1e\x85k,\xc0'
tRp2161
sg11
g160
sg13
S' 9,10-anthracenedione'
p2162
ssS'mobley_349850'
p2163
(dp2164
g4
S'Cc1ccc(cc1)C(=O)C'
p2165
sg6
(lp2166
g19
asg9
F0.59999999999999998
sg10
F-4.7000000000000002
sg11
g20
sg13
S' 1-(p-tolyl)ethanone'
p2167
ssS'mobley_186894'
p2168
(dp2169
g4
S'CCCS'
p2170
sg6
(lp2171
g8
asg9
F0.20000000000000001
sg10
F-1.1000000000000001
sg11
g12
sg13
S' propanethiol'
p2172
ssS'mobley_7463408'
p2173
(dp2174
g4
S'CCC(=O)Nc1ccc(c(c1)Cl)Cl'
p2175
sg6
(lp2176
g19
aS'Changed IUPAC name from propanil to N-(3,4-dichlorophenyl)propanimidic acid for better handling/standardization.'
p2177
asg9
F1.9299999999999999
sg10
F-7.7800000000000002
sg11
g107
sg13
S' propanil'
p2178
ssS'mobley_5627459'
p2179
(dp2180
g4
S'CC(C)C=O'
p2181
sg6
(lp2182
g19
asg9
F0.59999999999999998
sg10
F-2.8599999999999999
sg11
g20
sg13
S' 2-methylpropanal'
p2183
ssS'mobley_5123639'
p2184
(dp2185
g4
S'C[C@H](CC(C)C)O'
p2186
sg6
(lp2187
g19
asg9
F0.59999999999999998
sg10
F-3.73
sg11
g20
sg13
S' 4-methylpentan-2-ol'
p2188
ssS'mobley_2049967'
p2189
(dp2190
g4
S'CCSC'
p2191
sg6
(lp2192
g8
aS'Changed IUPAC name from ethylmethylsulfide to methylsulfanylethane for better handling/standardization.'
p2193
asg9
F0.20000000000000001
sg10
F-1.5
sg11
g12
sg13
S' methylsulfanylethane'
p2194
ssS'mobley_4759887'
p2195
(dp2196
g4
S'CCCCCCCI'
p2197
sg6
(lp2198
g19
asg9
F0.59999999999999998
sg10
F0.27000000000000002
sg11
g20
sg13
S' 1-iodoheptane'
p2199
ssS'mobley_4219614'
p2200
(dp2201
g4
S'c1cc(c(c(c1Cl)Cl)Cl)Cl'
p2202
sg6
(lp2203
g19
asg9
F0.59999999999999998
sg10
F-1.3400000000000001
sg11
g20
sg13
S' 1,2,3,4-tetrachlorobenzene'
p2204
ssS'mobley_511661'
p2205
(dp2206
g4
S'C=CC=C'
p2207
sg6
(lp2208
g8
asg9
F0.20000000000000001
sg10
F0.56000000000000005
sg11
S'10.1021/jo00891a006'
p2209
sg13
S' butadiene'
p2210
ssS'mobley_4463913'
p2211
(dp2212
g4
S'CC(OC(=O)C)OC(=O)C'
p2213
sg6
(lp2214
g19
asg9
F0.59999999999999998
sg10
F-4.9699999999999998
sg11
g713
sg13
S' 1-acetoxyethyl acetate'
p2215
ssS'mobley_6632459'
p2216
(dp2217
g4
S'CCC=O'
p2218
sg6
(lp2219
g19
asg9
F0.59999999999999998
sg10
F-3.4300000000000002
sg11
g20
sg13
S' propanal'
p2220
ssS'mobley_2183616'
p2221
(dp2222
g4
S'CC[C@H](C)c1ccccc1'
p2223
sg6
(lp2224
S'Renamed mobley_2183616 from sec-butylbenzene to [(1S)-1-methylpropyl]benzene (the name from the 3D structure) since the former did not completely specify stereochemistry.\n'
p2225
asg9
F0.59999999999999998
sg10
F-0.45000000000000001
sg11
g20
sg13
S' sec-butylbenzene'
p2226
ssS'mobley_6416775'
p2227
(dp2228
g4
S'CCCC1CCCC1'
p2229
sg6
(lp2230
g19
asg9
F0.59999999999999998
sg10
F2.1299999999999999
sg11
g20
sg13
S' propylcyclopentane'
p2231
ssS'mobley_902954'
p2232
(dp2233
g4
S'CCCCO[N+](=O)[O-]'
p2234
sg6
(lp2235
g19
asg9
F0.10000000000000001
sg10
F-2.0899999999999999
sg11
g107
sg13
S' butyl nitrate'
p2236
ssS'mobley_7463799'
p2237
(dp2238
g4
S'c1ccc(cc1)CCCO'
p2239
sg6
(lp2240
g19
asg9
F0.59999999999999998
sg10
F-6.9199999999999999
sg11
g20
sg13
S' 3-phenylpropan-1-ol'
p2241
ssS'mobley_3969312'
p2242
(dp2243
g4
S'c1ccc(cc1)C=O'
p2244
sg6
(lp2245
g19
asg9
F0.59999999999999998
sg10
F-4.0199999999999996
sg11
g20
sg13
S' benzaldehyde'
p2246
ssS'mobley_6248915'
p2247
(dp2248
g4
S'CCCCCCCCN'
p2249
sg6
(lp2250
g19
asg9
F0.59999999999999998
sg10
F-3.6499999999999999
sg11
g20
sg13
S' octan-1-amine'
p2251
ssS'mobley_1881249'
p2252
(dp2253
g4
S'CCCC(=O)C'
p2254
sg6
(lp2255
g19
asg9
F0.59999999999999998
sg10
F-3.52
sg11
g20
sg13
S' pentan-2-one'
p2256
ssS'mobley_8449031'
p2257
(dp2258
g4
S'CCN(CC)CC'
p2259
sg6
(lp2260
g19
asg9
F0.59999999999999998
sg10
F-3.2200000000000002
sg11
g20
sg13
S' N,N-diethylethanamine'
p2261
ssS'mobley_5467162'
p2262
(dp2263
g4
S'CC(C)(C)c1ccc(cc1)O'
p2264
sg6
(lp2265
g19
asg9
F0.59999999999999998
sg10
F-5.9100000000000001
sg11
g20
sg13
S' 4-tert-butylphenol'
p2266
ssS'mobley_6522117'
p2267
(dp2268
g4
S'CCOP(=O)(OCC)O/C(=C/Cl)/c1ccc(cc1Cl)Cl'
p2269
sg6
(lp2270
S'Renamed mobley_6522117 from 2-chloro-1-(2,4-dichlorophenyl)ethenyl diethyl phosphate to [(E)-2-chloro-1-(2,4-dichlorophenyl)vinyl] diethyl phosphate (the name from the 3D structure) since the former did not completely specify stereochemistry.\n'
p2271
asg9
F1.3700000000000001
sg10
F-7.0700000000000003
sg11
g107
sg13
S' Chlorfenvinphos'
p2272
ssS'mobley_7977115'
p2273
(dp2274
g4
S'CCC[C@H](CC)O'
p2275
sg6
(lp2276
S'Renamed mobley_7977115 from hexan-3-ol to (3S)-hexan-3-ol (the name from the 3D structure) since the former did not completely specify stereochemistry.\n'
p2277
asg9
F0.59999999999999998
sg10
F-4.0599999999999996
sg11
g20
sg13
S' hexan-3-ol'
p2278
ssS'mobley_8809274'
p2279
(dp2280
g4
S'c1ccc(cc1)C(F)(F)F'
p2281
sg6
(lp2282
g19
asg9
F0.59999999999999998
sg10
F-0.25
sg11
S'10.1039/P29940001777'
p2283
sg13
S' trifluoromethylbenzene'
p2284
ssS'mobley_5063386'
p2285
(dp2286
g4
S'c1ccc(c(c1)[N+](=O)[O-])O'
p2287
sg6
(lp2288
g19
asg9
F0.59999999999999998
sg10
F-4.5800000000000001
sg11
g20
sg13
S' 2-nitrophenol'
p2289
ssS'mobley_2958326'
p2290
(dp2291
g4
S'CCCNCCC'
p2292
sg6
(lp2293
g19
asg9
F0.59999999999999998
sg10
F-3.6499999999999999
sg11
g20
sg13
S' N-propylpropan-1-amine'
p2294
ssS'mobley_8052240'
p2295
(dp2296
g4
S'c1ccc2c(c1)C(=O)c3cccc(c3C2=O)N'
p2297
sg6
(lp2298
g19
asg9
g155
(g157
S'\xaeG\xe1z\x14\xae\xe7?'
tRp2299
sg10
g155
(g157
S'\xe1z\x14\xaeG\xe1"\xc0'
tRp2300
sg11
g160
sg13
S' 1-aminoanthraquinone'
p2301
ssS'mobley_590519'
p2302
(dp2303
g4
S'CCSSCC'
p2304
sg6
(lp2305
g19
asg9
F0.59999999999999998
sg10
F-1.6399999999999999
sg11
g20
sg13
S' ethyldisulfanylethane'
p2306
ssS'mobley_6309289'
p2307
(dp2308
g4
S'C1CCNCC1'
p2309
sg6
(lp2310
g19
asg9
F0.59999999999999998
sg10
F-5.1100000000000003
sg11
g20
sg13
S' piperidine'
p2311
ssS'mobley_4059279'
p2312
(dp2313
g4
S'CN1CCN(CC1)C'
p2314
sg6
(lp2315
g19
asg9
F0.59999999999999998
sg10
F-7.5800000000000001
sg11
g713
sg13
S' 1,4-dimethylpiperazine'
p2316
ssS'mobley_9733743'
p2317
(dp2318
g4
S'CCCCN'
p2319
sg6
(lp2320
g19
asg9
F0.59999999999999998
sg10
F-4.2400000000000002
sg11
g20
sg13
S' butan-1-amine'
p2321
ssS'mobley_252413'
p2322
(dp2323
g4
S'CCCC(C)(C)C'
p2324
sg6
(lp2325
g19
asg9
F0.59999999999999998
sg10
F2.8799999999999999
sg11
g20
sg13
S' 2,2-dimethylpentane'
p2326
ssS'mobley_1144156'
p2327
(dp2328
g4
S'CCOCC'
p2329
sg6
(lp2330
g19
asg9
F0.59999999999999998
sg10
F-1.5900000000000001
sg11
g20
sg13
S' ethoxyethane'
p2331
ssS'mobley_2972906'
p2332
(dp2333
g4
S'c1ccsc1'
p2334
sg6
(lp2335
g8
asg9
F0.20000000000000001
sg10
F-1.3999999999999999
sg11
g12
sg13
S' thiophene'
p2336
ssS'mobley_3266352'
p2337
(dp2338
g4
S'CN(CC(F)(F)F)c1ccccc1'
p2339
sg6
(lp2340
g19
asg9
F0.59999999999999998
sg10
F-1.9199999999999999
sg11
S'10.1139/v93-262'
p2341
sg13
S' N-methyl-N-(2,2,2-trifluoroethyl)aniline'
p2342
ssS'mobley_1231151'
p2343
(dp2344
g4
S'CC(C)Cl'
p2345
sg6
(lp2346
g19
asg9
F0.59999999999999998
sg10
F-0.25
sg11
g20
sg13
S' 2-chloropropane'
p2347
ssS'mobley_4035953'
p2348
(dp2349
g4
S'Cc1ccccc1O'
p2350
sg6
(lp2351
g8
asg9
F0.20000000000000001
sg10
F-5.9000000000000004
sg11
g12
sg13
S' o-cresol'
p2352
ssS'mobley_299266'
p2353
(dp2354
g4
S'CC(=C)C'
p2355
sg6
(lp2356
g19
asg9
F0.59999999999999998
sg10
F1.1599999999999999
sg11
g20
sg13
S' 2-methylprop-1-ene'
p2357
ssS'mobley_7774695'
p2358
(dp2359
g4
S'CNc1ccccc1'
p2360
sg6
(lp2361
g19
asg9
F0.59999999999999998
sg10
F-4.6900000000000004
sg11
g20
sg13
S' N-methylaniline'
p2362
ssS'mobley_7066554'
p2363
(dp2364
g4
S'c1cc(ccc1O)Cl'
p2365
sg6
(lp2366
g19
asg9
F0.59999999999999998
sg10
F-7.0300000000000002
sg11
g20
sg13
S' 4-chlorophenol'
p2367
ssS'mobley_1967551'
p2368
(dp2369
g4
S'CC=O'
p2370
sg6
(lp2371
g19
asg9
F0.59999999999999998
sg10
F-3.5
sg11
g20
sg13
S' acetaldehyde'
p2372
ssS'mobley_7326982'
p2373
(dp2374
g4
S'CC(C)O'
p2375
sg6
(lp2376
g19
asg9
F0.59999999999999998
sg10
F-4.7400000000000002
sg11
g20
sg13
S' propan-2-ol'
p2377
ssS'mobley_7009711'
p2378
(dp2379
g4
S'Cc1cc(cc(c1)O)C'
p2380
sg6
(lp2381
g19
asg9
F0.59999999999999998
sg10
F-6.2699999999999996
sg11
g20
sg13
S' 3,5-dimethylphenol'
p2382
ssS'mobley_9705941'
p2383
(dp2384
g4
S'Cc1cccs1'
p2385
sg6
(lp2386
g19
asg9
F0.59999999999999998
sg10
F-1.3799999999999999
sg11
g20
sg13
S' 2-methylthiophene'
p2387
ssS'mobley_4149784'
p2388
(dp2389
g4
S'c1cc2c(cc1Cl)Oc3ccc(cc3O2)Cl'
p2390
sg6
(lp2391
g19
asg9
F0.12
sg10
F-3.6699999999999999
sg11
g123
sg13
S' 2,7-dichlorodibenzo-p-dioxin'
p2392
ssS'mobley_2213823'
p2393
(dp2394
g4
S'CCC(C)CC'
p2395
sg6
(lp2396
g19
asg9
F0.59999999999999998
sg10
F2.5099999999999998
sg11
g20
sg13
S' 3-methylpentane'
p2397
ssS'mobley_7754849'
p2398
(dp2399
g4
S'CCOP(=S)(OCC)SCSP(=S)(OCC)OCC'
p2400
sg6
(lp2401
g19
asg9
F1.3700000000000001
sg10
F-6.0999999999999996
sg11
g107
sg13
S' ethion'
p2402
ssS'mobley_8885088'
p2403
(dp2404
g4
S'C1CC=CC1'
p2405
sg6
(lp2406
g19
asg9
F0.59999999999999998
sg10
F0.56000000000000005
sg11
g20
sg13
S' cyclopentene'
p2407
ssS'mobley_3359593'
p2408
(dp2409
g4
S'CCCc1ccc(c(c1)OC)O'
p2410
sg6
(lp2411
g19
asg9
F0.17999999999999999
sg10
F-5.2599999999999998
sg11
g160
sg13
S' 4-propylguaiacol'
p2412
ssS'mobley_7417968'
p2413
(dp2414
g4
S'CCOCCOC(=O)C'
p2415
sg6
(lp2416
g19
asg9
g155
(g157
S'\x9a\x99\x99\x99\x99\x99\xb9?'
tRp2417
sg10
g155
(g157
S'=\n\xd7\xa3p=\x15\xc0'
tRp2418
sg11
g160
sg13
S' 2-ethoxyethyl acetate'
p2419
ssS'mobley_9653690'
p2420
(dp2421
g4
S'CC1=CC[C@H](C[C@@H]1O)C(=C)C'
p2422
sg6
(lp2423
g19
asg9
F0.42999999999999999
sg10
F-4.4400000000000004
sg11
g160
sg13
S' trans-carveol'
p2424
ssS'mobley_4699732'
p2425
(dp2426
g4
S'C[C@@H](CCl)Cl'
p2427
sg6
(lp2428
S'Renamed mobley_4699732 from 1,2-dichloropropane to (2S)-1,2-dichloropropane (the name from the 3D structure) since the former did not completely specify stereochemistry.\n'
p2429
asg9
F0.59999999999999998
sg10
F-1.27
sg11
g20
sg13
S' 1,2-dichloropropane'
p2430
ssS'mobley_4305650'
p2431
(dp2432
g4
S'CCC#N'
p2433
sg6
(lp2434
g19
asg9
F0.59999999999999998
sg10
F-3.8399999999999999
sg11
g20
sg13
S' propanenitrile'
p2435
ssS'mobley_628951'
p2436
(dp2437
g4
S'c1cc(c(c(c1)Cl)c2c(cccc2Cl)Cl)Cl'
p2438
sg6
(lp2439
g19
asg9
F0.12
sg10
F-2.2799999999999998
sg11
g123
sg13
S" 2,2',6,6'-tetrachlorobiphenyl"
p2440
ssS'mobley_4883284'
p2441
(dp2442
g4
S'c1ccc(cc1)N'
p2443
sg6
(lp2444
g19
asg9
F0.59999999999999998
sg10
F-5.4900000000000002
sg11
g20
sg13
S' aniline'
p2445
ssS'mobley_3210206'
p2446
(dp2447
g4
S'C[C@@H](CO[N+](=O)[O-])O[N+](=O)[O-]'
p2448
sg6
(lp2449
g19
asg9
F0.10000000000000001
sg10
F-4.9500000000000002
sg11
g107
sg13
S' 1,2-dinitroxypropane'
p2450
ssS'mobley_2802855'
p2451
(dp2452
g4
S'CCCCBr'
p2453
sg6
(lp2454
g19
asg9
F0.59999999999999998
sg10
F-0.40000000000000002
sg11
g20
sg13
S' 1-bromobutane'
p2455
ssS'mobley_1803862'
p2456
(dp2457
g4
S'CCC(C)C'
p2458
sg6
(lp2459
g19
asg9
F0.59999999999999998
sg10
F2.3799999999999999
sg11
g20
sg13
S' isopentane'
p2460
ssS'mobley_1858644'
p2461
(dp2462
g4
S'c1ccc(cc1)CCO'
p2463
sg6
(lp2464
g19
asg9
F0.59999999999999998
sg10
F-6.79
sg11
g20
sg13
S' 2-phenylethanol'
p2465
ssS'mobley_8467917'
p2466
(dp2467
g4
S'CCCC/C=C/C'
p2468
sg6
(lp2469
S'Renamed mobley_8467917 from hept-2-ene to (E)-hept-2-ene (the name from the 3D structure) since the former did not completely specify stereochemistry.\n'
p2470
asg9
F0.59999999999999998
sg10
F1.6799999999999999
sg11
g20
sg13
S' hept-2-ene'
p2471
ssS'mobley_7017274'
p2472
(dp2473
g4
S'c1ccc2c(c1)ccc3c2cccc3'
p2474
sg6
(lp2475
g19
asg9
F0.59999999999999998
sg10
F-3.8799999999999999
sg11
g20
sg13
S' phenanthrene'
p2476
ssS'mobley_8746821'
p2477
(dp2478
g4
S'Cc1cccnc1C'
p2479
sg6
(lp2480
g19
asg9
F0.59999999999999998
sg10
F-4.8200000000000003
sg11
g20
sg13
S' 2,3-dimethylpyridine'
p2481
ssS'mobley_4177472'
p2482
(dp2483
g4
S'CC(C)C(C)C(C)C'
p2484
sg6
(lp2485
g19
asg9
F0.59999999999999998
sg10
F2.5600000000000001
sg11
g20
sg13
S' 2,3,4-trimethylpentane'
p2486
ssS'mobley_8522124'
p2487
(dp2488
g4
S'CCCCCCC#C'
p2489
sg6
(lp2490
g19
asg9
F0.59999999999999998
sg10
F0.70999999999999996
sg11
g20
sg13
S' oct-1-yne'
p2491
ssS'mobley_1723043'
p2492
(dp2493
g4
S'C1(C(C(C1(F)F)(F)F)(F)F)(F)F'
p2494
sg6
(lp2495
g19
asg9
F0.029999999999999999
sg10
F3.4300000000000002
sg11
g247
sg13
S' octafluorocyclobutane'
p2496
ssS'mobley_2245668'
p2497
(dp2498
g4
S'CC(C)CO'
p2499
sg6
(lp2500
g19
asg9
F0.59999999999999998
sg10
F-4.5
sg11
g20
sg13
S' 2-methylpropan-1-ol'
p2501
ssS'mobley_1592519'
p2502
(dp2503
g4
S'CCCCCC(=O)OCC'
p2504
sg6
(lp2505
g19
asg9
F0.59999999999999998
sg10
F-2.23
sg11
g20
sg13
S' ethyl hexanoate'
p2506
ssS'mobley_129464'
p2507
(dp2508
g4
S'CCCCOCCCC'
p2509
sg6
(lp2510
g19
asg9
F0.59999999999999998
sg10
F-0.82999999999999996
sg11
g20
sg13
S' 1-butoxybutane'
p2511
ssS'mobley_9434451'
p2512
(dp2513
g4
S'CC(C)Br'
p2514
sg6
(lp2515
g19
asg9
F0.59999999999999998
sg10
F-0.47999999999999998
sg11
g20
sg13
S' 2-bromopropane'
p2516
ssS'mobley_7261305'
p2517
(dp2518
g4
S'NN'
p2519
sg6
(lp2520
g19
asg9
F0.59999999999999998
sg10
F-9.3000000000000007
sg11
g20
sg13
S' hydrazine'
p2521
ssS'mobley_8191186'
p2522
(dp2523
g4
S'C(C(F)(F)F)Cl'
p2524
sg6
(lp2525
g19
asg9
F0.59999999999999998
sg10
F0.059999999999999998
sg11
g20
sg13
S' 2-chloro-1,1,1-trifluoro-ethane'
p2526
ssS'mobley_3040612'
p2527
(dp2528
g4
S'CCc1ccccc1C'
p2529
sg6
(lp2530
g19
asg9
g155
(g157
S'\x9a\x99\x99\x99\x99\x99\xb9?'
tRp2531
sg10
g155
(g157
S'333333\xeb\xbf'
tRp2532
sg11
g160
sg13
S' 1-ethyl-2-methylbenzene'
p2533
ssS'mobley_667278'
p2534
(dp2535
g4
S'c1cc(c(c(c1c2cc(c(c(c2Cl)Cl)Cl)Cl)Cl)Cl)Cl'
p2536
sg6
(lp2537
g19
asg9
F0.10000000000000001
sg10
F-4.4000000000000004
sg11
g123
sg13
S" 2,2',3,3',4,4',5-heptachlorobiphenyl"
p2538
ssS'mobley_6911232'
p2539
(dp2540
g4
S'CCOC'
p2541
sg6
(lp2542
g19
asg9
F0.59999999999999998
sg10
F-2.1000000000000001
sg11
g20
sg13
S' methoxyethane'
p2543
ssS'mobley_8057732'
p2544
(dp2545
g4
S'c1cc(cc(c1)Cl)O'
p2546
sg6
(lp2547
g19
asg9
F0.59999999999999998
sg10
F-6.6200000000000001
sg11
g20
sg13
S' 3-chlorophenol'
p2548
ssS'mobley_5310099'
p2549
(dp2550
g4
S'CCCCC=C'
p2551
sg6
(lp2552
g19
asg9
F0.59999999999999998
sg10
F1.5800000000000001
sg11
g20
sg13
S' hex-1-ene'
p2553
ssS'mobley_6198745'
p2554
(dp2555
g4
S'CC(=O)OCC(COC(=O)C)OC(=O)C'
p2556
sg6
(lp2557
g741
ag19
aS'Changed IUPAC name from glycerol triacetate to 2,3-diacetoxypropyl acetate for better handling/standardization.'
p2558
ag742
asg9
F0.20000000000000001
sg10
F-8.8399999999999999
sg11
g743
sg13
S' 2,3-diacetoxypropyl acetate'
p2559
ssS'mobley_3201701'
p2560
(dp2561
g4
S'Cc1c(nc(nc1OC(=O)N(C)C)N(C)C)C'
p2562
sg6
(lp2563
g19
aS'Changed IUPAC name from pirimor to 2-(dimethylamino)-5,6-dimethylpyrimidin-4-yl N,N-dimethylcarbamate for better handling/standardization.'
p2564
asg9
F1.9299999999999999
sg10
F-9.4100000000000001
sg11
g107
sg13
S' pirimor'
p2565
ssS'mobley_4690963'
p2566
(dp2567
g4
S'CCOCCOCC'
p2568
sg6
(lp2569
g19
asg9
F0.59999999999999998
sg10
F-3.54
sg11
g20
sg13
S' 1,2-diethoxyethane'
p2570
ssS'mobley_1899443'
p2571
(dp2572
g4
S'CCCC(=C)C'
p2573
sg6
(lp2574
g19
asg9
F0.59999999999999998
sg10
F1.47
sg11
g20
sg13
S' 2-methylpent-1-ene'
p2575
ssS'mobley_3187514'
p2576
(dp2577
g4
S'Cc1ccccc1N'
p2578
sg6
(lp2579
g19
asg9
F0.59999999999999998
sg10
F-5.5300000000000002
sg11
g20
sg13
S' 2-methylaniline'
p2580
ssS'mobley_4964807'
p2581
(dp2582
g4
S'CC(=O)CO[N+](=O)[O-]'
p2583
sg6
(lp2584
g19
asg9
F0.10000000000000001
sg10
F-5.9900000000000002
sg11
g107
sg13
S' nitroxyacetone'
p2585
ssS'mobley_4338603'
p2586
(dp2587
g4
S'c1c(=O)[nH]c(=O)[nH]c1Cl'
p2588
sg6
(lp2589
g19
asg9
F1.22
sg10
F-15.83
sg11
g247
sg13
S' 6-chlorouracil'
p2590
ssS'mobley_210639'
p2591
(dp2592
g4
S'CC(C)I'
p2593
sg6
(lp2594
g19
asg9
F0.59999999999999998
sg10
F-0.46000000000000002
sg11
g20
sg13
S' 2-iodopropane'
p2595
ssS'mobley_1075836'
p2596
(dp2597
g4
S'CCC(=O)OC'
p2598
sg6
(lp2599
g19
asg9
F0.59999999999999998
sg10
F-2.9300000000000002
sg11
g20
sg13
S' methyl propanoate'
p2600
ssS'mobley_6091882'
p2601
(dp2602
g4
S'C=C'
p2603
sg6
(lp2604
g19
asg9
F0.59999999999999998
sg10
F1.28
sg11
g20
sg13
S' ethylene'
p2605
ssS'mobley_8514745'
p2606
(dp2607
g4
S'CCCCCOC(=O)C'
p2608
sg6
(lp2609
g19
asg9
F0.59999999999999998
sg10
F-2.5099999999999998
sg11
g20
sg13
S' pentyl acetate'
p2610
ssS'mobley_8668219'
p2611
(dp2612
g4
S'CC[C@@H](C)C(C)C'
p2613
sg6
(lp2614
S'Renamed mobley_8668219 from 2,3-dimethylpentane to (3R)-2,3-dimethylpentane (the name from the 3D structure) since the former did not completely specify stereochemistry.\n'
p2615
asg9
F0.59999999999999998
sg10
F2.52
sg11
g20
sg13
S' 2,3-dimethylpentane'
p2616
ssS'mobley_9729792'
p2617
(dp2618
g4
S'C1C=CC=CC=C1'
p2619
sg6
(lp2620
g19
asg9
F0.59999999999999998
sg10
F-0.98999999999999999
sg11
g20
sg13
S' cyclohepta-1,3,5-triene'
p2621
ssS'mobley_2784376'
p2622
(dp2623
g4
S'C1CC1'
p2624
sg6
(lp2625
g19
asg9
F0.59999999999999998
sg10
F0.75
sg11
g20
sg13
S' cyclopropane'
p2626
ssS'mobley_8739734'
p2627
(dp2628
g4
S'CC(C)C(=O)C'
p2629
sg6
(lp2630
g19
asg9
F0.59999999999999998
sg10
F-3.2400000000000002
sg11
g20
sg13
S' 3-methylbutan-2-one'
p2631
ssS'mobley_6338073'
p2632
(dp2633
g4
S'CCNc1nc(nc(n1)SC)NC(C)(C)C'
p2634
sg6
(lp2635
g19
aS'Changed IUPAC name from terbutryn to 2-N-tert-butyl-4-N-ethyl-6-(methylsulfanyl)-1,3,5-triazine-2,4-diamine for better handling/standardization.'
p2636
asg9
F0.41999999999999998
sg10
F-6.6799999999999997
sg11
g107
sg13
S' terbutryn'
p2637
ssS'mobley_4884177'
p2638
(dp2639
g4
S'CCc1cccnc1'
p2640
sg6
(lp2641
g19
asg9
F0.59999999999999998
sg10
F-4.5899999999999999
sg11
g20
sg13
S' 3-ethylpyridine'
p2642
ssS'mobley_6081058'
p2643
(dp2644
g4
S'CCCCC/C=C/C=O'
p2645
sg6
(lp2646
S'Renamed mobley_6081058 from oct-2-enal to (E)-oct-2-enal (the name from the 3D structure) since the former did not completely specify stereochemistry.\n'
p2647
asg9
F0.59999999999999998
sg10
F-3.4300000000000002
sg11
g20
sg13
S' oct-2-enal'
p2648
ssS'mobley_9257453'
p2649
(dp2650
g4
S'c1cc(c(cc1O)Cl)Cl'
p2651
sg6
(lp2652
g19
asg9
g155
(g157
S'\x9a\x99\x99\x99\x99\x99\xb9?'
tRp2653
sg10
g155
(g157
S')\\\x8f\xc2\xf5(\x1d\xc0'
tRp2654
sg11
g160
sg13
S' 3,4-dichlorophenol'
p2655
ssS'mobley_36119'
p2656
(dp2657
g4
S'CCCCCCCCO'
p2658
sg6
(lp2659
g19
asg9
F0.59999999999999998
sg10
F-4.0899999999999999
sg11
g20
sg13
S' octan-1-ol'
p2660
ssS'mobley_5079234'
p2661
(dp2662
g4
S'CCCCCCCO'
p2663
sg6
(lp2664
g19
asg9
F0.59999999999999998
sg10
F-4.21
sg11
g20
sg13
S' heptan-1-ol'
p2665
ssS'mobley_2487143'
p2666
(dp2667
g4
S'CCCCC(=O)C'
p2668
sg6
(lp2669
g19
asg9
F0.59999999999999998
sg10
F-3.2799999999999998
sg11
g20
sg13
S' hexan-2-one'
p2670
ssS'mobley_430089'
p2671
(dp2672
g4
S'CCCC#C'
p2673
sg6
(lp2674
g19
asg9
F0.59999999999999998
sg10
F0.01
sg11
g20
sg13
S' pent-1-yne'
p2675
ssS'mobley_7829570'
p2676
(dp2677
g4
S'CCCC[N@](CC)c1c(cc(cc1[N+](=O)[O-])C(F)(F)F)[N+](=O)[O-]'
p2678
sg6
(lp2679
g19
aS'Changed IUPAC name from benefin to N-butyl-N-ethyl-2,6-dinitro-4-(trifluoromethyl)aniline for better handling/standardization.'
p2680
asg9
F1.9299999999999999
sg10
F-3.5099999999999998
sg11
g107
sg13
S' benefin'
p2681
ssS'mobley_5890803'
p2682
(dp2683
g4
S'CCCOC(=O)CC'
p2684
sg6
(lp2685
g19
asg9
F0.59999999999999998
sg10
F-2.4399999999999999
sg11
g20
sg13
S' propyl propanoate'
p2686
ssS'mobley_3269565'
p2687
(dp2688
g4
S'CC(C)OC'
p2689
sg6
(lp2690
g19
asg9
F0.59999999999999998
sg10
F-2.0099999999999998
sg11
g20
sg13
S' 2-methoxypropane'
p2691
ssS'mobley_1722522'
p2692
(dp2693
g4
S'CCCC(=O)OCC'
p2694
sg6
(lp2695
g19
asg9
F0.59999999999999998
sg10
F-2.4900000000000002
sg11
g20
sg13
S' ethyl butanoate'
p2696
ssS'mobley_766666'
p2697
(dp2698
g4
S'C(=C(Cl)Cl)Cl'
p2699
sg6
(lp2700
g19
asg9
F0.59999999999999998
sg10
F-0.44
sg11
g20
sg13
S' 1,1,2-trichloroethylene'
p2701
ssS'mobley_4188615'
p2702
(dp2703
g4
S'CN(C)C(=O)c1ccccc1'
p2704
sg6
(lp2705
g19
asg9
F0.59999999999999998
sg10
F-9.2899999999999991
sg11
g359
sg13
S' N,N-dimethylbenzamide'
p2706
ssS'mobley_3999471'
p2707
(dp2708
g4
S'CC(Cl)Cl'
p2709
sg6
(lp2710
g19
asg9
F0.59999999999999998
sg10
F-0.83999999999999997
sg11
g20
sg13
S' 1,1-dichloroethane'
p2711
ssS'mobley_5747981'
p2712
(dp2713
g4
S'COCC(OC)(OC)OC'
p2714
sg6
(lp2715
g19
asg9
F0.59999999999999998
sg10
F-5.7300000000000004
sg11
g26
sg13
S' 1,1,1,2-tetramethoxyethane'
p2716
ssS'mobley_9671033'
p2717
(dp2718
g4
S'CCC[N+](=O)[O-]'
p2719
sg6
(lp2720
g19
asg9
F0.59999999999999998
sg10
F-3.3399999999999999
sg11
g20
sg13
S' 1-nitropropane'
p2721
ssS'mobley_525934'
p2722
(dp2723
g4
S'CS'
p2724
sg6
(lp2725
g8
asg9
F0.20000000000000001
sg10
F-1.2
sg11
g12
sg13
S' methanethiol'
p2726
ssS'mobley_8578590'
p2727
(dp2728
g4
S'CS(=O)C'
p2729
sg6
(lp2730
g19
aS'Updated 10/22/13 using the mean of experimental data from two sources from J. Peter Guthrie --  Watts & Brimblecombe (1987) and Taft & Abraham et al. (1985). Uncertainty taken as the standard deviation across the two datapoints..\n'
p2731
asg9
g155
(g157
S'8\n\xd7\xa3p=\xe2?'
tRp2732
sg10
g155
(g157
S'\x90\xc2\xf5(\\\x8f"\xc0'
tRp2733
sg11
S'10.1080/09593338709384509 and 10.1038/313384a0'
p2734
sg13
S' methylsulfinylmethane'
p2735
ssS'mobley_1821184'
p2736
(dp2737
g4
S'Cc1c[nH]c2c1cccc2'
p2738
sg6
(lp2739
g19
asg9
F0.59999999999999998
sg10
F-5.8799999999999999
sg11
g1636
sg13
S' 3-methyl-1H-indole'
p2740
ssS'mobley_6571751'
p2741
(dp2742
g4
S'CC1=CCCCC1'
p2743
sg6
(lp2744
g19
asg9
F0.59999999999999998
sg10
F0.67000000000000004
sg11
g20
sg13
S' 1-methylcyclohexene'
p2745
ssS'mobley_4553008'
p2746
(dp2747
g4
S'c1cc(ccc1Cl)Cl'
p2748
sg6
(lp2749
g19
asg9
F0.59999999999999998
sg10
F-1.01
sg11
g20
sg13
S' 1,4-dichlorobenzene'
p2750
ssS'mobley_5690766'
p2751
(dp2752
g4
S'C=CCCC=C'
p2753
sg6
(lp2754
g19
asg9
F0.59999999999999998
sg10
F1.01
sg11
g20
sg13
S' hexa-1,5-diene'
p2755
ssS'mobley_7532833'
p2756
(dp2757
g4
S'CC#N'
p2758
sg6
(lp2759
g19
asg9
F0.59999999999999998
sg10
F-3.8799999999999999
sg11
S'10.1021/jp0264477'
p2760
sg13
S' acetonitrile'
p2761
ssS'mobley_3398536'
p2762
(dp2763
g4
S'c1ccc(cc1)I'
p2764
sg6
(lp2765
g19
asg9
F0.59999999999999998
sg10
F-1.74
sg11
g20
sg13
S' iodobenzene'
p2766
ssS'mobley_3546460'
p2767
(dp2768
g4
S'CCCCCCO'
p2769
sg6
(lp2770
g19
asg9
F0.59999999999999998
sg10
F-4.4000000000000004
sg11
g20
sg13
S' hexan-1-ol'
p2771
ssS'mobley_4013838'
p2772
(dp2773
g4
S'CC(C)C(=O)C(C)C'
p2774
sg6
(lp2775
g19
asg9
F0.59999999999999998
sg10
F-2.7400000000000002
sg11
g20
sg13
S' 2,4-dimethylpentan-3-one'
p2776
ssS'mobley_2782339'
p2777
(dp2778
g4
S'c1ccc2c(c1)C(=O)NC2=O'
p2779
sg6
(lp2780
g19
asg9
F0.5
sg10
F-9.6099999999999994
sg11
g247
sg13
S' phthalimide'
p2781
ssS'mobley_6727159'
p2782
(dp2783
g4
S'C(CO[N+](=O)[O-])O'
p2784
sg6
(lp2785
g19
aS'Changed IUPAC name from ethyleneglycol mononitrate to 2-(nitrooxy)ethan-1-ol for better handling/standardization.'
p2786
asg9
F0.10000000000000001
sg10
F-8.1799999999999997
sg11
g107
sg13
S' 2-(nitrooxy)ethan-1-ol'
p2787
ssS'mobley_4639255'
p2788
(dp2789
g4
S'C(CO)O'
p2790
sg6
(lp2791
g19
asg9
F0.59999999999999998
sg10
F-9.3000000000000007
sg11
g20
sg13
S' ethylene glycol'
p2792
ssS'mobley_5006685'
p2793
(dp2794
g4
S'CC(=C)[C@H]1CCC(=CC1)C=O'
p2795
sg6
(lp2796
S'Renamed mobley_5006685 from 4-(1-Methylethenyl)-1-cyclohexene-1-carboxaldehyde to (4S)-4-isopropenylcyclohexene-1-carbaldehyde (the name from the 3D structure) since the former did not completely specify stereochemistry.\n'
p2797
asg9
g155
(g157
S'\xc3\xf5(\\\x8f\xc2\xc5?'
tRp2798
sg10
g155
(g157
S'\\\x8f\xc2\xf5(\\\x10\xc0'
tRp2799
sg11
g160
sg13
S' perillaldehyde'
p2800
ssS'mobley_9565165'
p2801
(dp2802
g4
S'c1ccc-2c(c1)Cc3c2cccc3'
p2803
sg6
(lp2804
g19
asg9
F0.59999999999999998
sg10
F-3.3500000000000001
sg11
g20
sg13
S' 9H-fluorene'
p2805
ssS'mobley_2609604'
p2806
(dp2807
g4
S'CCC(C)(C)CC'
p2808
sg6
(lp2809
g19
asg9
F0.59999999999999998
sg10
F2.5600000000000001
sg11
g20
sg13
S' 3,3-dimethylpentane'
p2810
ssS'mobley_5747188'
p2811
(dp2812
g4
S'Cc1ccccc1[N+](=O)[O-]'
p2813
sg6
(lp2814
g19
asg9
F0.59999999999999998
sg10
F-3.5800000000000001
sg11
g20
sg13
S' 1-methyl-2-nitro-benzene'
p2815
ssS'mobley_9626434'
p2816
(dp2817
g4
S'CCOCCO'
p2818
sg6
(lp2819
g19
asg9
F0.59999999999999998
sg10
F-6.6900000000000004
sg11
g20
sg13
S' 2-ethoxyethanol'
p2820
ssS'mobley_4587267'
p2821
(dp2822
g4
S'C([C@H]([C@H]([C@@H]([C@@H](CO)O)O)O)O)O'
p2823
sg6
(lp2824
g19
asg9
g155
(g157
S'{\x14\xaeG\xe1z\xd4?'
tRp2825
sg10
g155
(g157
S'\x1f\x85\xebQ\xb8\x9e7\xc0'
tRp2826
sg11
g160
sg13
S' mannitol'
p2827
ssS'mobley_172879'
p2828
(dp2829
g4
S'c1ccc2c(c1)Oc3ccccc3O2'
p2830
sg6
(lp2831
g19
asg9
F0.10000000000000001
sg10
F-3.1499999999999999
sg11
g123
sg13
S' dibenzo-p-dioxin'
p2832
ssS'mobley_2457863'
p2833
(dp2834
g4
S'COc1cccc(c1)O'
p2835
sg6
(lp2836
g19
asg9
F0.59999999999999998
sg10
F-7.6600000000000001
sg11
g20
sg13
S' 3-methoxyphenol'
p2837
ssS'mobley_2143011'
p2838
(dp2839
g4
S'CC(C)C=C'
p2840
sg6
(lp2841
g19
asg9
F0.59999999999999998
sg10
F1.8300000000000001
sg11
g2760
sg13
S' 3-methylbut-1-ene'
p2842
ssS'mobley_2837389'
p2843
(dp2844
g4
S'c1cc[nH]c1'
p2845
sg6
(lp2846
g19
asg9
F0.59999999999999998
sg10
F-4.7800000000000002
sg11
g20
sg13
S' pyrrole'
p2847
ssS'mobley_8789465'
p2848
(dp2849
g4
S'c1ccc(c(c1)O)I'
p2850
sg6
(lp2851
g19
asg9
F0.59999999999999998
sg10
F-6.2000000000000002
sg11
g20
sg13
S' 2-iodophenol'
p2852
ssS'mobley_2859600'
p2853
(dp2854
g4
S'C=Cc1ccccc1'
p2855
sg6
(lp2856
g19
asg9
F0.59999999999999998
sg10
F-1.24
sg11
g20
sg13
S' styrene'
p2857
ssS'mobley_1855337'
p2858
(dp2859
g4
S'c1c(cc(c(c1Cl)Cl)Cl)Cl'
p2860
sg6
(lp2861
g19
asg9
F0.59999999999999998
sg10
F-1.6200000000000001
sg11
g20
sg13
S' 1,2,3,5-tetrachlorobenzene'
p2862
ssS'mobley_9740891'
p2863
(dp2864
g4
S'c1cc(c(c(c1)Cl)C#N)Cl'
p2865
sg6
(lp2866
g19
asg9
F1.9299999999999999
sg10
F-4.71
sg11
g107
sg13
S' dichlobenil'
p2867
ssS'mobley_7608462'
p2868
(dp2869
g4
S'c1ccc(cc1)Cl'
p2870
sg6
(lp2871
g19
asg9
F0.59999999999999998
sg10
F-1.1200000000000001
sg11
g20
sg13
S' chlorobenzene'
p2872
ssS'mobley_8221999'
p2873
(dp2874
g4
S'CCCC#N'
p2875
sg6
(lp2876
g19
asg9
F0.59999999999999998
sg10
F-3.6400000000000001
sg11
g20
sg13
S' butanenitrile'
p2877
ssS'mobley_4762983'
p2878
(dp2879
g4
S'CCCCCC=C'
p2880
sg6
(lp2881
g19
asg9
F0.59999999999999998
sg10
F1.6599999999999999
sg11
g20
sg13
S' hept-1-ene'
p2882
ssS'mobley_2279874'
p2883
(dp2884
g4
S'COC(OC)OC'
p2885
sg6
(lp2886
g19
asg9
F0.59999999999999998
sg10
F-4.4199999999999999
sg11
g838
sg13
S' trimethoxymethane'
p2887
ssS'mobley_3663158'
p2888
(dp2889
g4
S'c1ccc2cc(ccc2c1)O'
p2890
sg6
(lp2891
g19
asg9
F0.59999999999999998
sg10
F-8.1099999999999994
sg11
g20
sg13
S' naphthalen-2-ol'
p2892
ssS'mobley_8764620'
p2893
(dp2894
g4
S'c1cc(cnc1)C#N'
p2895
sg6
(lp2896
g19
asg9
F0.59999999999999998
sg10
F-6.75
sg11
g20
sg13
S' pyridine-3-carbonitrile'
p2897
ssS'mobley_820789'
p2898
(dp2899
g4
S'CCCC(=O)O'
p2900
sg6
(lp2901
g19
asg9
F0.59999999999999998
sg10
F-6.3499999999999996
sg11
g20
sg13
S' butyric acid'
p2902
ssS'mobley_6978427'
p2903
(dp2904
g4
S'COC(=O)C1CCCCC1'
p2905
sg6
(lp2906
g19
asg9
F0.59999999999999998
sg10
F-3.2999999999999998
sg11
g20
sg13
S' methyl cyclohexanecarboxylate'
p2907
ssS'mobley_6739648'
p2908
(dp2909
g4
S'C1COCCO1'
p2910
sg6
(lp2911
g19
asg9
F0.59999999999999998
sg10
F-5.0599999999999996
sg11
g20
sg13
S' 1,4-dioxane'
p2912
ssS'mobley_1800170'
p2913
(dp2914
g4
S'CCS'
p2915
sg6
(lp2916
g19
asg9
F0.59999999999999998
sg10
F-1.1399999999999999
sg11
g20
sg13
S' ethanethiol'
p2917
ssS'mobley_1046331'
p2918
(dp2919
g4
S'c1ccc(cc1)OC=O'
p2920
sg6
(lp2921
g19
asg9
F0.59999999999999998
sg10
F-3.8199999999999998
sg11
g854
sg13
S' phenyl formate'
p2922
ssS'mobley_9821936'
p2923
(dp2924
g4
S'c12c(c(c(c(c1Cl)Cl)Cl)Cl)Oc3c(c(c(c(c3Cl)Cl)Cl)Cl)O2'
p2925
sg6
(lp2926
g19
asg9
F1
sg10
F-4.5300000000000002
sg11
g123
sg13
S' octachlorodibenzo-p-dioxin'
p2927
ssS'mobley_8311303'
p2928
(dp2929
g4
S'c1cc(c(cc1c2c(c(cc(c2Cl)Cl)Cl)Cl)Cl)Cl'
p2930
sg6
(lp2931
g19
asg9
F0.22
sg10
F-4.3799999999999999
sg11
g123
sg13
S" 2,3,3',4',5,6-Hexachlorobiphenyl"
p2932
ssS'mobley_4483973'
p2933
(dp2934
g4
S'c1ccc(cc1)F'
p2935
sg6
(lp2936
g19
asg9
F0.59999999999999998
sg10
F-0.80000000000000004
sg11
g20
sg13
S' fluorobenzene'
p2937
ssS'mobley_4845722'
p2938
(dp2939
g4
S'c1(c(c(c(c(c1Cl)Cl)Cl)Cl)Cl)Cl'
p2940
sg6
(lp2941
g19
asg9
F1.1599999999999999
sg10
F-2.3300000000000001
sg11
g247
sg13
S' hexachlorobenzene'
p2942
ssS'mobley_2294995'
p2943
(dp2944
g4
S'CCOC=O'
p2945
sg6
(lp2946
g19
asg9
F0.59999999999999998
sg10
F-2.5600000000000001
sg11
g20
sg13
S' ethyl formate'
p2947
ssS'mobley_303222'
p2948
(dp2949
g4
S'CC=C'
p2950
sg6
(lp2951
g19
asg9
F0.59999999999999998
sg10
F1.3200000000000001
sg11
g20
sg13
S' prop-1-ene'
p2952
ssS'mobley_1563176'
p2953
(dp2954
g4
S'CCCCS'
p2955
sg6
(lp2956
g19
asg9
F0.59999999999999998
sg10
F-0.98999999999999999
sg11
g20
sg13
S' butane-1-thiol'
p2957
ssS'mobley_4375719'
p2958
(dp2959
g4
S'CCCCCCCCC'
p2960
sg6
(lp2961
g19
asg9
F0.59999999999999998
sg10
F3.1299999999999999
sg11
g20
sg13
S' nonane'
p2962
ssS'mobley_8117218'
p2963
(dp2964
g4
S'C1[C@@H]2[C@H]3[C@@H]([C@H]1[C@H]4[C@@H]2O4)[C@@]5(C(=C([C@]3(C5(Cl)Cl)Cl)Cl)Cl)Cl'
p2965
sg6
(lp2966
g19
asg9
F0.10000000000000001
sg10
F-4.8200000000000003
sg11
g107
sg13
S' endrin'
p2967
ssS'mobley_8765203'
p2968
(dp2969
g4
S'CC(=C)C=C'
p2970
sg6
(lp2971
g19
asg9
F0.59999999999999998
sg10
F0.68000000000000005
sg11
g20
sg13
S' isoprene'
p2972
ssS'mobley_1278715'
p2973
(dp2974
g4
S'C(C(Cl)(Cl)Cl)(Cl)(Cl)Cl'
p2975
sg6
(lp2976
g19
asg9
F0.10000000000000001
sg10
F-0.64000000000000001
sg11
g247
sg13
S' hexachloroethane'
p2977
ssS'mobley_2269032'
p2978
(dp2979
g4
S'C[C@@H](c1ccc2cc(ccc2c1)OC)C(=O)O'
p2980
sg6
(lp2981
g19
asg9
F0.17999999999999999
sg10
F-10.210000000000001
sg11
g247
sg13
S' naproxen'
p2982
ssS'mobley_929676'
p2983
(dp2984
g4
S'CCCCCCBr'
p2985
sg6
(lp2986
g19
asg9
F0.59999999999999998
sg10
F0.17999999999999999
sg11
g20
sg13
S' 1-bromohexane'
p2987
ssS'mobley_1328465'
p2988
(dp2989
g4
S'C(C(Cl)Cl)Cl'
p2990
sg6
(lp2991
g19
asg9
F0.59999999999999998
sg10
F-1.99
sg11
g20
sg13
S' 1,1,2-trichloroethane'
p2992
ssS'mobley_296847'
p2993
(dp2994
g4
S'c1ccncc1'
p2995
sg6
(lp2996
g19
asg9
F0.59999999999999998
sg10
F-4.6900000000000004
sg11
g20
sg13
S' pyridine'
p2997
ssS'mobley_4983965'
p2998
(dp2999
g4
S'CCSCC'
p3000
sg6
(lp3001
g19
asg9
F0.59999999999999998
sg10
F-1.46
sg11
g20
sg13
S' ethylsulfanylethane'
p3002
ssS'mobley_6082662'
p3003
(dp3004
g4
S'c1cc(ccc1N)N(=O)=O'
p3005
sg6
(lp3006
g19
asg9
F0.10000000000000001
sg10
F-9.8200000000000003
sg11
g247
sg13
S' 4-nitroaniline'
p3007
ssS'mobley_7859387'
p3008
(dp3009
g4
S'CCCCCCC=O'
p3010
sg6
(lp3011
g19
asg9
F0.59999999999999998
sg10
F-2.6699999999999999
sg11
g20
sg13
S' heptanal'
p3012
ssS'mobley_7360181'
p3013
(dp3014
g4
S'COC(C(F)(F)F)(OC)OC'
p3015
sg6
(lp3016
g19
aS'Changed IUPAC name from trimethyl orthotrifluoroacetate to 1,1,1-trifluoro-2,2,2-trimethoxyethane for better handling/standardization.'
p3017
asg9
F0.20000000000000001
sg10
F-0.80000000000000004
sg11
g247
sg13
S' 1,1,1-trifluoro-2,2,2-trimethoxyethane'
p3018
ssS'mobley_2923700'
p3019
(dp3020
g4
S'CCc1ccc(cc1)O'
p3021
sg6
(lp3022
g19
asg9
F0.59999999999999998
sg10
F-6.1299999999999999
sg11
g20
sg13
S' 4-ethylphenol'
p3023
ssS'mobley_2123854'
p3024
(dp3025
g4
S'c1cc(ccc1C#N)O'
p3026
sg6
(lp3027
g19
asg9
F0.59999999999999998
sg10
F-10.17
sg11
g20
sg13
S' 4-hydroxybenzonitrile'
p3028
ssS'mobley_3589456'
p3029
(dp3030
g4
S'COC(CCl)(OC)OC'
p3031
sg6
(lp3032
g19
asg9
F0.59999999999999998
sg10
F-4.5899999999999999
sg11
g26
sg13
S' 2-chloro-1,1,1-trimethoxy-ethane'
p3033
ssS'mobley_2078467'
p3034
(dp3035
g4
S'C[C@@H](c1ccc(cc1)CC(C)C)C(=O)O'
p3036
sg6
(lp3037
g19
asg9
F0.64000000000000001
sg10
F-7
sg11
g247
sg13
S' ibuprofen'
p3038
ssS'mobley_3265457'
p3039
(dp3040
g4
S'COc1cc(c(c(c1O)OC)Cl)C=O'
p3041
sg6
(lp3042
g19
asg9
g155
(g157
S'\xa4p=\n\xd7\xa3\xe8?'
tRp3043
sg10
g155
(g157
S'\x1f\x85\xebQ\xb8\x1e\x1f\xc0'
tRp3044
sg11
g160
sg13
S' 2-chlorosyringaldehyde'
p3045
ssS'mobley_9028462'
p3046
(dp3047
g4
S'COC(=O)C(F)(F)F'
p3048
sg6
(lp3049
g19
asg9
F0.59999999999999998
sg10
F-1.1000000000000001
sg11
S'10.1139/v76-032'
p3050
sg13
S' methyl 2,2,2-trifluoroacetate'
p3051
ssS'mobley_3259411'
p3052
(dp3053
g4
S'C(C(CO)O)O'
p3054
sg6
(lp3055
g19
asg9
F1
sg10
F-13.43
sg11
g247
sg13
S' glycerol'
p3056
ssS'mobley_7735340'
p3057
(dp3058
g4
S'c1cnc[nH]1'
p3059
sg6
(lp3060
g19
asg9
F0.59999999999999998
sg10
F-9.6300000000000008
sg11
g20
sg13
S' imidazole'
p3061
ssS'mobley_5948990'
p3062
(dp3063
g4
S'c1ccc(c(c1)N)[N+](=O)[O-]'
p3064
sg6
(lp3065
g19
asg9
F0.59999999999999998
sg10
F-7.3700000000000001
sg11
g20
sg13
S' 2-nitroaniline'
p3066
ssS'mobley_3452749'
p3067
(dp3068
g4
S'Cc1cccc(c1C)C'
p3069
sg6
(lp3070
g19
asg9
F0.59999999999999998
sg10
F-1.21
sg11
g20
sg13
S' 1,2,3-trimethylbenzene'
p3071
ssS'mobley_9414831'
p3072
(dp3073
g4
S'Cc1cccc2c1cccc2'
p3074
sg6
(lp3075
g19
asg9
F0.59999999999999998
sg10
F-2.4399999999999999
sg11
g20
sg13
S' 1-methylnaphthalene'
p3076
ssS'mobley_7599023'
p3077
(dp3078
g4
S'c1ccc(cc1)Br'
p3079
sg6
(lp3080
g19
asg9
F0.59999999999999998
sg10
F-1.46
sg11
g20
sg13
S' bromobenzene'
p3081
ssS'mobley_9557440'
p3082
(dp3083
g4
S'c1c(c(=O)[nH]c(=O)[nH]1)Cl'
p3084
sg6
(lp3085
g19
asg9
F0.78000000000000003
sg10
F-17.739999999999998
sg11
g247
sg13
S' 5-chlorouracil'
p3086
ssS'mobley_6474572'
p3087
(dp3088
g4
S'C=CCl'
p3089
sg6
(lp3090
g19
asg9
F0.59999999999999998
sg10
F-0.58999999999999997
sg11
g20
sg13
S' chloroethylene'
p3091
ssS'mobley_6988468'
p3092
(dp3093
g4
S'CCc1ccccn1'
p3094
sg6
(lp3095
g19
asg9
F0.59999999999999998
sg10
F-4.3300000000000001
sg11
g20
sg13
S' 2-ethylpyridine'
p3096
ssS'mobley_7150646'
p3097
(dp3098
g4
S'c1cc(ccc1Br)Br'
p3099
sg6
(lp3100
g19
asg9
F0.59999999999999998
sg10
F-2.2999999999999998
sg11
g20
sg13
S' 1,4-dibromobenzene'
p3101
ssS'mobley_5708811'
p3102
(dp3103
g4
S'COc1c(ccc(c1C(=O)O)Cl)Cl'
p3104
sg6
(lp3105
g19
asg9
F1.9299999999999999
sg10
F-9.8599999999999994
sg11
g107
sg13
S' dicamba'
p3106
ssS'mobley_6688723'
p3107
(dp3108
g4
S'COc1c(cc(c(c1O)OC)Cl)Cl'
p3109
sg6
(lp3110
g19
asg9
g155
(g157
S'R\xb8\x1e\x85\xebQ\xd8?'
tRp3111
sg10
F-6.4400000000000004
sg11
g160
sg13
S' 3,5-Dichlorosyringol'
p3112
ssS'mobley_4252724'
p3113
(dp3114
g4
S'CC(C)Cc1ccccc1'
p3115
sg6
(lp3116
g19
asg9
F0.59999999999999998
sg10
F0.16
sg11
g20
sg13
S' isobutylbenzene'
p3117
ssS'mobley_8983100'
p3118
(dp3119
g4
S'CBr'
p3120
sg6
(lp3121
g19
asg9
F0.59999999999999998
sg10
F-0.81999999999999995
sg11
g20
sg13
S' bromomethane'
p3122
ssS'mobley_1952272'
p3123
(dp3124
g4
S'C[N+](=O)[O-]'
p3125
sg6
(lp3126
g19
asg9
F0.59999999999999998
sg10
F-4.0199999999999996
sg11
g20
sg13
S' nitromethane'
p3127
ssS'mobley_9007496'
p3128
(dp3129
g4
S'CNC(=O)Oc1cccc2c1cccc2'
p3130
sg6
(lp3131
g19
aS'Changed IUPAC name from carbaryl to naphthalen-1-yl N-methylcarbamate for better handling/standardization.'
p3132
asg9
F0.10000000000000001
sg10
F-9.4499999999999993
sg11
g107
sg13
S' carbaryl'
p3133
ssS'mobley_8124669'
p3134
(dp3135
g4
S'CCc1cccc(c1N(COC)C(=O)CCl)CC'
p3136
sg6
(lp3137
g19
asg9
F0.28999999999999998
sg10
F-8.2100000000000009
sg11
g107
sg13
S' alachlor'
p3138
ssS'mobley_1728386'
p3139
(dp3140
g4
S'c1ccc(cc1)C(=O)N'
p3141
sg6
(lp3142
g8
asg9
F0.20000000000000001
sg10
F-11
sg11
g12
sg13
S' benzamide'
p3143
ssS'mobley_9100956'
p3144
(dp3145
g4
S'CC1CCCCC1'
p3146
sg6
(lp3147
g19
asg9
F0.59999999999999998
sg10
F1.7
sg11
g20
sg13
S' methylcyclohexane'
p3148
ssS'mobley_7768165'
p3149
(dp3150
g4
S'C(CBr)Cl'
p3151
sg6
(lp3152
g19
asg9
F0.59999999999999998
sg10
F-1.95
sg11
g20
sg13
S' 1-bromo-2-chloro-ethane'
p3153
ssS'mobley_664966'
p3154
(dp3155
g4
S'C(I)I'
p3156
sg6
(lp3157
g19
asg9
F0.59999999999999998
sg10
F-2.4900000000000002
sg11
g20
sg13
S' diiodomethane'
p3158
ssS'mobley_852937'
p3159
(dp3160
g4
S'c1cc(ccc1O)F'
p3161
sg6
(lp3162
g19
asg9
F0.59999999999999998
sg10
F-6.1900000000000004
sg11
g20
sg13
S' 4-fluorophenol'
p3163
ssS'mobley_8789864'
p3164
(dp3165
g4
S'COC(CC#N)(OC)OC'
p3166
sg6
(lp3167
g19
asg9
F0.59999999999999998
sg10
F-6.4000000000000004
sg11
g26
sg13
S' 3,3,3-trimethoxypropanenitrile'
p3168
ssS'mobley_7364468'
p3169
(dp3170
g4
S'CC1=CC(=O)CC(C1)(C)C'
p3171
sg6
(lp3172
g19
aS'Changed IUPAC name from isophorone to 3,5,5-trimethylcyclohex-2-en-1-one for better handling/standardization.'
p3173
asg9
F1.3700000000000001
sg10
F-5.1799999999999997
sg11
g107
sg13
S' 3,5,5-trimethylcyclohex-2-en-1-one'
p3174
ssS'mobley_3414356'
p3175
(dp3176
g4
S'CCCC(C)(C)O'
p3177
sg6
(lp3178
g19
asg9
F0.59999999999999998
sg10
F-3.9199999999999999
sg11
g20
sg13
S' 2-methylpentan-2-ol'
p3179
ssS'mobley_778352'
p3180
(dp3181
g4
S'CC=C(C)C'
p3182
sg6
(lp3183
g19
asg9
F0.59999999999999998
sg10
F1.3100000000000001
sg11
g2760
sg13
S' 2-methylbut-2-ene'
p3184
ssS'mobley_4395315'
p3185
(dp3186
g4
S'Cc1cc(ccc1Cl)O'
p3187
sg6
(lp3188
g19
asg9
F0.59999999999999998
sg10
F-6.79
sg11
g20
sg13
S' 4-chloro-3-methyl-phenol'
p3189
ssS'mobley_1424265'
p3190
(dp3191
g4
S'Cc1cccc(c1)C'
p3192
sg6
(lp3193
g19
asg9
F0.59999999999999998
sg10
F-0.82999999999999996
sg11
g20
sg13
S' m-xylene'
p3194
ssS'mobley_7610437'
p3195
(dp3196
g4
S'CC[C@H](C(C)C)O'
p3197
sg6
(lp3198
S'Renamed mobley_7610437 from 2-methylpentan-3-ol to (3R)-2-methylpentan-3-ol (the name from the 3D structure) since the former did not completely specify stereochemistry.\n'
p3199
asg9
F0.59999999999999998
sg10
F-3.8799999999999999
sg11
g20
sg13
S' 2-methylpentan-3-ol'
p3200
ssS'mobley_4609460'
p3201
(dp3202
g4
S'CCOC(=O)c1ccc(cc1)O'
p3203
sg6
(lp3204
g19
asg9
F0.29999999999999999
sg10
F-9.1999999999999993
sg11
g247
sg13
S' ethyl paraben'
p3205
ssS'mobley_8713762'
p3206
(dp3207
g4
S'CCCN(CCC)C(=O)SCCC'
p3208
sg6
(lp3209
g19
aS'Changed IUPAC name from vernolate to N,N-dipropyl(propylsulfanyl)formamide for better handling/standardization.'
p3210
asg9
F1.3600000000000001
sg10
F-4.1299999999999999
sg11
g107
sg13
S' vernolate'
p3211
ssS'mobley_2178600'
p3212
(dp3213
g4
S'CCCCCCl'
p3214
sg6
(lp3215
g8
asg9
F0.20000000000000001
sg10
F-0.10000000000000001
sg11
g12
sg13
S' 1-chloro-pentane'
p3216
ssS'mobley_4936555'
p3217
(dp3218
g4
S'Cc1cccc(c1C)Nc2ccccc2C(=O)O'
p3219
sg6
(lp3220
g19
asg9
g155
(g157
S'\x9a\x99\x99\x99\x99\x99\xb9?'
tRp3221
sg10
g155
(g157
S'\x1f\x85\xebQ\xb8\x1e\x1b\xc0'
tRp3222
sg11
g160
sg13
S' mefenamic acid'
p3223
ssS'mobley_1760914'
p3224
(dp3225
g4
S'Cc1ccccc1Cl'
p3226
sg6
(lp3227
g19
asg9
F0.59999999999999998
sg10
F-1.1399999999999999
sg11
g20
sg13
S' 1-chloro-2-methyl-benzene'
p3228
ssS'mobley_9883303'
p3229
(dp3230
g4
S'CCC[C@H](C)CC'
p3231
sg6
(lp3232
S'Renamed mobley_9883303 from 3-methylhexane to (3R)-3-methylhexane (the name from the 3D structure) since the former did not completely specify stereochemistry.\n'
p3233
asg9
F0.59999999999999998
sg10
F2.71
sg11
g20
sg13
S' 3-methylhexane'
p3234
ssS'mobley_9029594'
p3235
(dp3236
g4
S'CF'
p3237
sg6
(lp3238
g19
asg9
F0.59999999999999998
sg10
F-0.22
sg11
g20
sg13
S' fluoromethane'
p3239
ssS'mobley_1502181'
p3240
(dp3241
g4
S'CCCCCCCC(=O)C'
p3242
sg6
(lp3243
g19
asg9
F0.59999999999999998
sg10
F-2.4900000000000002
sg11
g20
sg13
S' nonan-2-one'
p3244
ssS'mobley_9478823'
p3245
(dp3246
g4
S'Cc1ccccc1C'
p3247
sg6
(lp3248
g19
asg9
F0.59999999999999998
sg10
F-0.90000000000000002
sg11
g20
sg13
S' o-xylene'
p3249
ssS'mobley_9201263'
p3250
(dp3251
g4
S'COS(=O)(=O)C'
p3252
sg6
(lp3253
g19
asg9
F0.59999999999999998
sg10
F-4.8700000000000001
sg11
g807
sg13
S' methyl methanesulfonate'
p3254
ssS'mobley_2613240'
p3255
(dp3256
g4
S'COc1ccccc1OC'
p3257
sg6
(lp3258
g19
asg9
g155
(g157
S'\x9a\x99\x99\x99\x99\x99\xb9?'
tRp3259
sg10
g155
(g157
S'R\xb8\x1e\x85\xebQ\x15\xc0'
tRp3260
sg11
g160
sg13
S' 1,2-dimethoxybenzene'
p3261
ssS'mobley_7769613'
p3262
(dp3263
g4
S'CC(C)(C)Br'
p3264
sg6
(lp3265
g19
asg9
F0.59999999999999998
sg10
F0.83999999999999997
sg11
g20
sg13
S' 2-bromo-2-methyl-propane'
p3266
ssS'mobley_4434915'
p3267
(dp3268
g4
S'CCl'
p3269
sg6
(lp3270
g19
asg9
F0.59999999999999998
sg10
F-0.55000000000000004
sg11
g20
sg13
S' chloromethane'
p3271
ssS'mobley_2410897'
p3272
(dp3273
g4
S'CCN'
p3274
sg6
(lp3275
g19
asg9
F0.59999999999999998
sg10
F-4.5
sg11
g20
sg13
S' ethanamine'
p3276
ssS'mobley_5003962'
p3277
(dp3278
g4
S'c1ccc2c(c1)C(=O)c3ccc(cc3C2=O)N'
p3279
sg6
(lp3280
g19
asg9
g155
(g157
S'\x8f\xc2\xf5(\\\x8f\xd2?'
tRp3281
sg10
g155
(g157
S"\x8f\xc2\xf5(\\\x0f'\xc0"
tRp3282
sg11
g160
sg13
S' 2-amino-9,10-anthraquinone'
p3283
ssS'mobley_1929982'
p3284
(dp3285
g4
S'S'
sg6
(lp3286
g19
asg9
F0.59999999999999998
sg10
F-0.69999999999999996
sg11
g20
sg13
S' hydrogen sulfide'
p3287
ssS'mobley_1650157'
p3288
(dp3289
g4
S'CC(C)(C)O'
p3290
sg6
(lp3291
g19
asg9
F0.59999999999999998
sg10
F-4.4699999999999998
sg11
g20
sg13
S' 2-methylpropan-2-ol'
p3292
ssS'mobley_5935995'
p3293
(dp3294
g4
S'CCC(C)(C)C'
p3295
sg6
(lp3296
g19
asg9
F0.59999999999999998
sg10
F2.5099999999999998
sg11
g20
sg13
S' 2,2-dimethylbutane'
p3297
ssS'mobley_8048190'
p3298
(dp3299
g4
S'CC(=O)N'
p3300
sg6
(lp3301
g19
asg9
F0.59999999999999998
sg10
F-9.7100000000000009
sg11
g20
sg13
S' acetamide'
p3302
ssS'mobley_5917842'
p3303
(dp3304
g4
S'Cc1ccc(c(c1)OC)O'
p3305
sg6
(lp3306
g19
asg9
g155
(g157
S'\x9a\x99\x99\x99\x99\x99\xb9?'
tRp3307
sg10
g155
(g157
S'333333\x17\xc0'
tRp3308
sg11
g160
sg13
S' 4-methyl-2-methoxyphenol'
p3309
ssS'mobley_7106722'
p3310
(dp3311
g4
S'CCCC(C)C'
p3312
sg6
(lp3313
g19
asg9
F0.59999999999999998
sg10
F2.5099999999999998
sg11
g20
sg13
S' isohexane'
p3314
ssS'mobley_8883511'
p3315
(dp3316
g4
S'Cc1ccccc1C=O'
p3317
sg6
(lp3318
g19
asg9
g155
(g157
S'\x9a\x99\x99\x99\x99\x99\xb9?'
tRp3319
sg10
g155
(g157
S'q=\n\xd7\xa3p\x0f\xc0'
tRp3320
sg11
g160
sg13
S' 2-methylbenzaldehyde'
p3321
ssS'mobley_7732703'
p3322
(dp3323
g4
S'C(F)(F)(F)Br'
p3324
sg6
(lp3325
g19
asg9
F0.59999999999999998
sg10
F1.79
sg11
g20
sg13
S' bromo-trifluoro-methane'
p3326
ssS'mobley_3639400'
p3327
(dp3328
g4
S'CCCCCl'
p3329
sg6
(lp3330
g19
asg9
F0.59999999999999998
sg10
F-0.16
sg11
g20
sg13
S' 1-chlorobutane'
p3331
ssS'mobley_9185328'
p3332
(dp3333
g4
S'CCCN'
p3334
sg6
(lp3335
g19
asg9
F0.59999999999999998
sg10
F-4.3899999999999997
sg11
g20
sg13
S' propan-1-amine'
p3336
ssS'mobley_3105103'
p3337
(dp3338
g4
S'Cc1c(c(=O)n(c(=O)[nH]1)C(C)(C)C)Cl'
p3339
sg6
(lp3340
g19
asg9
F1.9299999999999999
sg10
F-11.140000000000001
sg11
g107
sg13
S' terbacil'
p3341
ssS'mobley_8337977'
p3342
(dp3343
g4
S'CC(C)CC(=O)C'
p3344
sg6
(lp3345
g19
asg9
F0.59999999999999998
sg10
F-3.0499999999999998
sg11
g20
sg13
S' 4-methylpentan-2-one'
p3346
ssS'mobley_5347550'
p3347
(dp3348
g4
S'COC(C(Cl)Cl)(F)F'
p3349
sg6
(lp3350
g19
asg9
F0.59999999999999998
sg10
F-1.1200000000000001
sg11
g20
sg13
S' methoxyflurane'
p3351
ssS'mobley_1733799'
p3352
(dp3353
g4
S'c1cc(ccc1O)Br'
p3354
sg6
(lp3355
g19
aS'Experimental value updated 10/22/13 from J. Peter Guthrie (University of Western Ontario) taken as a weighted average of the values -7.13 from a Cabani review, and -5.24 from experimental data from Parsons, Rochester, and Wood (see reference). The weighting gives preference to the latter since it gives source data.\n'
p3356
asg9
F0.82999999999999996
sg10
F-5.8499999999999996
sg11
S'10.1039/J29710000533 and 10.1007/BF00646936'
p3357
sg13
S' 4-bromophenol'
p3358
ssS'mobley_5494918'
p3359
(dp3360
g4
S'C(=C(F)F)(C(F)(F)F)F'
p3361
sg6
(lp3362
S'Updated correcting an error in the Rizzo/Mobley sets that had arisen from confusing the abbreviation HFP with hexafluoropropan-2-ol versus hexafluoropropene. Reference: Wilhelm, E., Battino, R., Wilcock, R. J., Chem. Rev. 1977, 77, 223-262.\n'
p3363
ag19
asg9
F0.59999999999999998
sg10
F2.9300000000000002
sg11
S'10.1021/cr60306a003'
p3364
sg13
S' 1,1,2,3,3,3-hexafluoroprop-1-ene'
p3365
ssS'mobley_7010316'
p3366
(dp3367
g4
S'C1CCC(CC1)O'
p3368
sg6
(lp3369
g19
asg9
F0.59999999999999998
sg10
F-5.46
sg11
g20
sg13
S' cyclohexanol'
p3370
ssS'mobley_8320545'
p3371
(dp3372
g4
S'CC[N+](=O)[O-]'
p3373
sg6
(lp3374
g19
asg9
F0.59999999999999998
sg10
F-3.71
sg11
g20
sg13
S' 1-nitroethane'
p3375
ssS'mobley_3775790'
p3376
(dp3377
g4
S'Cn1cccc1'
p3378
sg6
(lp3379
g19
asg9
F0.59999999999999998
sg10
F-2.8900000000000001
sg11
g20
sg13
S' 1-methylpyrrole'
p3380
ssS'mobley_7157427'
p3381
(dp3382
g4
S'CCCCCCCCl'
p3383
sg6
(lp3384
g19
asg9
F0.59999999999999998
sg10
F0.28999999999999998
sg11
g20
sg13
S' 1-chloroheptane'
p3385
ssS'mobley_3746675'
p3386
(dp3387
g4
S'CC(=C)c1ccccc1'
p3388
sg6
(lp3389
g19
asg9
F0.59999999999999998
sg10
F-1.24
sg11
g20
sg13
S' isopropenylbenzene'
p3390
ssS'mobley_3715043'
p3391
(dp3392
g4
S'Cc1ccc(c2c1cccc2)C'
p3393
sg6
(lp3394
g19
asg9
F0.59999999999999998
sg10
F-2.8199999999999998
sg11
g20
sg13
S' 1,4-dimethylnaphthalene'
p3395
ssS'mobley_5263791'
p3396
(dp3397
g4
S'CCc1cccc2c1cccc2'
p3398
sg6
(lp3399
g19
asg9
F0.59999999999999998
sg10
F-2.3999999999999999
sg11
g20
sg13
S' 1-ethylnaphthalene'
p3400
ss.